ccollections
defaultdict
p0
(c__builtin__
list
p1
tp2
Rp3
VNamingSystem
p4
(lp5
Vid
p6
aVmeta
p7
aVimplicitRules
p8
aVlanguage
p9
aVtext
p10
aVcontained
p11
aVextension
p12
aVmodifierExtension
p13
aVname
p14
aVstatus
p15
aVkind
p16
aVdate
p17
aVpublisher
p18
aVcontact
p19
aVresponsible
p20
aVtype
p21
aVdescription
p22
aVuseContext
p23
aVjurisdiction
p24
aVusage
p25
aVuniqueId
p26
aVreplacedBy
p27
asVGoal
p28
(lp29
Vid
p30
aVmeta
p31
aVimplicitRules
p32
aVlanguage
p33
aVtext
p34
aVcontained
p35
aVextension
p36
aVmodifierExtension
p37
aVidentifier
p38
aVstatus
p39
aVcategory
p40
aVpriority
p41
aVdescription
p42
aVsubject
p43
aVstartDate
p44
aVstartCodeableConcept
p45
aVtargetDate
p46
aVtargetDuration
p47
aVstatusDate
p48
aVstatusReason
p49
aVexpressedBy
p50
aVaddresses
p51
aVnote
p52
aVoutcome
p53
asVImmunizationRecommendation
p54
(lp55
Vid
p56
aVmeta
p57
aVimplicitRules
p58
aVlanguage
p59
aVtext
p60
aVcontained
p61
aVextension
p62
aVmodifierExtension
p63
aVidentifier
p64
aVpatient
p65
aVrecommendation
p66
asVMessageHeader
p67
(lp68
Vid
p69
aVmeta
p70
aVimplicitRules
p71
aVlanguage
p72
aVtext
p73
aVcontained
p74
aVextension
p75
aVmodifierExtension
p76
aVtimestamp
p77
aVevent
p78
aVresponse
p79
aVsource
p80
aVdestination
p81
aVenterer
p82
aVauthor
p83
aVreceiver
p84
aVresponsible
p85
aVreason
p86
aVdata
p87
asVActivityDefinition
p88
(lp89
Vid
p90
aVmeta
p91
aVimplicitRules
p92
aVlanguage
p93
aVtext
p94
aVcontained
p95
aVextension
p96
aVmodifierExtension
p97
aVurl
p98
aVidentifier
p99
aVversion
p100
aVname
p101
aVtitle
p102
aVstatus
p103
aVexperimental
p104
aVdate
p105
aVdescription
p106
aVpurpose
p107
aVusage
p108
aVapprovalDate
p109
aVlastReviewDate
p110
aVeffectivePeriod
p111
aVuseContext
p112
aVjurisdiction
p113
aVtopic
p114
aVcontributor
p115
aVpublisher
p116
aVcontact
p117
aVcopyright
p118
aVrelatedArtifact
p119
aVlibrary
p120
aVcategory
p121
aVcode
p122
aVtimingCodeableConcept
p123
aVtimingTiming
p124
aVlocation
p125
aVparticipantType
p126
aVproductReference
p127
aVproductReference
p128
aVproductCodeableConcept
p129
aVquantity
p130
aVdosageInstruction
p131
aVbodySite
p132
aVtransform
p133
aVdynamicValue
p134
asVPractitioner
p135
(lp136
Vid
p137
aVmeta
p138
aVimplicitRules
p139
aVlanguage
p140
aVtext
p141
aVcontained
p142
aVextension
p143
aVmodifierExtension
p144
aVidentifier
p145
aVactive
p146
aVname
p147
aVtelecom
p148
aVaddress
p149
aVgender
p150
aVbirthDate
p151
aVphoto
p152
aVrole
p153
aVqualification
p154
aVcommunication
p155
asVSchedule
p156
(lp157
Vid
p158
aVmeta
p159
aVimplicitRules
p160
aVlanguage
p161
aVtext
p162
aVcontained
p163
aVextension
p164
aVmodifierExtension
p165
aVidentifier
p166
aVactive
p167
aVserviceCategory
p168
aVserviceType
p169
aVspecialty
p170
aVactor
p171
aVplanningHorizon
p172
aVcomment
p173
asVResearchSubject
p174
(lp175
Vid
p176
aVmeta
p177
aVimplicitRules
p178
aVlanguage
p179
aVtext
p180
aVcontained
p181
aVextension
p182
aVmodifierExtension
p183
aVidentifier
p184
aVstatus
p185
aVperiod
p186
aVstudy
p187
aVindividual
p188
aVassignedArm
p189
aVactualArm
p190
aVconsent
p191
asVMedicationRequest
p192
(lp193
Vid
p194
aVmeta
p195
aVimplicitRules
p196
aVlanguage
p197
aVtext
p198
aVcontained
p199
aVextension
p200
aVmodifierExtension
p201
aVidentifier
p202
aVdefinition
p203
aVbasedOn
p204
aVrequisition
p205
aVstatus
p206
aVstage
p207
aVmedicationCodeableConcept
p208
aVmedicationReference
p209
aVpatient
p210
aVcontext
p211
aVsupportingInformation
p212
aVdateWritten
p213
aVrequester
p214
aVreasonCode
p215
aVreasonReference
p216
aVnote
p217
aVcategory
p218
aVdosageInstruction
p219
aVdispenseRequest
p220
aVsubstitution
p221
aVpriorPrescription
p222
aVeventHistory
p223
asVDocumentManifest
p224
(lp225
Vid
p226
aVmeta
p227
aVimplicitRules
p228
aVlanguage
p229
aVtext
p230
aVcontained
p231
aVextension
p232
aVmodifierExtension
p233
aVmasterIdentifier
p234
aVidentifier
p235
aVsubject
p236
aVrecipient
p237
aVtype
p238
aVauthor
p239
aVcreated
p240
aVsource
p241
aVstatus
p242
aVdescription
p243
aVcontent
p244
aVrelated
p245
asVImplementationGuide
p246
(lp247
Vid
p248
aVmeta
p249
aVimplicitRules
p250
aVlanguage
p251
aVtext
p252
aVcontained
p253
aVextension
p254
aVmodifierExtension
p255
aVurl
p256
aVversion
p257
aVname
p258
aVstatus
p259
aVexperimental
p260
aVpublisher
p261
aVcontact
p262
aVdate
p263
aVdescription
p264
aVuseContext
p265
aVjurisdiction
p266
aVcopyright
p267
aVfhirVersion
p268
aVdependency
p269
aVpackage
p270
aVglobal
p271
aVbinary
p272
aVpage
p273
asVPlanDefinition
p274
(lp275
Vid
p276
aVmeta
p277
aVimplicitRules
p278
aVlanguage
p279
aVtext
p280
aVcontained
p281
aVextension
p282
aVmodifierExtension
p283
aVurl
p284
aVidentifier
p285
aVversion
p286
aVname
p287
aVtitle
p288
aVtype
p289
aVstatus
p290
aVexperimental
p291
aVdate
p292
aVdescription
p293
aVpurpose
p294
aVusage
p295
aVapprovalDate
p296
aVlastReviewDate
p297
aVeffectivePeriod
p298
aVuseContext
p299
aVjurisdiction
p300
aVtopic
p301
aVcontributor
p302
aVpublisher
p303
aVcontact
p304
aVcopyright
p305
aVrelatedArtifact
p306
aVlibrary
p307
aVactionDefinition
p308
asVEncounter
p309
(lp310
Vid
p311
aVmeta
p312
aVimplicitRules
p313
aVlanguage
p314
aVtext
p315
aVcontained
p316
aVextension
p317
aVmodifierExtension
p318
aVidentifier
p319
aVstatus
p320
aVstatusHistory
p321
aVclass
p322
aVtype
p323
aVpriority
p324
aVpatient
p325
aVepisodeOfCare
p326
aVincomingReferral
p327
aVparticipant
p328
aVappointment
p329
aVperiod
p330
aVlength
p331
aVreason
p332
aVindication
p333
aVaccount
p334
aVhospitalization
p335
aVlocation
p336
aVserviceProvider
p337
aVpartOf
p338
asVAccount
p339
(lp340
Vid
p341
aVmeta
p342
aVimplicitRules
p343
aVlanguage
p344
aVtext
p345
aVcontained
p346
aVextension
p347
aVmodifierExtension
p348
aVidentifier
p349
aVname
p350
aVtype
p351
aVstatus
p352
aVactive
p353
aVcurrency
p354
aVbalance
p355
aVcoverage
p356
aVcoveragePeriod
p357
aVsubject
p358
aVowner
p359
aVdescription
p360
aVguarantor
p361
asVTask
p362
(lp363
Vid
p364
aVmeta
p365
aVimplicitRules
p366
aVlanguage
p367
aVtext
p368
aVcontained
p369
aVextension
p370
aVmodifierExtension
p371
aVidentifier
p372
aVdefinitionUri
p373
aVdefinitionReference
p374
aVbasedOn
p375
aVgroupIdentifier
p376
aVpartOf
p377
aVstatus
p378
aVstatusReason
p379
aVbusinessStatus
p380
aVintent
p381
aVpriority
p382
aVcode
p383
aVdescription
p384
aVfocus
p385
aVfor
p386
aVcontext
p387
aVexecutionPeriod
p388
aVauthoredOn
p389
aVlastModified
p390
aVrequester
p391
aVperformerType
p392
aVowner
p393
aVreason
p394
aVnote
p395
aVrelevantHistory
p396
aVrestriction
p397
aVinput
p398
aVoutput
p399
asVMetadataResource
p400
(lp401
Vid
p402
aVmeta
p403
aVimplicitRules
p404
aVlanguage
p405
aVtext
p406
aVcontained
p407
aVextension
p408
aVmodifierExtension
p409
aVurl
p410
aVversion
p411
aVname
p412
aVtitle
p413
aVstatus
p414
aVexperimental
p415
aVdate
p416
aVpublisher
p417
aVcontact
p418
aVuseContext
p419
aVjurisdiction
p420
aVdescription
p421
asVCodeSystem
p422
(lp423
Vid
p424
aVmeta
p425
aVimplicitRules
p426
aVlanguage
p427
aVtext
p428
aVcontained
p429
aVextension
p430
aVmodifierExtension
p431
aVurl
p432
aVidentifier
p433
aVversion
p434
aVname
p435
aVtitle
p436
aVstatus
p437
aVexperimental
p438
aVpublisher
p439
aVcontact
p440
aVdate
p441
aVdescription
p442
aVuseContext
p443
aVjurisdiction
p444
aVpurpose
p445
aVcopyright
p446
aVcaseSensitive
p447
aVvalueSet
p448
aVhierarchyMeaning
p449
aVcompositional
p450
aVversionNeeded
p451
aVcontent
p452
aVcount
p453
aVfilter
p454
aVproperty
p455
aVconcept
p456
asVMeasureReport
p457
(lp458
Vid
p459
aVmeta
p460
aVimplicitRules
p461
aVlanguage
p462
aVtext
p463
aVcontained
p464
aVextension
p465
aVmodifierExtension
p466
aVmeasure
p467
aVtype
p468
aVpatient
p469
aVperiod
p470
aVstatus
p471
aVdate
p472
aVreportingOrganization
p473
aVgroup
p474
aVevaluatedResources
p475
asVOrganization
p476
(lp477
Vid
p478
aVmeta
p479
aVimplicitRules
p480
aVlanguage
p481
aVtext
p482
aVcontained
p483
aVextension
p484
aVmodifierExtension
p485
aVidentifier
p486
aVactive
p487
aVtype
p488
aVname
p489
aValias
p490
aVtelecom
p491
aVaddress
p492
aVpartOf
p493
aVcontact
p494
aVendpoint
p495
asVMedicationStatement
p496
(lp497
Vid
p498
aVmeta
p499
aVimplicitRules
p500
aVlanguage
p501
aVtext
p502
aVcontained
p503
aVextension
p504
aVmodifierExtension
p505
aVidentifier
p506
aVstatus
p507
aVmedicationCodeableConcept
p508
aVmedicationReference
p509
aVsubject
p510
aVeffectiveDateTime
p511
aVeffectivePeriod
p512
aVinformationSource
p513
aVderivedFrom
p514
aVdateAsserted
p515
aVnotTaken
p516
aVreasonNotTaken
p517
aVreasonForUseCodeableConcept
p518
aVreasonForUseReference
p519
aVnote
p520
aVcategory
p521
aVdosage
p522
asVMedicationDispense
p523
(lp524
Vid
p525
aVmeta
p526
aVimplicitRules
p527
aVlanguage
p528
aVtext
p529
aVcontained
p530
aVextension
p531
aVmodifierExtension
p532
aVidentifier
p533
aVstatus
p534
aVmedicationCodeableConcept
p535
aVmedicationReference
p536
aVpatient
p537
aVsupportingInformation
p538
aVdispenser
p539
aVdispensingOrganization
p540
aVauthorizingPrescription
p541
aVtype
p542
aVquantity
p543
aVdaysSupply
p544
aVwhenPrepared
p545
aVwhenHandedOver
p546
aVdestination
p547
aVreceiver
p548
aVnote
p549
aVdosageInstruction
p550
aVsubstitution
p551
aVeventHistory
p552
asVSupplyRequest
p553
(lp554
Vid
p555
aVmeta
p556
aVimplicitRules
p557
aVlanguage
p558
aVtext
p559
aVcontained
p560
aVextension
p561
aVmodifierExtension
p562
aVpatient
p563
aVsource
p564
aVdate
p565
aVidentifier
p566
aVstatus
p567
aVkind
p568
aVorderedItemCodeableConcept
p569
aVorderedItemReference
p570
aVorderedItemReference
p571
aVorderedItemReference
p572
aVsupplier
p573
aVreasonCodeableConcept
p574
aVreasonReference
p575
aVwhen
p576
asVServiceDefinition
p577
(lp578
Vid
p579
aVmeta
p580
aVimplicitRules
p581
aVlanguage
p582
aVtext
p583
aVcontained
p584
aVextension
p585
aVmodifierExtension
p586
aVurl
p587
aVidentifier
p588
aVversion
p589
aVname
p590
aVtitle
p591
aVstatus
p592
aVexperimental
p593
aVdate
p594
aVdescription
p595
aVpurpose
p596
aVusage
p597
aVapprovalDate
p598
aVlastReviewDate
p599
aVeffectivePeriod
p600
aVuseContext
p601
aVjurisdiction
p602
aVtopic
p603
aVcontributor
p604
aVpublisher
p605
aVcontact
p606
aVcopyright
p607
aVrelatedArtifact
p608
aVtrigger
p609
aVdataRequirement
p610
aVoperationDefinition
p611
asVQuestionnaireResponse
p612
(lp613
Vid
p614
aVmeta
p615
aVimplicitRules
p616
aVlanguage
p617
aVtext
p618
aVcontained
p619
aVextension
p620
aVmodifierExtension
p621
aVidentifier
p622
aVbasedOn
p623
aVparent
p624
aVquestionnaire
p625
aVstatus
p626
aVsubject
p627
aVcontext
p628
aVauthor
p629
aVauthored
p630
aVsource
p631
aVitem
p632
asVProcessResponse
p633
(lp634
Vid
p635
aVmeta
p636
aVimplicitRules
p637
aVlanguage
p638
aVtext
p639
aVcontained
p640
aVextension
p641
aVmodifierExtension
p642
aVidentifier
p643
aVstatus
p644
aVcreated
p645
aVorganization
p646
aVrequest
p647
aVoutcome
p648
aVdisposition
p649
aVrequestProvider
p650
aVrequestOrganization
p651
aVform
p652
aVnote
p653
aVerror
p654
aVcommunicationRequest
p655
asVParameters
p656
(lp657
Vid
p658
aVmeta
p659
aVimplicitRules
p660
aVlanguage
p661
aVparameter
p662
asVProvenance
p663
(lp664
Vid
p665
aVmeta
p666
aVimplicitRules
p667
aVlanguage
p668
aVtext
p669
aVcontained
p670
aVextension
p671
aVmodifierExtension
p672
aVtarget
p673
aVperiod
p674
aVrecorded
p675
aVreason
p676
aVactivity
p677
aVlocation
p678
aVpolicy
p679
aVagent
p680
aVentity
p681
aVsignature
p682
asVSubstance
p683
(lp684
Vid
p685
aVmeta
p686
aVimplicitRules
p687
aVlanguage
p688
aVtext
p689
aVcontained
p690
aVextension
p691
aVmodifierExtension
p692
aVidentifier
p693
aVcategory
p694
aVcode
p695
aVdescription
p696
aVinstance
p697
aVingredient
p698
asVLocation
p699
(lp700
Vid
p701
aVmeta
p702
aVimplicitRules
p703
aVlanguage
p704
aVtext
p705
aVcontained
p706
aVextension
p707
aVmodifierExtension
p708
aVidentifier
p709
aVstatus
p710
aVname
p711
aValias
p712
aVdescription
p713
aVmode
p714
aVtype
p715
aVtelecom
p716
aVaddress
p717
aVphysicalType
p718
aVposition
p719
aVmanagingOrganization
p720
aVpartOf
p721
aVendpoint
p722
asVCareTeam
p723
(lp724
Vid
p725
aVmeta
p726
aVimplicitRules
p727
aVlanguage
p728
aVtext
p729
aVcontained
p730
aVextension
p731
aVmodifierExtension
p732
aVidentifier
p733
aVstatus
p734
aVcategory
p735
aVname
p736
aVsubject
p737
aVperiod
p738
aVparticipant
p739
aVmanagingOrganization
p740
asVExpansionProfile
p741
(lp742
Vid
p743
aVmeta
p744
aVimplicitRules
p745
aVlanguage
p746
aVtext
p747
aVcontained
p748
aVextension
p749
aVmodifierExtension
p750
aVurl
p751
aVidentifier
p752
aVversion
p753
aVname
p754
aVstatus
p755
aVexperimental
p756
aVpublisher
p757
aVcontact
p758
aVdate
p759
aVdescription
p760
aVuseContext
p761
aVjurisdiction
p762
aVfixedVersion
p763
aVexcludedSystem
p764
aVincludeDesignations
p765
aVdesignation
p766
aVincludeDefinition
p767
aVactiveOnly
p768
aVexcludeNested
p769
aVexcludeNotForUI
p770
aVexcludePostCoordinated
p771
aVdisplayLanguage
p772
aVlimitedExpansion
p773
asVPatient
p774
(lp775
Vid
p776
aVmeta
p777
aVimplicitRules
p778
aVlanguage
p779
aVtext
p780
aVcontained
p781
aVextension
p782
aVmodifierExtension
p783
aVidentifier
p784
aVactive
p785
aVname
p786
aVtelecom
p787
aVgender
p788
aVbirthDate
p789
aVdeceasedBoolean
p790
aVdeceasedDateTime
p791
aVaddress
p792
aVmaritalStatus
p793
aVmultipleBirthBoolean
p794
aVmultipleBirthInteger
p795
aVphoto
p796
aVcontact
p797
aVanimal
p798
aVcommunication
p799
aVgeneralPractitioner
p800
aVmanagingOrganization
p801
aVlink
p802
asVPaymentNotice
p803
(lp804
Vid
p805
aVmeta
p806
aVimplicitRules
p807
aVlanguage
p808
aVtext
p809
aVcontained
p810
aVextension
p811
aVmodifierExtension
p812
aVidentifier
p813
aVstatus
p814
aVrequest
p815
aVresponse
p816
aVstatusDate
p817
aVcreated
p818
aVtarget
p819
aVprovider
p820
aVorganization
p821
aVpaymentStatus
p822
asVClinicalImpression
p823
(lp824
Vid
p825
aVmeta
p826
aVimplicitRules
p827
aVlanguage
p828
aVtext
p829
aVcontained
p830
aVextension
p831
aVmodifierExtension
p832
aVidentifier
p833
aVstatus
p834
aVcode
p835
aVdescription
p836
aVsubject
p837
aVassessor
p838
aVdate
p839
aVeffectiveDateTime
p840
aVeffectivePeriod
p841
aVcontext
p842
aVprevious
p843
aVproblem
p844
aVinvestigation
p845
aVprotocol
p846
aVsummary
p847
aVfinding
p848
aVprognosisCodeableConcept
p849
aVprognosisReference
p850
aVaction
p851
aVnote
p852
asVFlag
p853
(lp854
Vid
p855
aVmeta
p856
aVimplicitRules
p857
aVlanguage
p858
aVtext
p859
aVcontained
p860
aVextension
p861
aVmodifierExtension
p862
aVidentifier
p863
aVcategory
p864
aVstatus
p865
aVperiod
p866
aVsubject
p867
aVencounter
p868
aVauthor
p869
aVcode
p870
asVExplanationOfBenefit
p871
(lp872
Vid
p873
aVmeta
p874
aVimplicitRules
p875
aVlanguage
p876
aVtext
p877
aVcontained
p878
aVextension
p879
aVmodifierExtension
p880
aVidentifier
p881
aVstatus
p882
aVtype
p883
aVsubType
p884
aVpatient
p885
aVbillablePeriod
p886
aVcreated
p887
aVenterer
p888
aVinsurer
p889
aVprovider
p890
aVorganization
p891
aVreferral
p892
aVfacility
p893
aVclaim
p894
aVclaimResponse
p895
aVoutcome
p896
aVdisposition
p897
aVrelated
p898
aVprescription
p899
aVoriginalPrescription
p900
aVpayee
p901
aVinformation
p902
aVcareTeam
p903
aVdiagnosis
p904
aVprocedure
p905
aVprecedence
p906
aVinsurance
p907
aVaccident
p908
aVemploymentImpacted
p909
aVhospitalization
p910
aVitem
p911
aVaddItem
p912
aVtotalCost
p913
aVunallocDeductable
p914
aVtotalBenefit
p915
aVpayment
p916
aVform
p917
aVnote
p918
aVbenefitBalance
p919
asVBodySite
p920
(lp921
Vid
p922
aVmeta
p923
aVimplicitRules
p924
aVlanguage
p925
aVtext
p926
aVcontained
p927
aVextension
p928
aVmodifierExtension
p929
aVpatient
p930
aVidentifier
p931
aVcode
p932
aVmodifier
p933
aVdescription
p934
aVimage
p935
asVLinkage
p936
(lp937
Vid
p938
aVmeta
p939
aVimplicitRules
p940
aVlanguage
p941
aVtext
p942
aVcontained
p943
aVextension
p944
aVmodifierExtension
p945
aVauthor
p946
aVitem
p947
asVSubscription
p948
(lp949
Vid
p950
aVmeta
p951
aVimplicitRules
p952
aVlanguage
p953
aVtext
p954
aVcontained
p955
aVextension
p956
aVmodifierExtension
p957
aVcriteria
p958
aVcontact
p959
aVreason
p960
aVstatus
p961
aVerror
p962
aVchannel
p963
aVend
p964
aVtag
p965
asVMedicationAdministration
p966
(lp967
Vid
p968
aVmeta
p969
aVimplicitRules
p970
aVlanguage
p971
aVtext
p972
aVcontained
p973
aVextension
p974
aVmodifierExtension
p975
aVidentifier
p976
aVstatus
p977
aVmedicationCodeableConcept
p978
aVmedicationReference
p979
aVpatient
p980
aVencounter
p981
aVsupportingInformation
p982
aVeffectiveDateTime
p983
aVeffectivePeriod
p984
aVperformer
p985
aVreasonReference
p986
aVprescription
p987
aVnotGiven
p988
aVreasonNotGiven
p989
aVreasonGiven
p990
aVdevice
p991
aVnote
p992
aVdosage
p993
aVeventHistory
p994
asVObservation
p995
(lp996
Vid
p997
aVmeta
p998
aVimplicitRules
p999
aVlanguage
p1000
aVtext
p1001
aVcontained
p1002
aVextension
p1003
aVmodifierExtension
p1004
aVidentifier
p1005
aVstatus
p1006
aVcategory
p1007
aVcode
p1008
aVsubject
p1009
aVencounter
p1010
aVeffectiveDateTime
p1011
aVeffectivePeriod
p1012
aVissued
p1013
aVperformer
p1014
aVvalueQuantity
p1015
aVvalueCodeableConcept
p1016
aVvalueString
p1017
aVvalueRange
p1018
aVvalueRatio
p1019
aVvalueSampledData
p1020
aVvalueAttachment
p1021
aVvalueTime
p1022
aVvalueDateTime
p1023
aVvaluePeriod
p1024
aVdataAbsentReason
p1025
aVinterpretation
p1026
aVcomment
p1027
aVbodySite
p1028
aVmethod
p1029
aVspecimen
p1030
aVdevice
p1031
aVreferenceRange
p1032
aVrelated
p1033
aVcomponent
p1034
asVPaymentReconciliation
p1035
(lp1036
Vid
p1037
aVmeta
p1038
aVimplicitRules
p1039
aVlanguage
p1040
aVtext
p1041
aVcontained
p1042
aVextension
p1043
aVmodifierExtension
p1044
aVidentifier
p1045
aVstatus
p1046
aVperiod
p1047
aVcreated
p1048
aVorganization
p1049
aVrequest
p1050
aVoutcome
p1051
aVdisposition
p1052
aVrequestProvider
p1053
aVrequestOrganization
p1054
aVdetail
p1055
aVform
p1056
aVtotal
p1057
aVnote
p1058
asVStructureMap
p1059
(lp1060
Vid
p1061
aVmeta
p1062
aVimplicitRules
p1063
aVlanguage
p1064
aVtext
p1065
aVcontained
p1066
aVextension
p1067
aVmodifierExtension
p1068
aVurl
p1069
aVidentifier
p1070
aVversion
p1071
aVname
p1072
aVtitle
p1073
aVstatus
p1074
aVexperimental
p1075
aVpublisher
p1076
aVcontact
p1077
aVdate
p1078
aVdescription
p1079
aVuseContext
p1080
aVjurisdiction
p1081
aVpurpose
p1082
aVcopyright
p1083
aVstructure
p1084
aVimport
p1085
aVgroup
p1086
asVTestScript
p1087
(lp1088
Vid
p1089
aVmeta
p1090
aVimplicitRules
p1091
aVlanguage
p1092
aVtext
p1093
aVcontained
p1094
aVextension
p1095
aVmodifierExtension
p1096
aVurl
p1097
aVidentifier
p1098
aVversion
p1099
aVname
p1100
aVtitle
p1101
aVstatus
p1102
aVexperimental
p1103
aVpublisher
p1104
aVcontact
p1105
aVdate
p1106
aVdescription
p1107
aVuseContext
p1108
aVjurisdiction
p1109
aVpurpose
p1110
aVcopyright
p1111
aVorigin
p1112
aVdestination
p1113
aVmetadata
p1114
aVfixture
p1115
aVprofile
p1116
aVvariable
p1117
aVrule
p1118
aVruleset
p1119
aVsetup
p1120
aVtest
p1121
aVteardown
p1122
asVImmunization
p1123
(lp1124
Vid
p1125
aVmeta
p1126
aVimplicitRules
p1127
aVlanguage
p1128
aVtext
p1129
aVcontained
p1130
aVextension
p1131
aVmodifierExtension
p1132
aVidentifier
p1133
aVstatus
p1134
aVdate
p1135
aVvaccineCode
p1136
aVpatient
p1137
aVwasNotGiven
p1138
aVprimarySource
p1139
aVreportOrigin
p1140
aVperformer
p1141
aVrequester
p1142
aVencounter
p1143
aVmanufacturer
p1144
aVlocation
p1145
aVlotNumber
p1146
aVexpirationDate
p1147
aVsite
p1148
aVroute
p1149
aVdoseQuantity
p1150
aVnote
p1151
aVexplanation
p1152
aVreaction
p1153
aVvaccinationProtocol
p1154
asVCommunicationRequest
p1155
(lp1156
Vid
p1157
aVmeta
p1158
aVimplicitRules
p1159
aVlanguage
p1160
aVtext
p1161
aVcontained
p1162
aVextension
p1163
aVmodifierExtension
p1164
aVidentifier
p1165
aVcategory
p1166
aVsender
p1167
aVrecipient
p1168
aVpayload
p1169
aVmedium
p1170
aVrequester
p1171
aVstatus
p1172
aVtopic
p1173
aVcontext
p1174
aVscheduledDateTime
p1175
aVscheduledPeriod
p1176
aVreason
p1177
aVrequestedOn
p1178
aVsubject
p1179
aVpriority
p1180
asVRequestGroup
p1181
(lp1182
Vid
p1183
aVmeta
p1184
aVimplicitRules
p1185
aVlanguage
p1186
aVtext
p1187
aVcontained
p1188
aVextension
p1189
aVmodifierExtension
p1190
aVidentifier
p1191
aVsubject
p1192
aVcontext
p1193
aVoccurrenceDateTime
p1194
aVauthor
p1195
aVreasonCodeableConcept
p1196
aVreasonReference
p1197
aVnote
p1198
aVaction
p1199
asVSequence
p1200
(lp1201
Vid
p1202
aVmeta
p1203
aVimplicitRules
p1204
aVlanguage
p1205
aVtext
p1206
aVcontained
p1207
aVextension
p1208
aVmodifierExtension
p1209
aVidentifier
p1210
aVtype
p1211
aVcoordinateSystem
p1212
aVpatient
p1213
aVspecimen
p1214
aVdevice
p1215
aVperformer
p1216
aVquantity
p1217
aVreferenceSeq
p1218
aVvariant
p1219
aVobservedSeq
p1220
aVquality
p1221
aVreadCoverage
p1222
aVrepository
p1223
aVpointer
p1224
aVstructureVariant
p1225
asVOperationOutcome
p1226
(lp1227
Vid
p1228
aVmeta
p1229
aVimplicitRules
p1230
aVlanguage
p1231
aVtext
p1232
aVcontained
p1233
aVextension
p1234
aVmodifierExtension
p1235
aVissue
p1236
asVMedication
p1237
(lp1238
Vid
p1239
aVmeta
p1240
aVimplicitRules
p1241
aVlanguage
p1242
aVtext
p1243
aVcontained
p1244
aVextension
p1245
aVmodifierExtension
p1246
aVcode
p1247
aVisBrand
p1248
aVmanufacturer
p1249
aVproduct
p1250
aVpackage
p1251
asVPractitionerRole
p1252
(lp1253
Vid
p1254
aVmeta
p1255
aVimplicitRules
p1256
aVlanguage
p1257
aVtext
p1258
aVcontained
p1259
aVextension
p1260
aVmodifierExtension
p1261
aVidentifier
p1262
aVactive
p1263
aVpractitioner
p1264
aVorganization
p1265
aVcode
p1266
aVspecialty
p1267
aVlocation
p1268
aVhealthcareService
p1269
aVtelecom
p1270
aVperiod
p1271
aVavailableTime
p1272
aVnotAvailable
p1273
aVavailabilityExceptions
p1274
aVendpoint
p1275
asVCommunication
p1276
(lp1277
Vid
p1278
aVmeta
p1279
aVimplicitRules
p1280
aVlanguage
p1281
aVtext
p1282
aVcontained
p1283
aVextension
p1284
aVmodifierExtension
p1285
aVidentifier
p1286
aVbasedOn
p1287
aVparent
p1288
aVstatus
p1289
aVcategory
p1290
aVmedium
p1291
aVsubject
p1292
aVtopic
p1293
aVcontext
p1294
aVsent
p1295
aVreceived
p1296
aVsender
p1297
aVrecipient
p1298
aVreason
p1299
aVpayload
p1300
aVnote
p1301
asVImagingManifest
p1302
(lp1303
Vid
p1304
aVmeta
p1305
aVimplicitRules
p1306
aVlanguage
p1307
aVtext
p1308
aVcontained
p1309
aVextension
p1310
aVmodifierExtension
p1311
aVuid
p1312
aVpatient
p1313
aVauthoringTime
p1314
aVauthor
p1315
aVtitle
p1316
aVdescription
p1317
aVstudy
p1318
asVCapabilityStatement
p1319
(lp1320
Vid
p1321
aVmeta
p1322
aVimplicitRules
p1323
aVlanguage
p1324
aVtext
p1325
aVcontained
p1326
aVextension
p1327
aVmodifierExtension
p1328
aVurl
p1329
aVversion
p1330
aVname
p1331
aVtitle
p1332
aVstatus
p1333
aVexperimental
p1334
aVdate
p1335
aVpublisher
p1336
aVcontact
p1337
aVdescription
p1338
aVuseContext
p1339
aVjurisdiction
p1340
aVpurpose
p1341
aVcopyright
p1342
aVkind
p1343
aVinstantiates
p1344
aVsoftware
p1345
aVimplementation
p1346
aVfhirVersion
p1347
aVacceptUnknown
p1348
aVformat
p1349
aVpatchFormat
p1350
aVimplementationGuide
p1351
aVprofile
p1352
aVrest
p1353
aVmessaging
p1354
aVdocument
p1355
asVProcessRequest
p1356
(lp1357
Vid
p1358
aVmeta
p1359
aVimplicitRules
p1360
aVlanguage
p1361
aVtext
p1362
aVcontained
p1363
aVextension
p1364
aVmodifierExtension
p1365
aVidentifier
p1366
aVstatus
p1367
aVaction
p1368
aVtarget
p1369
aVcreated
p1370
aVprovider
p1371
aVorganization
p1372
aVrequest
p1373
aVresponse
p1374
aVnullify
p1375
aVreference
p1376
aVitem
p1377
aVinclude
p1378
aVexclude
p1379
aVperiod
p1380
asVFamilyMemberHistory
p1381
(lp1382
Vid
p1383
aVmeta
p1384
aVimplicitRules
p1385
aVlanguage
p1386
aVtext
p1387
aVcontained
p1388
aVextension
p1389
aVmodifierExtension
p1390
aVidentifier
p1391
aVpatient
p1392
aVdate
p1393
aVstatus
p1394
aVname
p1395
aVrelationship
p1396
aVgender
p1397
aVbornPeriod
p1398
aVbornDate
p1399
aVbornString
p1400
aVageAge
p1401
aVageRange
p1402
aVageString
p1403
aVestimatedAge
p1404
aVdeceasedBoolean
p1405
aVdeceasedAge
p1406
aVdeceasedRange
p1407
aVdeceasedDate
p1408
aVdeceasedString
p1409
aVnote
p1410
aVcondition
p1411
asVBinary
p1412
(lp1413
Vid
p1414
aVmeta
p1415
aVimplicitRules
p1416
aVlanguage
p1417
aVcontentType
p1418
aVsecurityContext
p1419
aVcontent
p1420
asVGroup
p1421
(lp1422
Vid
p1423
aVmeta
p1424
aVimplicitRules
p1425
aVlanguage
p1426
aVtext
p1427
aVcontained
p1428
aVextension
p1429
aVmodifierExtension
p1430
aVidentifier
p1431
aVtype
p1432
aVactual
p1433
aVactive
p1434
aVcode
p1435
aVname
p1436
aVquantity
p1437
aVcharacteristic
p1438
aVmember
p1439
asVRiskAssessment
p1440
(lp1441
Vid
p1442
aVmeta
p1443
aVimplicitRules
p1444
aVlanguage
p1445
aVtext
p1446
aVcontained
p1447
aVextension
p1448
aVmodifierExtension
p1449
aVidentifier
p1450
aVbasedOn
p1451
aVparent
p1452
aVstatus
p1453
aVcode
p1454
aVsubject
p1455
aVcontext
p1456
aVoccurrenceDateTime
p1457
aVoccurrencePeriod
p1458
aVcondition
p1459
aVperformer
p1460
aVreasonCodeableConcept
p1461
aVreasonReference
p1462
aVmethod
p1463
aVbasis
p1464
aVprediction
p1465
aVmitigation
p1466
aVnote
p1467
asVImagingStudy
p1468
(lp1469
Vid
p1470
aVmeta
p1471
aVimplicitRules
p1472
aVlanguage
p1473
aVtext
p1474
aVcontained
p1475
aVextension
p1476
aVmodifierExtension
p1477
aVuid
p1478
aVaccession
p1479
aVidentifier
p1480
aVavailability
p1481
aVmodalityList
p1482
aVpatient
p1483
aVcontext
p1484
aVstarted
p1485
aVbasedOn
p1486
aVreferrer
p1487
aVinterpreter
p1488
aVbaseLocation
p1489
aVnumberOfSeries
p1490
aVnumberOfInstances
p1491
aVprocedure
p1492
aVreason
p1493
aVdescription
p1494
aVseries
p1495
asVGuidanceResponse
p1496
(lp1497
Vid
p1498
aVmeta
p1499
aVimplicitRules
p1500
aVlanguage
p1501
aVtext
p1502
aVcontained
p1503
aVextension
p1504
aVmodifierExtension
p1505
aVrequestId
p1506
aVidentifier
p1507
aVmodule
p1508
aVstatus
p1509
aVsubject
p1510
aVcontext
p1511
aVoccurrenceDateTime
p1512
aVperformer
p1513
aVreasonCodeableConcept
p1514
aVreasonReference
p1515
aVnote
p1516
aVevaluationMessage
p1517
aVoutputParameters
p1518
aVresult
p1519
aVdataRequirement
p1520
asVBasic
p1521
(lp1522
Vid
p1523
aVmeta
p1524
aVimplicitRules
p1525
aVlanguage
p1526
aVtext
p1527
aVcontained
p1528
aVextension
p1529
aVmodifierExtension
p1530
aVidentifier
p1531
aVcode
p1532
aVsubject
p1533
aVcreated
p1534
aVauthor
p1535
asVAppointment
p1536
(lp1537
Vid
p1538
aVmeta
p1539
aVimplicitRules
p1540
aVlanguage
p1541
aVtext
p1542
aVcontained
p1543
aVextension
p1544
aVmodifierExtension
p1545
aVidentifier
p1546
aVstatus
p1547
aVserviceCategory
p1548
aVserviceType
p1549
aVspecialty
p1550
aVappointmentType
p1551
aVreason
p1552
aVpriority
p1553
aVdescription
p1554
aVstart
p1555
aVend
p1556
aVminutesDuration
p1557
aVslot
p1558
aVcreated
p1559
aVcomment
p1560
aVparticipant
p1561
aVrequestedPeriod
p1562
asVValueSet
p1563
(lp1564
Vid
p1565
aVmeta
p1566
aVimplicitRules
p1567
aVlanguage
p1568
aVtext
p1569
aVcontained
p1570
aVextension
p1571
aVmodifierExtension
p1572
aVurl
p1573
aVidentifier
p1574
aVversion
p1575
aVname
p1576
aVtitle
p1577
aVstatus
p1578
aVexperimental
p1579
aVpublisher
p1580
aVcontact
p1581
aVdate
p1582
aVdescription
p1583
aVuseContext
p1584
aVjurisdiction
p1585
aVimmutable
p1586
aVpurpose
p1587
aVcopyright
p1588
aVextensible
p1589
aVcompose
p1590
aVexpansion
p1591
asVProcedureRequest
p1592
(lp1593
Vid
p1594
aVmeta
p1595
aVimplicitRules
p1596
aVlanguage
p1597
aVtext
p1598
aVcontained
p1599
aVextension
p1600
aVmodifierExtension
p1601
aVidentifier
p1602
aVsubject
p1603
aVcode
p1604
aVbodySite
p1605
aVreasonCodeableConcept
p1606
aVreasonReference
p1607
aVscheduledDateTime
p1608
aVscheduledPeriod
p1609
aVscheduledTiming
p1610
aVencounter
p1611
aVperformer
p1612
aVstatus
p1613
aVsupportingInfo
p1614
aVnotes
p1615
aVasNeededBoolean
p1616
aVasNeededCodeableConcept
p1617
aVorderedOn
p1618
aVorderer
p1619
aVpriority
p1620
asVBundle
p1621
(lp1622
Vid
p1623
aVmeta
p1624
aVimplicitRules
p1625
aVlanguage
p1626
aVtype
p1627
aVidentifier
p1628
aVtotal
p1629
aVlink
p1630
aVentry
p1631
aVsignature
p1632
asVCoverage
p1633
(lp1634
Vid
p1635
aVmeta
p1636
aVimplicitRules
p1637
aVlanguage
p1638
aVtext
p1639
aVcontained
p1640
aVextension
p1641
aVmodifierExtension
p1642
aVidentifier
p1643
aVstatus
p1644
aVtype
p1645
aVpolicyHolder
p1646
aVsubscriber
p1647
aVsubscriberId
p1648
aVbeneficiary
p1649
aVrelationship
p1650
aVperiod
p1651
aVpayor
p1652
aVgroup
p1653
aVdependent
p1654
aVsequence
p1655
aVorder
p1656
aVnetwork
p1657
aVcontract
p1658
asVDevice
p1659
(lp1660
Vid
p1661
aVmeta
p1662
aVimplicitRules
p1663
aVlanguage
p1664
aVtext
p1665
aVcontained
p1666
aVextension
p1667
aVmodifierExtension
p1668
aVidentifier
p1669
aVudiCarrier
p1670
aVstatus
p1671
aVtype
p1672
aVlotNumber
p1673
aVmanufacturer
p1674
aVmanufactureDate
p1675
aVexpirationDate
p1676
aVmodel
p1677
aVversion
p1678
aVpatient
p1679
aVowner
p1680
aVcontact
p1681
aVlocation
p1682
aVurl
p1683
aVnote
p1684
asVCondition
p1685
(lp1686
Vid
p1687
aVmeta
p1688
aVimplicitRules
p1689
aVlanguage
p1690
aVtext
p1691
aVcontained
p1692
aVextension
p1693
aVmodifierExtension
p1694
aVidentifier
p1695
aVclinicalStatus
p1696
aVverificationStatus
p1697
aVcategory
p1698
aVseverity
p1699
aVcode
p1700
aVbodySite
p1701
aVsubject
p1702
aVcontext
p1703
aVonsetDateTime
p1704
aVonsetAge
p1705
aVonsetPeriod
p1706
aVonsetRange
p1707
aVonsetString
p1708
aVabatementDateTime
p1709
aVabatementAge
p1710
aVabatementBoolean
p1711
aVabatementPeriod
p1712
aVabatementRange
p1713
aVabatementString
p1714
aVassertedDate
p1715
aVasserter
p1716
aVstage
p1717
aVevidence
p1718
aVnote
p1719
asVEligibilityRequest
p1720
(lp1721
Vid
p1722
aVmeta
p1723
aVimplicitRules
p1724
aVlanguage
p1725
aVtext
p1726
aVcontained
p1727
aVextension
p1728
aVmodifierExtension
p1729
aVidentifier
p1730
aVstatus
p1731
aVpriority
p1732
aVpatient
p1733
aVservicedDate
p1734
aVservicedPeriod
p1735
aVcreated
p1736
aVenterer
p1737
aVprovider
p1738
aVorganization
p1739
aVinsurer
p1740
aVfacility
p1741
aVcoverage
p1742
aVbusinessArrangement
p1743
aVbenefitCategory
p1744
aVbenefitSubCategory
p1745
asVDeviceUseStatement
p1746
(lp1747
Vid
p1748
aVmeta
p1749
aVimplicitRules
p1750
aVlanguage
p1751
aVtext
p1752
aVcontained
p1753
aVextension
p1754
aVmodifierExtension
p1755
aVbodySite
p1756
aVwhenUsed
p1757
aVdevice
p1758
aVidentifier
p1759
aVindication
p1760
aVnotes
p1761
aVrecordedOn
p1762
aVsubject
p1763
aVtimingTiming
p1764
aVtimingPeriod
p1765
aVtimingDateTime
p1766
asVDetectedIssue
p1767
(lp1768
Vid
p1769
aVmeta
p1770
aVimplicitRules
p1771
aVlanguage
p1772
aVtext
p1773
aVcontained
p1774
aVextension
p1775
aVmodifierExtension
p1776
aVpatient
p1777
aVcategory
p1778
aVseverity
p1779
aVimplicated
p1780
aVdetail
p1781
aVdate
p1782
aVauthor
p1783
aVidentifier
p1784
aVreference
p1785
aVmitigation
p1786
asVContract
p1787
(lp1788
Vid
p1789
aVmeta
p1790
aVimplicitRules
p1791
aVlanguage
p1792
aVtext
p1793
aVcontained
p1794
aVextension
p1795
aVmodifierExtension
p1796
aVidentifier
p1797
aVstatus
p1798
aVissued
p1799
aVapplies
p1800
aVsubject
p1801
aVtopic
p1802
aVauthority
p1803
aVdomain
p1804
aVtype
p1805
aVsubType
p1806
aVaction
p1807
aVactionReason
p1808
aVagent
p1809
aVsigner
p1810
aVvaluedItem
p1811
aVterm
p1812
aVbindingAttachment
p1813
aVbindingReference
p1814
aVbindingReference
p1815
aVbindingReference
p1816
aVfriendly
p1817
aVlegal
p1818
aVrule
p1819
asVPerson
p1820
(lp1821
Vid
p1822
aVmeta
p1823
aVimplicitRules
p1824
aVlanguage
p1825
aVtext
p1826
aVcontained
p1827
aVextension
p1828
aVmodifierExtension
p1829
aVidentifier
p1830
aVname
p1831
aVtelecom
p1832
aVgender
p1833
aVbirthDate
p1834
aVaddress
p1835
aVphoto
p1836
aVmanagingOrganization
p1837
aVactive
p1838
aVlink
p1839
asVReferralRequest
p1840
(lp1841
Vid
p1842
aVmeta
p1843
aVimplicitRules
p1844
aVlanguage
p1845
aVtext
p1846
aVcontained
p1847
aVextension
p1848
aVmodifierExtension
p1849
aVidentifier
p1850
aVbasedOn
p1851
aVparent
p1852
aVstatus
p1853
aVcategory
p1854
aVtype
p1855
aVpriority
p1856
aVpatient
p1857
aVcontext
p1858
aVfulfillmentTime
p1859
aVauthored
p1860
aVrequester
p1861
aVspecialty
p1862
aVrecipient
p1863
aVreason
p1864
aVdescription
p1865
aVserviceRequested
p1866
aVsupportingInformation
p1867
asVDeviceComponent
p1868
(lp1869
Vid
p1870
aVmeta
p1871
aVimplicitRules
p1872
aVlanguage
p1873
aVtext
p1874
aVcontained
p1875
aVextension
p1876
aVmodifierExtension
p1877
aVtype
p1878
aVidentifier
p1879
aVlastSystemChange
p1880
aVsource
p1881
aVparent
p1882
aVoperationalStatus
p1883
aVparameterGroup
p1884
aVmeasurementPrinciple
p1885
aVproductionSpecification
p1886
aVlanguageCode
p1887
asVProcedure
p1888
(lp1889
Vid
p1890
aVmeta
p1891
aVimplicitRules
p1892
aVlanguage
p1893
aVtext
p1894
aVcontained
p1895
aVextension
p1896
aVmodifierExtension
p1897
aVidentifier
p1898
aVstatus
p1899
aVcategory
p1900
aVcode
p1901
aVsubject
p1902
aVencounter
p1903
aVperformedDateTime
p1904
aVperformedPeriod
p1905
aVperformer
p1906
aVlocation
p1907
aVreasonReference
p1908
aVreasonCode
p1909
aVnotPerformed
p1910
aVreasonNotPerformed
p1911
aVbodySite
p1912
aVoutcome
p1913
aVreport
p1914
aVcomplication
p1915
aVfollowUp
p1916
aVrequest
p1917
aVnotes
p1918
aVfocalDevice
p1919
aVusedReference
p1920
aVusedCode
p1921
aVcomponent
p1922
asVClaim
p1923
(lp1924
Vid
p1925
aVmeta
p1926
aVimplicitRules
p1927
aVlanguage
p1928
aVtext
p1929
aVcontained
p1930
aVextension
p1931
aVmodifierExtension
p1932
aVidentifier
p1933
aVstatus
p1934
aVtype
p1935
aVsubType
p1936
aVuse
p1937
aVpatient
p1938
aVbillablePeriod
p1939
aVcreated
p1940
aVenterer
p1941
aVinsurer
p1942
aVprovider
p1943
aVorganization
p1944
aVpriority
p1945
aVfundsReserve
p1946
aVrelated
p1947
aVprescription
p1948
aVoriginalPrescription
p1949
aVpayee
p1950
aVreferral
p1951
aVfacility
p1952
aVcareTeam
p1953
aVinformation
p1954
aVdiagnosis
p1955
aVprocedure
p1956
aVinsurance
p1957
aVaccident
p1958
aVemploymentImpacted
p1959
aVhospitalization
p1960
aVitem
p1961
aVtotal
p1962
asVOperationDefinition
p1963
(lp1964
Vid
p1965
aVmeta
p1966
aVimplicitRules
p1967
aVlanguage
p1968
aVtext
p1969
aVcontained
p1970
aVextension
p1971
aVmodifierExtension
p1972
aVurl
p1973
aVversion
p1974
aVname
p1975
aVstatus
p1976
aVkind
p1977
aVexperimental
p1978
aVdate
p1979
aVpublisher
p1980
aVcontact
p1981
aVdescription
p1982
aVuseContext
p1983
aVjurisdiction
p1984
aVpurpose
p1985
aVidempotent
p1986
aVcode
p1987
aVcomment
p1988
aVbase
p1989
aVresource
p1990
aVsystem
p1991
aVtype
p1992
aVinstance
p1993
aVparameter
p1994
aVoverload
p1995
asVDiagnosticReport
p1996
(lp1997
Vid
p1998
aVmeta
p1999
aVimplicitRules
p2000
aVlanguage
p2001
aVtext
p2002
aVcontained
p2003
aVextension
p2004
aVmodifierExtension
p2005
aVidentifier
p2006
aVstatus
p2007
aVcategory
p2008
aVcode
p2009
aVsubject
p2010
aVencounter
p2011
aVeffectiveDateTime
p2012
aVeffectivePeriod
p2013
aVissued
p2014
aVperformer
p2015
aVrequest
p2016
aVspecimen
p2017
aVresult
p2018
aVimagingStudy
p2019
aVimage
p2020
aVconclusion
p2021
aVcodedDiagnosis
p2022
aVpresentedForm
p2023
asVLibrary
p2024
(lp2025
Vid
p2026
aVmeta
p2027
aVimplicitRules
p2028
aVlanguage
p2029
aVtext
p2030
aVcontained
p2031
aVextension
p2032
aVmodifierExtension
p2033
aVurl
p2034
aVidentifier
p2035
aVversion
p2036
aVname
p2037
aVtitle
p2038
aVtype
p2039
aVstatus
p2040
aVexperimental
p2041
aVdate
p2042
aVdescription
p2043
aVpurpose
p2044
aVusage
p2045
aVapprovalDate
p2046
aVlastReviewDate
p2047
aVeffectivePeriod
p2048
aVuseContext
p2049
aVjurisdiction
p2050
aVtopic
p2051
aVcontributor
p2052
aVpublisher
p2053
aVcontact
p2054
aVcopyright
p2055
aVrelatedArtifact
p2056
aVparameter
p2057
aVdataRequirement
p2058
aVcontent
p2059
asVStructureDefinition
p2060
(lp2061
Vid
p2062
aVmeta
p2063
aVimplicitRules
p2064
aVlanguage
p2065
aVtext
p2066
aVcontained
p2067
aVextension
p2068
aVmodifierExtension
p2069
aVurl
p2070
aVidentifier
p2071
aVversion
p2072
aVname
p2073
aVtitle
p2074
aVstatus
p2075
aVexperimental
p2076
aVpublisher
p2077
aVcontact
p2078
aVdate
p2079
aVdescription
p2080
aVuseContext
p2081
aVjurisdiction
p2082
aVpurpose
p2083
aVcopyright
p2084
aVkeyword
p2085
aVfhirVersion
p2086
aVmapping
p2087
aVkind
p2088
aVabstract
p2089
aVcontextType
p2090
aVcontext
p2091
aVcontextInvariant
p2092
aVtype
p2093
aVbaseDefinition
p2094
aVderivation
p2095
aVsnapshot
p2096
aVdifferential
p2097
asVDeviceUseRequest
p2098
(lp2099
Vid
p2100
aVmeta
p2101
aVimplicitRules
p2102
aVlanguage
p2103
aVtext
p2104
aVcontained
p2105
aVextension
p2106
aVmodifierExtension
p2107
aVidentifier
p2108
aVdefinition
p2109
aVbasedOn
p2110
aVreplaces
p2111
aVrequisition
p2112
aVstatus
p2113
aVstage
p2114
aVdeviceReference
p2115
aVdeviceCodeableConcept
p2116
aVsubject
p2117
aVcontext
p2118
aVoccurrenceDateTime
p2119
aVoccurrencePeriod
p2120
aVoccurrenceTiming
p2121
aVauthored
p2122
aVrequester
p2123
aVperformerType
p2124
aVperformer
p2125
aVreasonCode
p2126
aVreasonReference
p2127
aVsupportingInfo
p2128
aVnote
p2129
aVrelevantHistory
p2130
asVMeasure
p2131
(lp2132
Vid
p2133
aVmeta
p2134
aVimplicitRules
p2135
aVlanguage
p2136
aVtext
p2137
aVcontained
p2138
aVextension
p2139
aVmodifierExtension
p2140
aVurl
p2141
aVidentifier
p2142
aVversion
p2143
aVname
p2144
aVtitle
p2145
aVstatus
p2146
aVexperimental
p2147
aVdate
p2148
aVdescription
p2149
aVpurpose
p2150
aVusage
p2151
aVapprovalDate
p2152
aVlastReviewDate
p2153
aVeffectivePeriod
p2154
aVuseContext
p2155
aVjurisdiction
p2156
aVtopic
p2157
aVcontributor
p2158
aVpublisher
p2159
aVcontact
p2160
aVcopyright
p2161
aVrelatedArtifact
p2162
aVlibrary
p2163
aVdisclaimer
p2164
aVscoring
p2165
aVcompositeScoring
p2166
aVtype
p2167
aVriskAdjustment
p2168
aVrateAggregation
p2169
aVrationale
p2170
aVclinicalRecommendationStatement
p2171
aVimprovementNotation
p2172
aVdefinition
p2173
aVguidance
p2174
aVset
p2175
aVgroup
p2176
aVsupplementalData
p2177
asVQuestionnaire
p2178
(lp2179
Vid
p2180
aVmeta
p2181
aVimplicitRules
p2182
aVlanguage
p2183
aVtext
p2184
aVcontained
p2185
aVextension
p2186
aVmodifierExtension
p2187
aVurl
p2188
aVidentifier
p2189
aVversion
p2190
aVstatus
p2191
aVdate
p2192
aVpublisher
p2193
aVtelecom
p2194
aVuseContext
p2195
aVtitle
p2196
aVconcept
p2197
aVsubjectType
p2198
aVitem
p2199
asVConceptMap
p2200
(lp2201
Vid
p2202
aVmeta
p2203
aVimplicitRules
p2204
aVlanguage
p2205
aVtext
p2206
aVcontained
p2207
aVextension
p2208
aVmodifierExtension
p2209
aVurl
p2210
aVidentifier
p2211
aVversion
p2212
aVname
p2213
aVtitle
p2214
aVstatus
p2215
aVexperimental
p2216
aVpublisher
p2217
aVcontact
p2218
aVdate
p2219
aVdescription
p2220
aVuseContext
p2221
aVjurisdiction
p2222
aVpurpose
p2223
aVcopyright
p2224
aVsourceUri
p2225
aVsourceReference
p2226
aVtargetUri
p2227
aVtargetReference
p2228
aVgroup
p2229
asVEligibilityResponse
p2230
(lp2231
Vid
p2232
aVmeta
p2233
aVimplicitRules
p2234
aVlanguage
p2235
aVtext
p2236
aVcontained
p2237
aVextension
p2238
aVmodifierExtension
p2239
aVidentifier
p2240
aVstatus
p2241
aVcreated
p2242
aVrequestProvider
p2243
aVrequestOrganization
p2244
aVrequest
p2245
aVoutcome
p2246
aVdisposition
p2247
aVinsurer
p2248
aVinforce
p2249
aVinsurance
p2250
aVform
p2251
aVerror
p2252
asVSlot
p2253
(lp2254
Vid
p2255
aVmeta
p2256
aVimplicitRules
p2257
aVlanguage
p2258
aVtext
p2259
aVcontained
p2260
aVextension
p2261
aVmodifierExtension
p2262
aVidentifier
p2263
aVserviceCategory
p2264
aVserviceType
p2265
aVspecialty
p2266
aVappointmentType
p2267
aVschedule
p2268
aVstatus
p2269
aVstart
p2270
aVend
p2271
aVoverbooked
p2272
aVcomment
p2273
asVCarePlan
p2274
(lp2275
Vid
p2276
aVmeta
p2277
aVimplicitRules
p2278
aVlanguage
p2279
aVtext
p2280
aVcontained
p2281
aVextension
p2282
aVmodifierExtension
p2283
aVidentifier
p2284
aVstatus
p2285
aVcategory
p2286
aVdescription
p2287
aVsubject
p2288
aVcontext
p2289
aVperiod
p2290
aVmodified
p2291
aVauthor
p2292
aVcareTeam
p2293
aVaddresses
p2294
aVsupport
p2295
aVdefinition
p2296
aVrelatedPlan
p2297
aVgoal
p2298
aVactivity
p2299
aVnote
p2300
asVMedia
p2301
(lp2302
Vid
p2303
aVmeta
p2304
aVimplicitRules
p2305
aVlanguage
p2306
aVtext
p2307
aVcontained
p2308
aVextension
p2309
aVmodifierExtension
p2310
aVidentifier
p2311
aVtype
p2312
aVsubtype
p2313
aVview
p2314
aVsubject
p2315
aVoperator
p2316
aVdeviceName
p2317
aVheight
p2318
aVwidth
p2319
aVframes
p2320
aVduration
p2321
aVcontent
p2322
asVEnrollmentResponse
p2323
(lp2324
Vid
p2325
aVmeta
p2326
aVimplicitRules
p2327
aVlanguage
p2328
aVtext
p2329
aVcontained
p2330
aVextension
p2331
aVmodifierExtension
p2332
aVidentifier
p2333
aVstatus
p2334
aVrequest
p2335
aVoutcome
p2336
aVdisposition
p2337
aVcreated
p2338
aVorganization
p2339
aVrequestProvider
p2340
aVrequestOrganization
p2341
asVHealthcareService
p2342
(lp2343
Vid
p2344
aVmeta
p2345
aVimplicitRules
p2346
aVlanguage
p2347
aVtext
p2348
aVcontained
p2349
aVextension
p2350
aVmodifierExtension
p2351
aVidentifier
p2352
aVactive
p2353
aVprovidedBy
p2354
aVserviceCategory
p2355
aVserviceType
p2356
aVspecialty
p2357
aVlocation
p2358
aVserviceName
p2359
aVcomment
p2360
aVextraDetails
p2361
aVphoto
p2362
aVtelecom
p2363
aVcoverageArea
p2364
aVserviceProvisionCode
p2365
aVeligibility
p2366
aVeligibilityNote
p2367
aVprogramName
p2368
aVcharacteristic
p2369
aVreferralMethod
p2370
aVpublicKey
p2371
aVappointmentRequired
p2372
aVavailableTime
p2373
aVnotAvailable
p2374
aVavailabilityExceptions
p2375
aVendpoint
p2376
asVVisionPrescription
p2377
(lp2378
Vid
p2379
aVmeta
p2380
aVimplicitRules
p2381
aVlanguage
p2382
aVtext
p2383
aVcontained
p2384
aVextension
p2385
aVmodifierExtension
p2386
aVidentifier
p2387
aVstatus
p2388
aVpatient
p2389
aVencounter
p2390
aVdateWritten
p2391
aVprescriber
p2392
aVreasonCodeableConcept
p2393
aVreasonReference
p2394
aVdispense
p2395
asVAllergyIntolerance
p2396
(lp2397
Vid
p2398
aVmeta
p2399
aVimplicitRules
p2400
aVlanguage
p2401
aVtext
p2402
aVcontained
p2403
aVextension
p2404
aVmodifierExtension
p2405
aVidentifier
p2406
aVclinicalStatus
p2407
aVverificationStatus
p2408
aVtype
p2409
aVcategory
p2410
aVcriticality
p2411
aVcode
p2412
aVpatient
p2413
aVonsetDateTime
p2414
aVonsetAge
p2415
aVonsetPeriod
p2416
aVonsetRange
p2417
aVonsetString
p2418
aVassertedDate
p2419
aVrecorder
p2420
aVasserter
p2421
aVlastOccurrence
p2422
aVnote
p2423
aVreaction
p2424
asVCompartmentDefinition
p2425
(lp2426
Vid
p2427
aVmeta
p2428
aVimplicitRules
p2429
aVlanguage
p2430
aVtext
p2431
aVcontained
p2432
aVextension
p2433
aVmodifierExtension
p2434
aVurl
p2435
aVname
p2436
aVtitle
p2437
aVstatus
p2438
aVexperimental
p2439
aVpublisher
p2440
aVcontact
p2441
aVdate
p2442
aVdescription
p2443
aVpurpose
p2444
aVuseContext
p2445
aVjurisdiction
p2446
aVcode
p2447
aVsearch
p2448
aVresource
p2449
asVEnrollmentRequest
p2450
(lp2451
Vid
p2452
aVmeta
p2453
aVimplicitRules
p2454
aVlanguage
p2455
aVtext
p2456
aVcontained
p2457
aVextension
p2458
aVmodifierExtension
p2459
aVidentifier
p2460
aVstatus
p2461
aVcreated
p2462
aVinsurer
p2463
aVprovider
p2464
aVorganization
p2465
aVsubject
p2466
aVcoverage
p2467
asVComposition
p2468
(lp2469
Vid
p2470
aVmeta
p2471
aVimplicitRules
p2472
aVlanguage
p2473
aVtext
p2474
aVcontained
p2475
aVextension
p2476
aVmodifierExtension
p2477
aVidentifier
p2478
aVdate
p2479
aVtype
p2480
aVclass
p2481
aVtitle
p2482
aVstatus
p2483
aVconfidentiality
p2484
aVsubject
p2485
aVauthor
p2486
aVattester
p2487
aVcustodian
p2488
aVevent
p2489
aVencounter
p2490
aVsection
p2491
asVRelatedPerson
p2492
(lp2493
Vid
p2494
aVmeta
p2495
aVimplicitRules
p2496
aVlanguage
p2497
aVtext
p2498
aVcontained
p2499
aVextension
p2500
aVmodifierExtension
p2501
aVidentifier
p2502
aVactive
p2503
aVpatient
p2504
aVrelationship
p2505
aVname
p2506
aVtelecom
p2507
aVgender
p2508
aVbirthDate
p2509
aVaddress
p2510
aVphoto
p2511
aVperiod
p2512
asVSpecimen
p2513
(lp2514
Vid
p2515
aVmeta
p2516
aVimplicitRules
p2517
aVlanguage
p2518
aVtext
p2519
aVcontained
p2520
aVextension
p2521
aVmodifierExtension
p2522
aVidentifier
p2523
aVaccessionIdentifier
p2524
aVstatus
p2525
aVtype
p2526
aVsubject
p2527
aVreceivedTime
p2528
aVparent
p2529
aVrequest
p2530
aVcollection
p2531
aVtreatment
p2532
aVcontainer
p2533
aVnote
p2534
asVConsent
p2535
(lp2536
Vid
p2537
aVmeta
p2538
aVimplicitRules
p2539
aVlanguage
p2540
aVtext
p2541
aVcontained
p2542
aVextension
p2543
aVmodifierExtension
p2544
aVidentifier
p2545
aVstatus
p2546
aVcategory
p2547
aVdateTime
p2548
aVperiod
p2549
aVpatient
p2550
aVconsentor
p2551
aVorganization
p2552
aVsourceAttachment
p2553
aVsourceIdentifier
p2554
aVsourceReference
p2555
aVsourceReference
p2556
aVsourceReference
p2557
aVsourceReference
p2558
aVpolicy
p2559
aVrecipient
p2560
aVpurpose
p2561
aVexcept
p2562
asVSearchParameter
p2563
(lp2564
Vid
p2565
aVmeta
p2566
aVimplicitRules
p2567
aVlanguage
p2568
aVtext
p2569
aVcontained
p2570
aVextension
p2571
aVmodifierExtension
p2572
aVurl
p2573
aVversion
p2574
aVname
p2575
aVstatus
p2576
aVexperimental
p2577
aVdate
p2578
aVpublisher
p2579
aVcontact
p2580
aVuseContext
p2581
aVjurisdiction
p2582
aVpurpose
p2583
aVcode
p2584
aVbase
p2585
aVtype
p2586
aVderivedFrom
p2587
aVdescription
p2588
aVexpression
p2589
aVxpath
p2590
aVxpathUsage
p2591
aVtarget
p2592
aVcomparator
p2593
aVmodifier
p2594
aVchain
p2595
aVcomponent
p2596
asVAppointmentResponse
p2597
(lp2598
Vid
p2599
aVmeta
p2600
aVimplicitRules
p2601
aVlanguage
p2602
aVtext
p2603
aVcontained
p2604
aVextension
p2605
aVmodifierExtension
p2606
aVidentifier
p2607
aVappointment
p2608
aVstart
p2609
aVend
p2610
aVparticipantType
p2611
aVactor
p2612
aVparticipantStatus
p2613
aVcomment
p2614
asVClaimResponse
p2615
(lp2616
Vid
p2617
aVmeta
p2618
aVimplicitRules
p2619
aVlanguage
p2620
aVtext
p2621
aVcontained
p2622
aVextension
p2623
aVmodifierExtension
p2624
aVidentifier
p2625
aVstatus
p2626
aVcreated
p2627
aVinsurer
p2628
aVrequestProvider
p2629
aVrequestOrganization
p2630
aVrequest
p2631
aVoutcome
p2632
aVdisposition
p2633
aVpayeeType
p2634
aVitem
p2635
aVaddItem
p2636
aVerror
p2637
aVtotalCost
p2638
aVunallocDeductable
p2639
aVtotalBenefit
p2640
aVpayment
p2641
aVreserved
p2642
aVform
p2643
aVnote
p2644
aVcommunicationRequest
p2645
aVinsurance
p2646
asVResearchStudy
p2647
(lp2648
Vid
p2649
aVmeta
p2650
aVimplicitRules
p2651
aVlanguage
p2652
aVtext
p2653
aVcontained
p2654
aVextension
p2655
aVmodifierExtension
p2656
aVidentifier
p2657
aVtitle
p2658
aVprotocol
p2659
aVpartOf
p2660
aVstatus
p2661
aVcategory
p2662
aVfocus
p2663
aVcontact
p2664
aVrelatedArtifact
p2665
aVkeyword
p2666
aVjurisdiction
p2667
aVdescription
p2668
aVenrollment
p2669
aVperiod
p2670
aVsponsor
p2671
aVprincipalInvestigator
p2672
aVsite
p2673
aVreasonStopped
p2674
aVnote
p2675
aVarm
p2676
asVEpisodeOfCare
p2677
(lp2678
Vid
p2679
aVmeta
p2680
aVimplicitRules
p2681
aVlanguage
p2682
aVtext
p2683
aVcontained
p2684
aVextension
p2685
aVmodifierExtension
p2686
aVidentifier
p2687
aVstatus
p2688
aVstatusHistory
p2689
aVtype
p2690
aVcondition
p2691
aVpatient
p2692
aVmanagingOrganization
p2693
aVperiod
p2694
aVreferralRequest
p2695
aVcareManager
p2696
aVteam
p2697
aVaccount
p2698
asVEndpoint
p2699
(lp2700
Vid
p2701
aVmeta
p2702
aVimplicitRules
p2703
aVlanguage
p2704
aVtext
p2705
aVcontained
p2706
aVextension
p2707
aVmodifierExtension
p2708
aVidentifier
p2709
aVstatus
p2710
aVname
p2711
aVmanagingOrganization
p2712
aVcontact
p2713
aVperiod
p2714
aVconnectionType
p2715
aVpayloadType
p2716
aVpayloadMimeType
p2717
aVaddress
p2718
aVheader
p2719
aVpublicKey
p2720
asVResource
p2721
(lp2722
Vid
p2723
aVmeta
p2724
aVimplicitRules
p2725
aVlanguage
p2726
asVDeviceMetric
p2727
(lp2728
Vid
p2729
aVmeta
p2730
aVimplicitRules
p2731
aVlanguage
p2732
aVtext
p2733
aVcontained
p2734
aVextension
p2735
aVmodifierExtension
p2736
aVtype
p2737
aVidentifier
p2738
aVunit
p2739
aVsource
p2740
aVparent
p2741
aVoperationalStatus
p2742
aVcolor
p2743
aVcategory
p2744
aVmeasurementPeriod
p2745
aVcalibration
p2746
asVList
p2747
(lp2748
Vid
p2749
aVmeta
p2750
aVimplicitRules
p2751
aVlanguage
p2752
aVtext
p2753
aVcontained
p2754
aVextension
p2755
aVmodifierExtension
p2756
aVidentifier
p2757
aVstatus
p2758
aVmode
p2759
aVtitle
p2760
aVcode
p2761
aVsubject
p2762
aVencounter
p2763
aVdate
p2764
aVsource
p2765
aVorderedBy
p2766
aVnote
p2767
aVentry
p2768
aVemptyReason
p2769
asVNutritionRequest
p2770
(lp2771
Vid
p2772
aVmeta
p2773
aVimplicitRules
p2774
aVlanguage
p2775
aVtext
p2776
aVcontained
p2777
aVextension
p2778
aVmodifierExtension
p2779
aVidentifier
p2780
aVstatus
p2781
aVpatient
p2782
aVencounter
p2783
aVdateTime
p2784
aVorderer
p2785
aVallergyIntolerance
p2786
aVfoodPreferenceModifier
p2787
aVexcludeFoodModifier
p2788
aVoralDiet
p2789
aVsupplement
p2790
aVenteralFormula
p2791
asVAuditEvent
p2792
(lp2793
Vid
p2794
aVmeta
p2795
aVimplicitRules
p2796
aVlanguage
p2797
aVtext
p2798
aVcontained
p2799
aVextension
p2800
aVmodifierExtension
p2801
aVtype
p2802
aVsubtype
p2803
aVaction
p2804
aVrecorded
p2805
aVoutcome
p2806
aVoutcomeDesc
p2807
aVpurposeOfEvent
p2808
aVagent
p2809
aVsource
p2810
aVentity
p2811
asVMessageDefinition
p2812
(lp2813
Vid
p2814
aVmeta
p2815
aVimplicitRules
p2816
aVlanguage
p2817
aVtext
p2818
aVcontained
p2819
aVextension
p2820
aVmodifierExtension
p2821
aVurl
p2822
aVversion
p2823
aVname
p2824
aVtitle
p2825
aVstatus
p2826
aVexperimental
p2827
aVdate
p2828
aVpublisher
p2829
aVcontact
p2830
aVdescription
p2831
aVuseContext
p2832
aVjurisdiction
p2833
aVpurpose
p2834
aVcopyright
p2835
aVbase
p2836
aVparent
p2837
aVreplaces
p2838
aVevent
p2839
aVcategory
p2840
aVfocus
p2841
aVresponseRequired
p2842
aVallowedResponse
p2843
asVDocumentReference
p2844
(lp2845
Vid
p2846
aVmeta
p2847
aVimplicitRules
p2848
aVlanguage
p2849
aVtext
p2850
aVcontained
p2851
aVextension
p2852
aVmodifierExtension
p2853
aVmasterIdentifier
p2854
aVidentifier
p2855
aVsubject
p2856
aVtype
p2857
aVclass
p2858
aVauthor
p2859
aVcustodian
p2860
aVauthenticator
p2861
aVcreated
p2862
aVindexed
p2863
aVstatus
p2864
aVdocStatus
p2865
aVrelatesTo
p2866
aVdescription
p2867
aVsecurityLabel
p2868
aVcontent
p2869
aVcontext
p2870
asVDiagnosticRequest
p2871
(lp2872
Vid
p2873
aVmeta
p2874
aVimplicitRules
p2875
aVlanguage
p2876
aVtext
p2877
aVcontained
p2878
aVextension
p2879
aVmodifierExtension
p2880
aVidentifier
p2881
aVdefinition
p2882
aVbasedOn
p2883
aVreplaces
p2884
aVrequisition
p2885
aVstatus
p2886
aVintent
p2887
aVpriority
p2888
aVcode
p2889
aVsubject
p2890
aVcontext
p2891
aVoccurrenceDateTime
p2892
aVoccurrencePeriod
p2893
aVoccurrenceTiming
p2894
aVauthoredOn
p2895
aVrequester
p2896
aVperformerType
p2897
aVperformer
p2898
aVreasonCode
p2899
aVreasonReference
p2900
aVsupportingInformation
p2901
aVnote
p2902
aVrelevantHistory
p2903
asVDataElement
p2904
(lp2905
Vid
p2906
aVmeta
p2907
aVimplicitRules
p2908
aVlanguage
p2909
aVtext
p2910
aVcontained
p2911
aVextension
p2912
aVmodifierExtension
p2913
aVurl
p2914
aVidentifier
p2915
aVversion
p2916
aVstatus
p2917
aVexperimental
p2918
aVpublisher
p2919
aVdate
p2920
aVname
p2921
aVtitle
p2922
aVcontact
p2923
aVuseContext
p2924
aVjurisdiction
p2925
aVcopyright
p2926
aVstringency
p2927
aVmapping
p2928
aVelement
p2929
asVDomainResource
p2930
(lp2931
Vid
p2932
aVmeta
p2933
aVimplicitRules
p2934
aVlanguage
p2935
aVtext
p2936
aVcontained
p2937
aVextension
p2938
aVmodifierExtension
p2939
asVSupplyDelivery
p2940
(lp2941
Vid
p2942
aVmeta
p2943
aVimplicitRules
p2944
aVlanguage
p2945
aVtext
p2946
aVcontained
p2947
aVextension
p2948
aVmodifierExtension
p2949
aVidentifier
p2950
aVstatus
p2951
aVpatient
p2952
aVtype
p2953
aVquantity
p2954
aVsuppliedItemCodeableConcept
p2955
aVsuppliedItemReference
p2956
aVsuppliedItemReference
p2957
aVsuppliedItemReference
p2958
aVsupplier
p2959
aVwhenPrepared
p2960
aVtime
p2961
aVdestination
p2962
aVreceiver
p2963
asVTestReport
p2964
(lp2965
Vid
p2966
aVmeta
p2967
aVimplicitRules
p2968
aVlanguage
p2969
aVtext
p2970
aVcontained
p2971
aVextension
p2972
aVmodifierExtension
p2973
aVidentifier
p2974
aVname
p2975
aVstatus
p2976
aVscore
p2977
aVtester
p2978
aVtestScript
p2979
aVissued
p2980
aVparticipant
p2981
aVsetup
p2982
aVtest
p2983
aVteardown
p2984
as.