ccollections
defaultdict
p0
(c__builtin__
list
p1
tp2
Rp3
VNamingSystem
p4
(lp5
Vid
p6
aVmeta
p7
aVimplicitRules
p8
aVlanguage
p9
aVtext
p10
aVcontained
p11
aVextension
p12
aVmodifierExtension
p13
aVname
p14
aVstatus
p15
aVkind
p16
aVpublisher
p17
aVcontact
p18
aVresponsible
p19
aVdate
p20
aVtype
p21
aVdescription
p22
aVuseContext
p23
aVusage
p24
aVuniqueId
p25
aVreplacedBy
p26
asVGoal
p27
(lp28
Vid
p29
aVmeta
p30
aVimplicitRules
p31
aVlanguage
p32
aVtext
p33
aVcontained
p34
aVextension
p35
aVmodifierExtension
p36
aVidentifier
p37
aVsubject
p38
aVstartDate
p39
aVstartCodeableConcept
p40
aVtargetDate
p41
aVtargetQuantity
p42
aVcategory
p43
aVdescription
p44
aVstatus
p45
aVstatusDate
p46
aVstatusReason
p47
aVauthor
p48
aVpriority
p49
aVaddresses
p50
aVnote
p51
aVoutcome
p52
asVImmunizationRecommendation
p53
(lp54
Vid
p55
aVmeta
p56
aVimplicitRules
p57
aVlanguage
p58
aVtext
p59
aVcontained
p60
aVextension
p61
aVmodifierExtension
p62
aVidentifier
p63
aVpatient
p64
aVrecommendation
p65
asVMessageHeader
p66
(lp67
Vid
p68
aVmeta
p69
aVimplicitRules
p70
aVlanguage
p71
aVtext
p72
aVcontained
p73
aVextension
p74
aVmodifierExtension
p75
aVtimestamp
p76
aVevent
p77
aVresponse
p78
aVsource
p79
aVdestination
p80
aVenterer
p81
aVauthor
p82
aVreceiver
p83
aVresponsible
p84
aVreason
p85
aVdata
p86
asVPractitioner
p87
(lp88
Vid
p89
aVmeta
p90
aVimplicitRules
p91
aVlanguage
p92
aVtext
p93
aVcontained
p94
aVextension
p95
aVmodifierExtension
p96
aVidentifier
p97
aVactive
p98
aVname
p99
aVtelecom
p100
aVaddress
p101
aVgender
p102
aVbirthDate
p103
aVphoto
p104
aVpractitionerRole
p105
aVqualification
p106
aVcommunication
p107
asVSchedule
p108
(lp109
Vid
p110
aVmeta
p111
aVimplicitRules
p112
aVlanguage
p113
aVtext
p114
aVcontained
p115
aVextension
p116
aVmodifierExtension
p117
aVidentifier
p118
aVtype
p119
aVactor
p120
aVplanningHorizon
p121
aVcomment
p122
asVDocumentManifest
p123
(lp124
Vid
p125
aVmeta
p126
aVimplicitRules
p127
aVlanguage
p128
aVtext
p129
aVcontained
p130
aVextension
p131
aVmodifierExtension
p132
aVmasterIdentifier
p133
aVidentifier
p134
aVsubject
p135
aVrecipient
p136
aVtype
p137
aVauthor
p138
aVcreated
p139
aVsource
p140
aVstatus
p141
aVdescription
p142
aVcontent
p143
aVrelated
p144
asVImplementationGuide
p145
(lp146
Vid
p147
aVmeta
p148
aVimplicitRules
p149
aVlanguage
p150
aVtext
p151
aVcontained
p152
aVextension
p153
aVmodifierExtension
p154
aVurl
p155
aVversion
p156
aVname
p157
aVstatus
p158
aVexperimental
p159
aVpublisher
p160
aVcontact
p161
aVdate
p162
aVdescription
p163
aVuseContext
p164
aVcopyright
p165
aVfhirVersion
p166
aVdependency
p167
aVpackage
p168
aVglobal
p169
aVbinary
p170
aVpage
p171
asVEncounter
p172
(lp173
Vid
p174
aVmeta
p175
aVimplicitRules
p176
aVlanguage
p177
aVtext
p178
aVcontained
p179
aVextension
p180
aVmodifierExtension
p181
aVidentifier
p182
aVstatus
p183
aVstatusHistory
p184
aVclass
p185
aVtype
p186
aVpriority
p187
aVpatient
p188
aVepisodeOfCare
p189
aVincomingReferral
p190
aVparticipant
p191
aVappointment
p192
aVperiod
p193
aVlength
p194
aVreason
p195
aVindication
p196
aVhospitalization
p197
aVlocation
p198
aVserviceProvider
p199
aVpartOf
p200
asVAccount
p201
(lp202
Vid
p203
aVmeta
p204
aVimplicitRules
p205
aVlanguage
p206
aVtext
p207
aVcontained
p208
aVextension
p209
aVmodifierExtension
p210
aVidentifier
p211
aVname
p212
aVtype
p213
aVstatus
p214
aVactivePeriod
p215
aVcurrency
p216
aVbalance
p217
aVcoveragePeriod
p218
aVsubject
p219
aVowner
p220
aVdescription
p221
asVImagingObjectSelection
p222
(lp223
Vid
p224
aVmeta
p225
aVimplicitRules
p226
aVlanguage
p227
aVtext
p228
aVcontained
p229
aVextension
p230
aVmodifierExtension
p231
aVuid
p232
aVpatient
p233
aVtitle
p234
aVdescription
p235
aVauthor
p236
aVauthoringTime
p237
aVstudy
p238
asVOrganization
p239
(lp240
Vid
p241
aVmeta
p242
aVimplicitRules
p243
aVlanguage
p244
aVtext
p245
aVcontained
p246
aVextension
p247
aVmodifierExtension
p248
aVidentifier
p249
aVactive
p250
aVtype
p251
aVname
p252
aVtelecom
p253
aVaddress
p254
aVpartOf
p255
aVcontact
p256
asVMedicationStatement
p257
(lp258
Vid
p259
aVmeta
p260
aVimplicitRules
p261
aVlanguage
p262
aVtext
p263
aVcontained
p264
aVextension
p265
aVmodifierExtension
p266
aVidentifier
p267
aVpatient
p268
aVinformationSource
p269
aVdateAsserted
p270
aVstatus
p271
aVwasNotTaken
p272
aVreasonNotTaken
p273
aVreasonForUseCodeableConcept
p274
aVreasonForUseReference
p275
aVeffectiveDateTime
p276
aVeffectivePeriod
p277
aVnote
p278
aVsupportingInformation
p279
aVmedicationCodeableConcept
p280
aVmedicationReference
p281
aVdosage
p282
asVMedicationDispense
p283
(lp284
Vid
p285
aVmeta
p286
aVimplicitRules
p287
aVlanguage
p288
aVtext
p289
aVcontained
p290
aVextension
p291
aVmodifierExtension
p292
aVidentifier
p293
aVstatus
p294
aVpatient
p295
aVdispenser
p296
aVauthorizingPrescription
p297
aVtype
p298
aVquantity
p299
aVdaysSupply
p300
aVmedicationCodeableConcept
p301
aVmedicationReference
p302
aVwhenPrepared
p303
aVwhenHandedOver
p304
aVdestination
p305
aVreceiver
p306
aVnote
p307
aVdosageInstruction
p308
aVsubstitution
p309
asVSupplyRequest
p310
(lp311
Vid
p312
aVmeta
p313
aVimplicitRules
p314
aVlanguage
p315
aVtext
p316
aVcontained
p317
aVextension
p318
aVmodifierExtension
p319
aVpatient
p320
aVsource
p321
aVdate
p322
aVidentifier
p323
aVstatus
p324
aVkind
p325
aVorderedItem
p326
aVsupplier
p327
aVreasonCodeableConcept
p328
aVreasonReference
p329
aVwhen
p330
asVQuestionnaireResponse
p331
(lp332
Vid
p333
aVmeta
p334
aVimplicitRules
p335
aVlanguage
p336
aVtext
p337
aVcontained
p338
aVextension
p339
aVmodifierExtension
p340
aVidentifier
p341
aVquestionnaire
p342
aVstatus
p343
aVsubject
p344
aVauthor
p345
aVauthored
p346
aVsource
p347
aVencounter
p348
aVgroup
p349
asVParameters
p350
(lp351
Vid
p352
aVmeta
p353
aVimplicitRules
p354
aVlanguage
p355
aVparameter
p356
asVProvenance
p357
(lp358
Vid
p359
aVmeta
p360
aVimplicitRules
p361
aVlanguage
p362
aVtext
p363
aVcontained
p364
aVextension
p365
aVmodifierExtension
p366
aVtarget
p367
aVperiod
p368
aVrecorded
p369
aVreason
p370
aVactivity
p371
aVlocation
p372
aVpolicy
p373
aVagent
p374
aVentity
p375
aVsignature
p376
asVSubstance
p377
(lp378
Vid
p379
aVmeta
p380
aVimplicitRules
p381
aVlanguage
p382
aVtext
p383
aVcontained
p384
aVextension
p385
aVmodifierExtension
p386
aVidentifier
p387
aVcategory
p388
aVcode
p389
aVdescription
p390
aVinstance
p391
aVingredient
p392
asVEligibilityResponse
p393
(lp394
Vid
p395
aVmeta
p396
aVimplicitRules
p397
aVlanguage
p398
aVtext
p399
aVcontained
p400
aVextension
p401
aVmodifierExtension
p402
aVidentifier
p403
aVrequest
p404
aVoutcome
p405
aVdisposition
p406
aVruleset
p407
aVoriginalRuleset
p408
aVcreated
p409
aVorganization
p410
aVrequestProvider
p411
aVrequestOrganization
p412
asVPatient
p413
(lp414
Vid
p415
aVmeta
p416
aVimplicitRules
p417
aVlanguage
p418
aVtext
p419
aVcontained
p420
aVextension
p421
aVmodifierExtension
p422
aVidentifier
p423
aVactive
p424
aVname
p425
aVtelecom
p426
aVgender
p427
aVbirthDate
p428
aVdeceasedBoolean
p429
aVdeceasedDateTime
p430
aVaddress
p431
aVmaritalStatus
p432
aVmultipleBirthBoolean
p433
aVmultipleBirthInteger
p434
aVphoto
p435
aVcontact
p436
aVanimal
p437
aVcommunication
p438
aVcareProvider
p439
aVmanagingOrganization
p440
aVlink
p441
asVPaymentNotice
p442
(lp443
Vid
p444
aVmeta
p445
aVimplicitRules
p446
aVlanguage
p447
aVtext
p448
aVcontained
p449
aVextension
p450
aVmodifierExtension
p451
aVidentifier
p452
aVruleset
p453
aVoriginalRuleset
p454
aVcreated
p455
aVtarget
p456
aVprovider
p457
aVorganization
p458
aVrequest
p459
aVresponse
p460
aVpaymentStatus
p461
asVClinicalImpression
p462
(lp463
Vid
p464
aVmeta
p465
aVimplicitRules
p466
aVlanguage
p467
aVtext
p468
aVcontained
p469
aVextension
p470
aVmodifierExtension
p471
aVpatient
p472
aVassessor
p473
aVstatus
p474
aVdate
p475
aVdescription
p476
aVprevious
p477
aVproblem
p478
aVtriggerCodeableConcept
p479
aVtriggerReference
p480
aVinvestigations
p481
aVprotocol
p482
aVsummary
p483
aVfinding
p484
aVresolved
p485
aVruledOut
p486
aVprognosis
p487
aVplan
p488
aVaction
p489
asVFlag
p490
(lp491
Vid
p492
aVmeta
p493
aVimplicitRules
p494
aVlanguage
p495
aVtext
p496
aVcontained
p497
aVextension
p498
aVmodifierExtension
p499
aVidentifier
p500
aVcategory
p501
aVstatus
p502
aVperiod
p503
aVsubject
p504
aVencounter
p505
aVauthor
p506
aVcode
p507
asVExplanationOfBenefit
p508
(lp509
Vid
p510
aVmeta
p511
aVimplicitRules
p512
aVlanguage
p513
aVtext
p514
aVcontained
p515
aVextension
p516
aVmodifierExtension
p517
aVidentifier
p518
aVrequest
p519
aVoutcome
p520
aVdisposition
p521
aVruleset
p522
aVoriginalRuleset
p523
aVcreated
p524
aVorganization
p525
aVrequestProvider
p526
aVrequestOrganization
p527
asVBodySite
p528
(lp529
Vid
p530
aVmeta
p531
aVimplicitRules
p532
aVlanguage
p533
aVtext
p534
aVcontained
p535
aVextension
p536
aVmodifierExtension
p537
aVpatient
p538
aVidentifier
p539
aVcode
p540
aVmodifier
p541
aVdescription
p542
aVimage
p543
asVSubscription
p544
(lp545
Vid
p546
aVmeta
p547
aVimplicitRules
p548
aVlanguage
p549
aVtext
p550
aVcontained
p551
aVextension
p552
aVmodifierExtension
p553
aVcriteria
p554
aVcontact
p555
aVreason
p556
aVstatus
p557
aVerror
p558
aVchannel
p559
aVend
p560
aVtag
p561
asVMedicationAdministration
p562
(lp563
Vid
p564
aVmeta
p565
aVimplicitRules
p566
aVlanguage
p567
aVtext
p568
aVcontained
p569
aVextension
p570
aVmodifierExtension
p571
aVidentifier
p572
aVstatus
p573
aVpatient
p574
aVpractitioner
p575
aVencounter
p576
aVprescription
p577
aVwasNotGiven
p578
aVreasonNotGiven
p579
aVreasonGiven
p580
aVeffectiveTimeDateTime
p581
aVeffectiveTimePeriod
p582
aVmedicationCodeableConcept
p583
aVmedicationReference
p584
aVdevice
p585
aVnote
p586
aVdosage
p587
asVDiagnosticOrder
p588
(lp589
Vid
p590
aVmeta
p591
aVimplicitRules
p592
aVlanguage
p593
aVtext
p594
aVcontained
p595
aVextension
p596
aVmodifierExtension
p597
aVsubject
p598
aVorderer
p599
aVidentifier
p600
aVencounter
p601
aVreason
p602
aVsupportingInformation
p603
aVspecimen
p604
aVstatus
p605
aVpriority
p606
aVevent
p607
aVitem
p608
aVnote
p609
asVObservation
p610
(lp611
Vid
p612
aVmeta
p613
aVimplicitRules
p614
aVlanguage
p615
aVtext
p616
aVcontained
p617
aVextension
p618
aVmodifierExtension
p619
aVidentifier
p620
aVstatus
p621
aVcategory
p622
aVcode
p623
aVsubject
p624
aVencounter
p625
aVeffectiveDateTime
p626
aVeffectivePeriod
p627
aVissued
p628
aVperformer
p629
aVvalueQuantity
p630
aVvalueCodeableConcept
p631
aVvalueString
p632
aVvalueRange
p633
aVvalueRatio
p634
aVvalueSampledData
p635
aVvalueAttachment
p636
aVvalueTime
p637
aVvalueDateTime
p638
aVvaluePeriod
p639
aVdataAbsentReason
p640
aVinterpretation
p641
aVcomments
p642
aVbodySite
p643
aVmethod
p644
aVspecimen
p645
aVdevice
p646
aVreferenceRange
p647
aVrelated
p648
aVcomponent
p649
asVPaymentReconciliation
p650
(lp651
Vid
p652
aVmeta
p653
aVimplicitRules
p654
aVlanguage
p655
aVtext
p656
aVcontained
p657
aVextension
p658
aVmodifierExtension
p659
aVidentifier
p660
aVrequest
p661
aVoutcome
p662
aVdisposition
p663
aVruleset
p664
aVoriginalRuleset
p665
aVcreated
p666
aVperiod
p667
aVorganization
p668
aVrequestProvider
p669
aVrequestOrganization
p670
aVdetail
p671
aVform
p672
aVtotal
p673
aVnote
p674
asVTestScript
p675
(lp676
Vid
p677
aVmeta
p678
aVimplicitRules
p679
aVlanguage
p680
aVtext
p681
aVcontained
p682
aVextension
p683
aVmodifierExtension
p684
aVurl
p685
aVversion
p686
aVname
p687
aVstatus
p688
aVidentifier
p689
aVexperimental
p690
aVpublisher
p691
aVcontact
p692
aVdate
p693
aVdescription
p694
aVuseContext
p695
aVrequirements
p696
aVcopyright
p697
aVmetadata
p698
aVmultiserver
p699
aVfixture
p700
aVprofile
p701
aVvariable
p702
aVsetup
p703
aVtest
p704
aVteardown
p705
asVImmunization
p706
(lp707
Vid
p708
aVmeta
p709
aVimplicitRules
p710
aVlanguage
p711
aVtext
p712
aVcontained
p713
aVextension
p714
aVmodifierExtension
p715
aVidentifier
p716
aVstatus
p717
aVdate
p718
aVvaccineCode
p719
aVpatient
p720
aVwasNotGiven
p721
aVreported
p722
aVperformer
p723
aVrequester
p724
aVencounter
p725
aVmanufacturer
p726
aVlocation
p727
aVlotNumber
p728
aVexpirationDate
p729
aVsite
p730
aVroute
p731
aVdoseQuantity
p732
aVnote
p733
aVexplanation
p734
aVreaction
p735
aVvaccinationProtocol
p736
asVCommunicationRequest
p737
(lp738
Vid
p739
aVmeta
p740
aVimplicitRules
p741
aVlanguage
p742
aVtext
p743
aVcontained
p744
aVextension
p745
aVmodifierExtension
p746
aVidentifier
p747
aVcategory
p748
aVsender
p749
aVrecipient
p750
aVpayload
p751
aVmedium
p752
aVrequester
p753
aVstatus
p754
aVencounter
p755
aVscheduledDateTime
p756
aVscheduledPeriod
p757
aVreason
p758
aVrequestedOn
p759
aVsubject
p760
aVpriority
p761
asVOperationOutcome
p762
(lp763
Vid
p764
aVmeta
p765
aVimplicitRules
p766
aVlanguage
p767
aVtext
p768
aVcontained
p769
aVextension
p770
aVmodifierExtension
p771
aVissue
p772
asVMedication
p773
(lp774
Vid
p775
aVmeta
p776
aVimplicitRules
p777
aVlanguage
p778
aVtext
p779
aVcontained
p780
aVextension
p781
aVmodifierExtension
p782
aVcode
p783
aVisBrand
p784
aVmanufacturer
p785
aVproduct
p786
aVpackage
p787
asVCommunication
p788
(lp789
Vid
p790
aVmeta
p791
aVimplicitRules
p792
aVlanguage
p793
aVtext
p794
aVcontained
p795
aVextension
p796
aVmodifierExtension
p797
aVidentifier
p798
aVcategory
p799
aVsender
p800
aVrecipient
p801
aVpayload
p802
aVmedium
p803
aVstatus
p804
aVencounter
p805
aVsent
p806
aVreceived
p807
aVreason
p808
aVsubject
p809
aVrequestDetail
p810
asVProcessResponse
p811
(lp812
Vid
p813
aVmeta
p814
aVimplicitRules
p815
aVlanguage
p816
aVtext
p817
aVcontained
p818
aVextension
p819
aVmodifierExtension
p820
aVidentifier
p821
aVrequest
p822
aVoutcome
p823
aVdisposition
p824
aVruleset
p825
aVoriginalRuleset
p826
aVcreated
p827
aVorganization
p828
aVrequestProvider
p829
aVrequestOrganization
p830
aVform
p831
aVnotes
p832
aVerror
p833
asVProcessRequest
p834
(lp835
Vid
p836
aVmeta
p837
aVimplicitRules
p838
aVlanguage
p839
aVtext
p840
aVcontained
p841
aVextension
p842
aVmodifierExtension
p843
aVaction
p844
aVidentifier
p845
aVruleset
p846
aVoriginalRuleset
p847
aVcreated
p848
aVtarget
p849
aVprovider
p850
aVorganization
p851
aVrequest
p852
aVresponse
p853
aVnullify
p854
aVreference
p855
aVitem
p856
aVinclude
p857
aVexclude
p858
aVperiod
p859
asVFamilyMemberHistory
p860
(lp861
Vid
p862
aVmeta
p863
aVimplicitRules
p864
aVlanguage
p865
aVtext
p866
aVcontained
p867
aVextension
p868
aVmodifierExtension
p869
aVidentifier
p870
aVpatient
p871
aVdate
p872
aVstatus
p873
aVname
p874
aVrelationship
p875
aVgender
p876
aVbornPeriod
p877
aVbornDate
p878
aVbornString
p879
aVageQuantity
p880
aVageRange
p881
aVageString
p882
aVdeceasedBoolean
p883
aVdeceasedQuantity
p884
aVdeceasedRange
p885
aVdeceasedDate
p886
aVdeceasedString
p887
aVnote
p888
aVcondition
p889
asVBinary
p890
(lp891
Vid
p892
aVmeta
p893
aVimplicitRules
p894
aVlanguage
p895
aVcontentType
p896
aVcontent
p897
asVGroup
p898
(lp899
Vid
p900
aVmeta
p901
aVimplicitRules
p902
aVlanguage
p903
aVtext
p904
aVcontained
p905
aVextension
p906
aVmodifierExtension
p907
aVidentifier
p908
aVtype
p909
aVactual
p910
aVcode
p911
aVname
p912
aVquantity
p913
aVcharacteristic
p914
aVmember
p915
asVRiskAssessment
p916
(lp917
Vid
p918
aVmeta
p919
aVimplicitRules
p920
aVlanguage
p921
aVtext
p922
aVcontained
p923
aVextension
p924
aVmodifierExtension
p925
aVsubject
p926
aVdate
p927
aVcondition
p928
aVencounter
p929
aVperformer
p930
aVidentifier
p931
aVmethod
p932
aVbasis
p933
aVprediction
p934
aVmitigation
p935
asVImagingStudy
p936
(lp937
Vid
p938
aVmeta
p939
aVimplicitRules
p940
aVlanguage
p941
aVtext
p942
aVcontained
p943
aVextension
p944
aVmodifierExtension
p945
aVstarted
p946
aVpatient
p947
aVuid
p948
aVaccession
p949
aVidentifier
p950
aVorder
p951
aVmodalityList
p952
aVreferrer
p953
aVavailability
p954
aVurl
p955
aVnumberOfSeries
p956
aVnumberOfInstances
p957
aVprocedure
p958
aVinterpreter
p959
aVdescription
p960
aVseries
p961
asVBasic
p962
(lp963
Vid
p964
aVmeta
p965
aVimplicitRules
p966
aVlanguage
p967
aVtext
p968
aVcontained
p969
aVextension
p970
aVmodifierExtension
p971
aVidentifier
p972
aVcode
p973
aVsubject
p974
aVauthor
p975
aVcreated
p976
asVConformance
p977
(lp978
Vid
p979
aVmeta
p980
aVimplicitRules
p981
aVlanguage
p982
aVtext
p983
aVcontained
p984
aVextension
p985
aVmodifierExtension
p986
aVurl
p987
aVversion
p988
aVname
p989
aVstatus
p990
aVexperimental
p991
aVpublisher
p992
aVcontact
p993
aVdate
p994
aVdescription
p995
aVrequirements
p996
aVcopyright
p997
aVkind
p998
aVsoftware
p999
aVimplementation
p1000
aVfhirVersion
p1001
aVacceptUnknown
p1002
aVformat
p1003
aVprofile
p1004
aVrest
p1005
aVmessaging
p1006
aVdocument
p1007
asVAppointment
p1008
(lp1009
Vid
p1010
aVmeta
p1011
aVimplicitRules
p1012
aVlanguage
p1013
aVtext
p1014
aVcontained
p1015
aVextension
p1016
aVmodifierExtension
p1017
aVidentifier
p1018
aVstatus
p1019
aVtype
p1020
aVreason
p1021
aVpriority
p1022
aVdescription
p1023
aVstart
p1024
aVend
p1025
aVminutesDuration
p1026
aVslot
p1027
aVcomment
p1028
aVparticipant
p1029
asVValueSet
p1030
(lp1031
Vid
p1032
aVmeta
p1033
aVimplicitRules
p1034
aVlanguage
p1035
aVtext
p1036
aVcontained
p1037
aVextension
p1038
aVmodifierExtension
p1039
aVurl
p1040
aVidentifier
p1041
aVversion
p1042
aVname
p1043
aVstatus
p1044
aVexperimental
p1045
aVpublisher
p1046
aVcontact
p1047
aVdate
p1048
aVlockedDate
p1049
aVdescription
p1050
aVuseContext
p1051
aVimmutable
p1052
aVrequirements
p1053
aVcopyright
p1054
aVextensible
p1055
aVcodeSystem
p1056
aVcompose
p1057
aVexpansion
p1058
asVProcedureRequest
p1059
(lp1060
Vid
p1061
aVmeta
p1062
aVimplicitRules
p1063
aVlanguage
p1064
aVtext
p1065
aVcontained
p1066
aVextension
p1067
aVmodifierExtension
p1068
aVidentifier
p1069
aVsubject
p1070
aVcode
p1071
aVbodySite
p1072
aVreasonCodeableConcept
p1073
aVreasonReference
p1074
aVscheduledDateTime
p1075
aVscheduledPeriod
p1076
aVscheduledTiming
p1077
aVencounter
p1078
aVperformer
p1079
aVstatus
p1080
aVnotes
p1081
aVasNeededBoolean
p1082
aVasNeededCodeableConcept
p1083
aVorderedOn
p1084
aVorderer
p1085
aVpriority
p1086
asVBundle
p1087
(lp1088
Vid
p1089
aVmeta
p1090
aVimplicitRules
p1091
aVlanguage
p1092
aVtype
p1093
aVtotal
p1094
aVlink
p1095
aVentry
p1096
aVsignature
p1097
asVCoverage
p1098
(lp1099
Vid
p1100
aVmeta
p1101
aVimplicitRules
p1102
aVlanguage
p1103
aVtext
p1104
aVcontained
p1105
aVextension
p1106
aVmodifierExtension
p1107
aVissuer
p1108
aVbin
p1109
aVperiod
p1110
aVtype
p1111
aVsubscriberId
p1112
aVidentifier
p1113
aVgroup
p1114
aVplan
p1115
aVsubPlan
p1116
aVdependent
p1117
aVsequence
p1118
aVsubscriber
p1119
aVnetwork
p1120
aVcontract
p1121
asVDevice
p1122
(lp1123
Vid
p1124
aVmeta
p1125
aVimplicitRules
p1126
aVlanguage
p1127
aVtext
p1128
aVcontained
p1129
aVextension
p1130
aVmodifierExtension
p1131
aVidentifier
p1132
aVtype
p1133
aVnote
p1134
aVstatus
p1135
aVmanufacturer
p1136
aVmodel
p1137
aVversion
p1138
aVmanufactureDate
p1139
aVexpiry
p1140
aVudi
p1141
aVlotNumber
p1142
aVowner
p1143
aVlocation
p1144
aVpatient
p1145
aVcontact
p1146
aVurl
p1147
asVCondition
p1148
(lp1149
Vid
p1150
aVmeta
p1151
aVimplicitRules
p1152
aVlanguage
p1153
aVtext
p1154
aVcontained
p1155
aVextension
p1156
aVmodifierExtension
p1157
aVidentifier
p1158
aVpatient
p1159
aVencounter
p1160
aVasserter
p1161
aVdateRecorded
p1162
aVcode
p1163
aVcategory
p1164
aVclinicalStatus
p1165
aVverificationStatus
p1166
aVseverity
p1167
aVonsetDateTime
p1168
aVonsetQuantity
p1169
aVonsetPeriod
p1170
aVonsetRange
p1171
aVonsetString
p1172
aVabatementDateTime
p1173
aVabatementQuantity
p1174
aVabatementBoolean
p1175
aVabatementPeriod
p1176
aVabatementRange
p1177
aVabatementString
p1178
aVstage
p1179
aVevidence
p1180
aVbodySite
p1181
aVnotes
p1182
asVEligibilityRequest
p1183
(lp1184
Vid
p1185
aVmeta
p1186
aVimplicitRules
p1187
aVlanguage
p1188
aVtext
p1189
aVcontained
p1190
aVextension
p1191
aVmodifierExtension
p1192
aVidentifier
p1193
aVruleset
p1194
aVoriginalRuleset
p1195
aVcreated
p1196
aVtarget
p1197
aVprovider
p1198
aVorganization
p1199
asVDeviceUseStatement
p1200
(lp1201
Vid
p1202
aVmeta
p1203
aVimplicitRules
p1204
aVlanguage
p1205
aVtext
p1206
aVcontained
p1207
aVextension
p1208
aVmodifierExtension
p1209
aVbodySiteCodeableConcept
p1210
aVbodySiteReference
p1211
aVwhenUsed
p1212
aVdevice
p1213
aVidentifier
p1214
aVindication
p1215
aVnotes
p1216
aVrecordedOn
p1217
aVsubject
p1218
aVtimingTiming
p1219
aVtimingPeriod
p1220
aVtimingDateTime
p1221
asVDetectedIssue
p1222
(lp1223
Vid
p1224
aVmeta
p1225
aVimplicitRules
p1226
aVlanguage
p1227
aVtext
p1228
aVcontained
p1229
aVextension
p1230
aVmodifierExtension
p1231
aVpatient
p1232
aVcategory
p1233
aVseverity
p1234
aVimplicated
p1235
aVdetail
p1236
aVdate
p1237
aVauthor
p1238
aVidentifier
p1239
aVreference
p1240
aVmitigation
p1241
asVContract
p1242
(lp1243
Vid
p1244
aVmeta
p1245
aVimplicitRules
p1246
aVlanguage
p1247
aVtext
p1248
aVcontained
p1249
aVextension
p1250
aVmodifierExtension
p1251
aVidentifier
p1252
aVissued
p1253
aVapplies
p1254
aVsubject
p1255
aVauthority
p1256
aVdomain
p1257
aVtype
p1258
aVsubType
p1259
aVaction
p1260
aVactionReason
p1261
aVactor
p1262
aVvaluedItem
p1263
aVsigner
p1264
aVterm
p1265
aVbindingAttachment
p1266
aVbindingReference
p1267
aVbindingReference
p1268
aVbindingReference
p1269
aVfriendly
p1270
aVlegal
p1271
aVrule
p1272
asVPerson
p1273
(lp1274
Vid
p1275
aVmeta
p1276
aVimplicitRules
p1277
aVlanguage
p1278
aVtext
p1279
aVcontained
p1280
aVextension
p1281
aVmodifierExtension
p1282
aVidentifier
p1283
aVname
p1284
aVtelecom
p1285
aVgender
p1286
aVbirthDate
p1287
aVaddress
p1288
aVphoto
p1289
aVmanagingOrganization
p1290
aVactive
p1291
aVlink
p1292
asVReferralRequest
p1293
(lp1294
Vid
p1295
aVmeta
p1296
aVimplicitRules
p1297
aVlanguage
p1298
aVtext
p1299
aVcontained
p1300
aVextension
p1301
aVmodifierExtension
p1302
aVstatus
p1303
aVidentifier
p1304
aVdate
p1305
aVtype
p1306
aVspecialty
p1307
aVpriority
p1308
aVpatient
p1309
aVrequester
p1310
aVrecipient
p1311
aVencounter
p1312
aVdateSent
p1313
aVreason
p1314
aVdescription
p1315
aVserviceRequested
p1316
aVsupportingInformation
p1317
aVfulfillmentTime
p1318
asVDeviceComponent
p1319
(lp1320
Vid
p1321
aVmeta
p1322
aVimplicitRules
p1323
aVlanguage
p1324
aVtext
p1325
aVcontained
p1326
aVextension
p1327
aVmodifierExtension
p1328
aVtype
p1329
aVidentifier
p1330
aVlastSystemChange
p1331
aVsource
p1332
aVparent
p1333
aVoperationalStatus
p1334
aVparameterGroup
p1335
aVmeasurementPrinciple
p1336
aVproductionSpecification
p1337
aVlanguageCode
p1338
asVProcedure
p1339
(lp1340
Vid
p1341
aVmeta
p1342
aVimplicitRules
p1343
aVlanguage
p1344
aVtext
p1345
aVcontained
p1346
aVextension
p1347
aVmodifierExtension
p1348
aVidentifier
p1349
aVsubject
p1350
aVstatus
p1351
aVcategory
p1352
aVcode
p1353
aVnotPerformed
p1354
aVreasonNotPerformed
p1355
aVbodySite
p1356
aVreasonCodeableConcept
p1357
aVreasonReference
p1358
aVperformer
p1359
aVperformedDateTime
p1360
aVperformedPeriod
p1361
aVencounter
p1362
aVlocation
p1363
aVoutcome
p1364
aVreport
p1365
aVcomplication
p1366
aVfollowUp
p1367
aVrequest
p1368
aVnotes
p1369
aVfocalDevice
p1370
aVused
p1371
asVOrderResponse
p1372
(lp1373
Vid
p1374
aVmeta
p1375
aVimplicitRules
p1376
aVlanguage
p1377
aVtext
p1378
aVcontained
p1379
aVextension
p1380
aVmodifierExtension
p1381
aVidentifier
p1382
aVrequest
p1383
aVdate
p1384
aVwho
p1385
aVorderStatus
p1386
aVdescription
p1387
aVfulfillment
p1388
asVClaim
p1389
(lp1390
Vid
p1391
aVmeta
p1392
aVimplicitRules
p1393
aVlanguage
p1394
aVtext
p1395
aVcontained
p1396
aVextension
p1397
aVmodifierExtension
p1398
aVtype
p1399
aVidentifier
p1400
aVruleset
p1401
aVoriginalRuleset
p1402
aVcreated
p1403
aVtarget
p1404
aVprovider
p1405
aVorganization
p1406
aVuse
p1407
aVpriority
p1408
aVfundsReserve
p1409
aVenterer
p1410
aVfacility
p1411
aVprescription
p1412
aVoriginalPrescription
p1413
aVpayee
p1414
aVreferral
p1415
aVdiagnosis
p1416
aVcondition
p1417
aVpatient
p1418
aVcoverage
p1419
aVexception
p1420
aVschool
p1421
aVaccident
p1422
aVaccidentType
p1423
aVinterventionException
p1424
aVitem
p1425
aVadditionalMaterials
p1426
aVmissingTeeth
p1427
asVOperationDefinition
p1428
(lp1429
Vid
p1430
aVmeta
p1431
aVimplicitRules
p1432
aVlanguage
p1433
aVtext
p1434
aVcontained
p1435
aVextension
p1436
aVmodifierExtension
p1437
aVurl
p1438
aVversion
p1439
aVname
p1440
aVstatus
p1441
aVkind
p1442
aVexperimental
p1443
aVpublisher
p1444
aVcontact
p1445
aVdate
p1446
aVdescription
p1447
aVrequirements
p1448
aVidempotent
p1449
aVcode
p1450
aVnotes
p1451
aVbase
p1452
aVsystem
p1453
aVtype
p1454
aVinstance
p1455
aVparameter
p1456
asVDiagnosticReport
p1457
(lp1458
Vid
p1459
aVmeta
p1460
aVimplicitRules
p1461
aVlanguage
p1462
aVtext
p1463
aVcontained
p1464
aVextension
p1465
aVmodifierExtension
p1466
aVidentifier
p1467
aVstatus
p1468
aVcategory
p1469
aVcode
p1470
aVsubject
p1471
aVencounter
p1472
aVeffectiveDateTime
p1473
aVeffectivePeriod
p1474
aVissued
p1475
aVperformer
p1476
aVrequest
p1477
aVspecimen
p1478
aVresult
p1479
aVimagingStudy
p1480
aVimage
p1481
aVconclusion
p1482
aVcodedDiagnosis
p1483
aVpresentedForm
p1484
asVStructureDefinition
p1485
(lp1486
Vid
p1487
aVmeta
p1488
aVimplicitRules
p1489
aVlanguage
p1490
aVtext
p1491
aVcontained
p1492
aVextension
p1493
aVmodifierExtension
p1494
aVurl
p1495
aVidentifier
p1496
aVversion
p1497
aVname
p1498
aVdisplay
p1499
aVstatus
p1500
aVexperimental
p1501
aVpublisher
p1502
aVcontact
p1503
aVdate
p1504
aVdescription
p1505
aVuseContext
p1506
aVrequirements
p1507
aVcopyright
p1508
aVcode
p1509
aVfhirVersion
p1510
aVmapping
p1511
aVkind
p1512
aVconstrainedType
p1513
aVabstract
p1514
aVcontextType
p1515
aVcontext
p1516
aVbase
p1517
aVsnapshot
p1518
aVdifferential
p1519
asVDeviceUseRequest
p1520
(lp1521
Vid
p1522
aVmeta
p1523
aVimplicitRules
p1524
aVlanguage
p1525
aVtext
p1526
aVcontained
p1527
aVextension
p1528
aVmodifierExtension
p1529
aVbodySiteCodeableConcept
p1530
aVbodySiteReference
p1531
aVstatus
p1532
aVdevice
p1533
aVencounter
p1534
aVidentifier
p1535
aVindication
p1536
aVnotes
p1537
aVprnReason
p1538
aVorderedOn
p1539
aVrecordedOn
p1540
aVsubject
p1541
aVtimingTiming
p1542
aVtimingPeriod
p1543
aVtimingDateTime
p1544
aVpriority
p1545
asVQuestionnaire
p1546
(lp1547
Vid
p1548
aVmeta
p1549
aVimplicitRules
p1550
aVlanguage
p1551
aVtext
p1552
aVcontained
p1553
aVextension
p1554
aVmodifierExtension
p1555
aVidentifier
p1556
aVversion
p1557
aVstatus
p1558
aVdate
p1559
aVpublisher
p1560
aVtelecom
p1561
aVsubjectType
p1562
aVgroup
p1563
asVConceptMap
p1564
(lp1565
Vid
p1566
aVmeta
p1567
aVimplicitRules
p1568
aVlanguage
p1569
aVtext
p1570
aVcontained
p1571
aVextension
p1572
aVmodifierExtension
p1573
aVurl
p1574
aVidentifier
p1575
aVversion
p1576
aVname
p1577
aVstatus
p1578
aVexperimental
p1579
aVpublisher
p1580
aVcontact
p1581
aVdate
p1582
aVdescription
p1583
aVuseContext
p1584
aVrequirements
p1585
aVcopyright
p1586
aVsourceUri
p1587
aVsourceReference
p1588
aVsourceReference
p1589
aVtargetUri
p1590
aVtargetReference
p1591
aVtargetReference
p1592
aVelement
p1593
asVLocation
p1594
(lp1595
Vid
p1596
aVmeta
p1597
aVimplicitRules
p1598
aVlanguage
p1599
aVtext
p1600
aVcontained
p1601
aVextension
p1602
aVmodifierExtension
p1603
aVidentifier
p1604
aVstatus
p1605
aVname
p1606
aVdescription
p1607
aVmode
p1608
aVtype
p1609
aVtelecom
p1610
aVaddress
p1611
aVphysicalType
p1612
aVposition
p1613
aVmanagingOrganization
p1614
aVpartOf
p1615
asVSlot
p1616
(lp1617
Vid
p1618
aVmeta
p1619
aVimplicitRules
p1620
aVlanguage
p1621
aVtext
p1622
aVcontained
p1623
aVextension
p1624
aVmodifierExtension
p1625
aVidentifier
p1626
aVtype
p1627
aVschedule
p1628
aVfreeBusyType
p1629
aVstart
p1630
aVend
p1631
aVoverbooked
p1632
aVcomment
p1633
asVCarePlan
p1634
(lp1635
Vid
p1636
aVmeta
p1637
aVimplicitRules
p1638
aVlanguage
p1639
aVtext
p1640
aVcontained
p1641
aVextension
p1642
aVmodifierExtension
p1643
aVidentifier
p1644
aVsubject
p1645
aVstatus
p1646
aVcontext
p1647
aVperiod
p1648
aVauthor
p1649
aVmodified
p1650
aVcategory
p1651
aVdescription
p1652
aVaddresses
p1653
aVsupport
p1654
aVrelatedPlan
p1655
aVparticipant
p1656
aVgoal
p1657
aVactivity
p1658
aVnote
p1659
asVMedia
p1660
(lp1661
Vid
p1662
aVmeta
p1663
aVimplicitRules
p1664
aVlanguage
p1665
aVtext
p1666
aVcontained
p1667
aVextension
p1668
aVmodifierExtension
p1669
aVtype
p1670
aVsubtype
p1671
aVidentifier
p1672
aVsubject
p1673
aVoperator
p1674
aVview
p1675
aVdeviceName
p1676
aVheight
p1677
aVwidth
p1678
aVframes
p1679
aVduration
p1680
aVcontent
p1681
asVHealthcareService
p1682
(lp1683
Vid
p1684
aVmeta
p1685
aVimplicitRules
p1686
aVlanguage
p1687
aVtext
p1688
aVcontained
p1689
aVextension
p1690
aVmodifierExtension
p1691
aVidentifier
p1692
aVprovidedBy
p1693
aVserviceCategory
p1694
aVserviceType
p1695
aVlocation
p1696
aVserviceName
p1697
aVcomment
p1698
aVextraDetails
p1699
aVphoto
p1700
aVtelecom
p1701
aVcoverageArea
p1702
aVserviceProvisionCode
p1703
aVeligibility
p1704
aVeligibilityNote
p1705
aVprogramName
p1706
aVcharacteristic
p1707
aVreferralMethod
p1708
aVpublicKey
p1709
aVappointmentRequired
p1710
aVavailableTime
p1711
aVnotAvailable
p1712
aVavailabilityExceptions
p1713
asVVisionPrescription
p1714
(lp1715
Vid
p1716
aVmeta
p1717
aVimplicitRules
p1718
aVlanguage
p1719
aVtext
p1720
aVcontained
p1721
aVextension
p1722
aVmodifierExtension
p1723
aVidentifier
p1724
aVdateWritten
p1725
aVpatient
p1726
aVprescriber
p1727
aVencounter
p1728
aVreasonCodeableConcept
p1729
aVreasonReference
p1730
aVdispense
p1731
asVAllergyIntolerance
p1732
(lp1733
Vid
p1734
aVmeta
p1735
aVimplicitRules
p1736
aVlanguage
p1737
aVtext
p1738
aVcontained
p1739
aVextension
p1740
aVmodifierExtension
p1741
aVidentifier
p1742
aVonset
p1743
aVrecordedDate
p1744
aVrecorder
p1745
aVpatient
p1746
aVreporter
p1747
aVsubstance
p1748
aVstatus
p1749
aVcriticality
p1750
aVtype
p1751
aVcategory
p1752
aVlastOccurence
p1753
aVnote
p1754
aVreaction
p1755
asVDomainResource
p1756
(lp1757
Vid
p1758
aVmeta
p1759
aVimplicitRules
p1760
aVlanguage
p1761
aVtext
p1762
aVcontained
p1763
aVextension
p1764
aVmodifierExtension
p1765
asVEnrollmentRequest
p1766
(lp1767
Vid
p1768
aVmeta
p1769
aVimplicitRules
p1770
aVlanguage
p1771
aVtext
p1772
aVcontained
p1773
aVextension
p1774
aVmodifierExtension
p1775
aVidentifier
p1776
aVruleset
p1777
aVoriginalRuleset
p1778
aVcreated
p1779
aVtarget
p1780
aVprovider
p1781
aVorganization
p1782
aVsubject
p1783
aVcoverage
p1784
aVrelationship
p1785
asVComposition
p1786
(lp1787
Vid
p1788
aVmeta
p1789
aVimplicitRules
p1790
aVlanguage
p1791
aVtext
p1792
aVcontained
p1793
aVextension
p1794
aVmodifierExtension
p1795
aVidentifier
p1796
aVdate
p1797
aVtype
p1798
aVclass
p1799
aVtitle
p1800
aVstatus
p1801
aVconfidentiality
p1802
aVsubject
p1803
aVauthor
p1804
aVattester
p1805
aVcustodian
p1806
aVevent
p1807
aVencounter
p1808
aVsection
p1809
asVRelatedPerson
p1810
(lp1811
Vid
p1812
aVmeta
p1813
aVimplicitRules
p1814
aVlanguage
p1815
aVtext
p1816
aVcontained
p1817
aVextension
p1818
aVmodifierExtension
p1819
aVidentifier
p1820
aVpatient
p1821
aVrelationship
p1822
aVname
p1823
aVtelecom
p1824
aVgender
p1825
aVbirthDate
p1826
aVaddress
p1827
aVphoto
p1828
aVperiod
p1829
asVMedicationOrder
p1830
(lp1831
Vid
p1832
aVmeta
p1833
aVimplicitRules
p1834
aVlanguage
p1835
aVtext
p1836
aVcontained
p1837
aVextension
p1838
aVmodifierExtension
p1839
aVidentifier
p1840
aVdateWritten
p1841
aVstatus
p1842
aVdateEnded
p1843
aVreasonEnded
p1844
aVpatient
p1845
aVprescriber
p1846
aVencounter
p1847
aVreasonCodeableConcept
p1848
aVreasonReference
p1849
aVnote
p1850
aVmedicationCodeableConcept
p1851
aVmedicationReference
p1852
aVdosageInstruction
p1853
aVdispenseRequest
p1854
aVsubstitution
p1855
aVpriorPrescription
p1856
asVSpecimen
p1857
(lp1858
Vid
p1859
aVmeta
p1860
aVimplicitRules
p1861
aVlanguage
p1862
aVtext
p1863
aVcontained
p1864
aVextension
p1865
aVmodifierExtension
p1866
aVidentifier
p1867
aVstatus
p1868
aVtype
p1869
aVparent
p1870
aVsubject
p1871
aVaccessionIdentifier
p1872
aVreceivedTime
p1873
aVcollection
p1874
aVtreatment
p1875
aVcontainer
p1876
asVSearchParameter
p1877
(lp1878
Vid
p1879
aVmeta
p1880
aVimplicitRules
p1881
aVlanguage
p1882
aVtext
p1883
aVcontained
p1884
aVextension
p1885
aVmodifierExtension
p1886
aVurl
p1887
aVname
p1888
aVstatus
p1889
aVexperimental
p1890
aVpublisher
p1891
aVcontact
p1892
aVdate
p1893
aVrequirements
p1894
aVcode
p1895
aVbase
p1896
aVtype
p1897
aVdescription
p1898
aVxpath
p1899
aVxpathUsage
p1900
aVtarget
p1901
asVAppointmentResponse
p1902
(lp1903
Vid
p1904
aVmeta
p1905
aVimplicitRules
p1906
aVlanguage
p1907
aVtext
p1908
aVcontained
p1909
aVextension
p1910
aVmodifierExtension
p1911
aVidentifier
p1912
aVappointment
p1913
aVstart
p1914
aVend
p1915
aVparticipantType
p1916
aVactor
p1917
aVparticipantStatus
p1918
aVcomment
p1919
asVClaimResponse
p1920
(lp1921
Vid
p1922
aVmeta
p1923
aVimplicitRules
p1924
aVlanguage
p1925
aVtext
p1926
aVcontained
p1927
aVextension
p1928
aVmodifierExtension
p1929
aVidentifier
p1930
aVrequest
p1931
aVruleset
p1932
aVoriginalRuleset
p1933
aVcreated
p1934
aVorganization
p1935
aVrequestProvider
p1936
aVrequestOrganization
p1937
aVoutcome
p1938
aVdisposition
p1939
aVpayeeType
p1940
aVitem
p1941
aVaddItem
p1942
aVerror
p1943
aVtotalCost
p1944
aVunallocDeductable
p1945
aVtotalBenefit
p1946
aVpaymentAdjustment
p1947
aVpaymentAdjustmentReason
p1948
aVpaymentDate
p1949
aVpaymentAmount
p1950
aVpaymentRef
p1951
aVreserved
p1952
aVform
p1953
aVnote
p1954
aVcoverage
p1955
asVEpisodeOfCare
p1956
(lp1957
Vid
p1958
aVmeta
p1959
aVimplicitRules
p1960
aVlanguage
p1961
aVtext
p1962
aVcontained
p1963
aVextension
p1964
aVmodifierExtension
p1965
aVidentifier
p1966
aVstatus
p1967
aVstatusHistory
p1968
aVtype
p1969
aVcondition
p1970
aVpatient
p1971
aVmanagingOrganization
p1972
aVperiod
p1973
aVreferralRequest
p1974
aVcareManager
p1975
aVcareTeam
p1976
asVResource
p1977
(lp1978
Vid
p1979
aVmeta
p1980
aVimplicitRules
p1981
aVlanguage
p1982
asVDeviceMetric
p1983
(lp1984
Vid
p1985
aVmeta
p1986
aVimplicitRules
p1987
aVlanguage
p1988
aVtext
p1989
aVcontained
p1990
aVextension
p1991
aVmodifierExtension
p1992
aVtype
p1993
aVidentifier
p1994
aVunit
p1995
aVsource
p1996
aVparent
p1997
aVoperationalStatus
p1998
aVcolor
p1999
aVcategory
p2000
aVmeasurementPeriod
p2001
aVcalibration
p2002
asVList
p2003
(lp2004
Vid
p2005
aVmeta
p2006
aVimplicitRules
p2007
aVlanguage
p2008
aVtext
p2009
aVcontained
p2010
aVextension
p2011
aVmodifierExtension
p2012
aVidentifier
p2013
aVtitle
p2014
aVcode
p2015
aVsubject
p2016
aVsource
p2017
aVencounter
p2018
aVstatus
p2019
aVdate
p2020
aVorderedBy
p2021
aVmode
p2022
aVnote
p2023
aVentry
p2024
aVemptyReason
p2025
asVAuditEvent
p2026
(lp2027
Vid
p2028
aVmeta
p2029
aVimplicitRules
p2030
aVlanguage
p2031
aVtext
p2032
aVcontained
p2033
aVextension
p2034
aVmodifierExtension
p2035
aVevent
p2036
aVparticipant
p2037
aVsource
p2038
aVobject
p2039
asVOrder
p2040
(lp2041
Vid
p2042
aVmeta
p2043
aVimplicitRules
p2044
aVlanguage
p2045
aVtext
p2046
aVcontained
p2047
aVextension
p2048
aVmodifierExtension
p2049
aVidentifier
p2050
aVdate
p2051
aVsubject
p2052
aVsource
p2053
aVtarget
p2054
aVreasonCodeableConcept
p2055
aVreasonReference
p2056
aVwhen
p2057
aVdetail
p2058
asVDocumentReference
p2059
(lp2060
Vid
p2061
aVmeta
p2062
aVimplicitRules
p2063
aVlanguage
p2064
aVtext
p2065
aVcontained
p2066
aVextension
p2067
aVmodifierExtension
p2068
aVmasterIdentifier
p2069
aVidentifier
p2070
aVsubject
p2071
aVtype
p2072
aVclass
p2073
aVauthor
p2074
aVcustodian
p2075
aVauthenticator
p2076
aVcreated
p2077
aVindexed
p2078
aVstatus
p2079
aVdocStatus
p2080
aVrelatesTo
p2081
aVdescription
p2082
aVsecurityLabel
p2083
aVcontent
p2084
aVcontext
p2085
asVEnrollmentResponse
p2086
(lp2087
Vid
p2088
aVmeta
p2089
aVimplicitRules
p2090
aVlanguage
p2091
aVtext
p2092
aVcontained
p2093
aVextension
p2094
aVmodifierExtension
p2095
aVidentifier
p2096
aVrequest
p2097
aVoutcome
p2098
aVdisposition
p2099
aVruleset
p2100
aVoriginalRuleset
p2101
aVcreated
p2102
aVorganization
p2103
aVrequestProvider
p2104
aVrequestOrganization
p2105
asVDataElement
p2106
(lp2107
Vid
p2108
aVmeta
p2109
aVimplicitRules
p2110
aVlanguage
p2111
aVtext
p2112
aVcontained
p2113
aVextension
p2114
aVmodifierExtension
p2115
aVurl
p2116
aVidentifier
p2117
aVversion
p2118
aVname
p2119
aVstatus
p2120
aVexperimental
p2121
aVpublisher
p2122
aVcontact
p2123
aVdate
p2124
aVuseContext
p2125
aVcopyright
p2126
aVstringency
p2127
aVmapping
p2128
aVelement
p2129
asVNutritionOrder
p2130
(lp2131
Vid
p2132
aVmeta
p2133
aVimplicitRules
p2134
aVlanguage
p2135
aVtext
p2136
aVcontained
p2137
aVextension
p2138
aVmodifierExtension
p2139
aVpatient
p2140
aVorderer
p2141
aVidentifier
p2142
aVencounter
p2143
aVdateTime
p2144
aVstatus
p2145
aVallergyIntolerance
p2146
aVfoodPreferenceModifier
p2147
aVexcludeFoodModifier
p2148
aVoralDiet
p2149
aVsupplement
p2150
aVenteralFormula
p2151
asVSupplyDelivery
p2152
(lp2153
Vid
p2154
aVmeta
p2155
aVimplicitRules
p2156
aVlanguage
p2157
aVtext
p2158
aVcontained
p2159
aVextension
p2160
aVmodifierExtension
p2161
aVidentifier
p2162
aVstatus
p2163
aVpatient
p2164
aVtype
p2165
aVquantity
p2166
aVsuppliedItem
p2167
aVsupplier
p2168
aVwhenPrepared
p2169
aVtime
p2170
aVdestination
p2171
aVreceiver
p2172
as.