ccollections
defaultdict
p0
(c__builtin__
list
p1
tp2
Rp3
VNamingSystem
p4
(lp5
Vid
p6
aVmeta
p7
aVimplicitRules
p8
aVlanguage
p9
aVtext
p10
aVcontained
p11
aVextension
p12
aVmodifierExtension
p13
aVname
p14
aVstatus
p15
aVkind
p16
aVdate
p17
aVpublisher
p18
aVcontact
p19
aVresponsible
p20
aVtype
p21
aVdescription
p22
aVuseContext
p23
aVjurisdiction
p24
aVusage
p25
aVuniqueId
p26
asVGoal
p27
(lp28
Vid
p29
aVmeta
p30
aVimplicitRules
p31
aVlanguage
p32
aVtext
p33
aVcontained
p34
aVextension
p35
aVmodifierExtension
p36
aVidentifier
p37
aVstatus
p38
aVcategory
p39
aVpriority
p40
aVdescription
p41
aVsubject
p42
aVstartDate
p43
aVstartCodeableConcept
p44
aVtarget
p45
aVstatusDate
p46
aVstatusReason
p47
aVexpressedBy
p48
aVaddresses
p49
aVnote
p50
aVoutcomeCode
p51
aVoutcomeReference
p52
asVImmunizationRecommendation
p53
(lp54
Vid
p55
aVmeta
p56
aVimplicitRules
p57
aVlanguage
p58
aVtext
p59
aVcontained
p60
aVextension
p61
aVmodifierExtension
p62
aVidentifier
p63
aVpatient
p64
aVdate
p65
aVauthority
p66
aVrecommendation
p67
asVMessageHeader
p68
(lp69
Vid
p70
aVmeta
p71
aVimplicitRules
p72
aVlanguage
p73
aVtext
p74
aVcontained
p75
aVextension
p76
aVmodifierExtension
p77
aVeventCoding
p78
aVeventUri
p79
aVdestination
p80
aVsender
p81
aVenterer
p82
aVauthor
p83
aVsource
p84
aVresponsible
p85
aVreason
p86
aVresponse
p87
aVfocus
p88
aVdefinition
p89
asVActivityDefinition
p90
(lp91
Vid
p92
aVmeta
p93
aVimplicitRules
p94
aVlanguage
p95
aVtext
p96
aVcontained
p97
aVextension
p98
aVmodifierExtension
p99
aVurl
p100
aVidentifier
p101
aVversion
p102
aVname
p103
aVtitle
p104
aVsubtitle
p105
aVstatus
p106
aVexperimental
p107
aVsubjectCodeableConcept
p108
aVsubjectReference
p109
aVdate
p110
aVpublisher
p111
aVcontact
p112
aVdescription
p113
aVuseContext
p114
aVjurisdiction
p115
aVpurpose
p116
aVusage
p117
aVcopyright
p118
aVapprovalDate
p119
aVlastReviewDate
p120
aVeffectivePeriod
p121
aVtopic
p122
aVcontributor
p123
aVrelatedArtifact
p124
aVlibrary
p125
aVkind
p126
aVcode
p127
aVdoNotPerform
p128
aVtimingTiming
p129
aVtimingDateTime
p130
aVtimingAge
p131
aVtimingPeriod
p132
aVtimingRange
p133
aVtimingDuration
p134
aVlocation
p135
aVparticipant
p136
aVproductReference
p137
aVproductCodeableConcept
p138
aVquantity
p139
aVdosage
p140
aVbodySite
p141
aVspecimenRequirement
p142
aVtransform
p143
aVdynamicValue
p144
asVObservationDefinition
p145
(lp146
Vid
p147
aVmeta
p148
aVimplicitRules
p149
aVlanguage
p150
aVtext
p151
aVcontained
p152
aVextension
p153
aVmodifierExtension
p154
aVcategory
p155
aVcode
p156
aVpermittedDataType
p157
aVmultipleResultsAllowed
p158
aVmethod
p159
aVpreferredReportName
p160
aVquantitativeDetails
p161
aVqualifiedInterval
p162
aVvalidCodedValueSet
p163
aVnormalCodedValueSet
p164
aVabnormalCodedValueSet
p165
aVcriticalCodedValueSet
p166
asVPractitioner
p167
(lp168
Vid
p169
aVmeta
p170
aVimplicitRules
p171
aVlanguage
p172
aVtext
p173
aVcontained
p174
aVextension
p175
aVmodifierExtension
p176
aVidentifier
p177
aVactive
p178
aVname
p179
aVtelecom
p180
aVaddress
p181
aVgender
p182
aVbirthDate
p183
aVphoto
p184
aVqualification
p185
aVcommunication
p186
asVSchedule
p187
(lp188
Vid
p189
aVmeta
p190
aVimplicitRules
p191
aVlanguage
p192
aVtext
p193
aVcontained
p194
aVextension
p195
aVmodifierExtension
p196
aVidentifier
p197
aVactive
p198
aVserviceCategory
p199
aVserviceType
p200
aVspecialty
p201
aVactor
p202
aVplanningHorizon
p203
aVcomment
p204
asVResearchSubject
p205
(lp206
Vid
p207
aVmeta
p208
aVimplicitRules
p209
aVlanguage
p210
aVtext
p211
aVcontained
p212
aVextension
p213
aVmodifierExtension
p214
aVidentifier
p215
aVstatus
p216
aVperiod
p217
aVstudy
p218
aVindividual
p219
aVassignedArm
p220
aVactualArm
p221
aVconsent
p222
asVMedicationRequest
p223
(lp224
Vid
p225
aVmeta
p226
aVimplicitRules
p227
aVlanguage
p228
aVtext
p229
aVcontained
p230
aVextension
p231
aVmodifierExtension
p232
aVidentifier
p233
aVstatus
p234
aVintent
p235
aVcategory
p236
aVpriority
p237
aVmedicationCodeableConcept
p238
aVmedicationReference
p239
aVsubject
p240
aVcontext
p241
aVsupportingInformation
p242
aVauthoredOn
p243
aVrequester
p244
aVperformer
p245
aVperformerType
p246
aVrecorder
p247
aVreasonCode
p248
aVreasonReference
p249
aVinstantiates
p250
aVbasedOn
p251
aVgroupIdentifier
p252
aVstatusReason
p253
aVinsurance
p254
aVnote
p255
aVdosageInstruction
p256
aVdispenseRequest
p257
aVsubstitution
p258
aVpriorPrescription
p259
aVdetectedIssue
p260
aVeventHistory
p261
asVDocumentManifest
p262
(lp263
Vid
p264
aVmeta
p265
aVimplicitRules
p266
aVlanguage
p267
aVtext
p268
aVcontained
p269
aVextension
p270
aVmodifierExtension
p271
aVmasterIdentifier
p272
aVidentifier
p273
aVstatus
p274
aVtype
p275
aVsubject
p276
aVcreated
p277
aVagent
p278
aVrecipient
p279
aVsource
p280
aVdescription
p281
aVcontent
p282
aVrelated
p283
asVImplementationGuide
p284
(lp285
Vid
p286
aVmeta
p287
aVimplicitRules
p288
aVlanguage
p289
aVtext
p290
aVcontained
p291
aVextension
p292
aVmodifierExtension
p293
aVurl
p294
aVversion
p295
aVname
p296
aVstatus
p297
aVexperimental
p298
aVdate
p299
aVpublisher
p300
aVcontact
p301
aVdescription
p302
aVuseContext
p303
aVjurisdiction
p304
aVcopyright
p305
aVfhirVersion
p306
aVdependsOn
p307
aVglobal
p308
aVdefinition
p309
aVmanifest
p310
asVPlanDefinition
p311
(lp312
Vid
p313
aVmeta
p314
aVimplicitRules
p315
aVlanguage
p316
aVtext
p317
aVcontained
p318
aVextension
p319
aVmodifierExtension
p320
aVurl
p321
aVidentifier
p322
aVversion
p323
aVname
p324
aVtitle
p325
aVsubtitle
p326
aVtype
p327
aVstatus
p328
aVexperimental
p329
aVsubjectCodeableConcept
p330
aVsubjectReference
p331
aVdate
p332
aVpublisher
p333
aVcontact
p334
aVdescription
p335
aVuseContext
p336
aVjurisdiction
p337
aVpurpose
p338
aVusage
p339
aVcopyright
p340
aVapprovalDate
p341
aVlastReviewDate
p342
aVeffectivePeriod
p343
aVtopic
p344
aVcontributor
p345
aVrelatedArtifact
p346
aVlibrary
p347
aVgoal
p348
aVaction
p349
asVEncounter
p350
(lp351
Vid
p352
aVmeta
p353
aVimplicitRules
p354
aVlanguage
p355
aVtext
p356
aVcontained
p357
aVextension
p358
aVmodifierExtension
p359
aVidentifier
p360
aVstatus
p361
aVstatusHistory
p362
aVclass
p363
aVclassHistory
p364
aVtype
p365
aVserviceType
p366
aVpriority
p367
aVsubject
p368
aVepisodeOfCare
p369
aVbasedOn
p370
aVparticipant
p371
aVappointment
p372
aVperiod
p373
aVlength
p374
aVreason
p375
aVdiagnosis
p376
aVaccount
p377
aVhospitalization
p378
aVlocation
p379
aVserviceProvider
p380
aVpartOf
p381
asVAccount
p382
(lp383
Vid
p384
aVmeta
p385
aVimplicitRules
p386
aVlanguage
p387
aVtext
p388
aVcontained
p389
aVextension
p390
aVmodifierExtension
p391
aVidentifier
p392
aVstatus
p393
aVtype
p394
aVname
p395
aVsubject
p396
aVservicePeriod
p397
aVcoverage
p398
aVowner
p399
aVdescription
p400
aVguarantor
p401
aVpartOf
p402
asVTask
p403
(lp404
Vid
p405
aVmeta
p406
aVimplicitRules
p407
aVlanguage
p408
aVtext
p409
aVcontained
p410
aVextension
p411
aVmodifierExtension
p412
aVidentifier
p413
aVinstantiatesUri
p414
aVinstantiatesReference
p415
aVbasedOn
p416
aVgroupIdentifier
p417
aVpartOf
p418
aVstatus
p419
aVstatusReason
p420
aVbusinessStatus
p421
aVintent
p422
aVpriority
p423
aVcode
p424
aVdescription
p425
aVfocus
p426
aVfor
p427
aVcontext
p428
aVexecutionPeriod
p429
aVauthoredOn
p430
aVlastModified
p431
aVrequester
p432
aVperformerType
p433
aVowner
p434
aVreasonCode
p435
aVreasonReference
p436
aVnote
p437
aVrelevantHistory
p438
aVrestriction
p439
aVinput
p440
aVoutput
p441
asVMedicinalProductAuthorization
p442
(lp443
Vid
p444
aVmeta
p445
aVimplicitRules
p446
aVlanguage
p447
aVtext
p448
aVcontained
p449
aVextension
p450
aVmodifierExtension
p451
aVidentifier
p452
aVcountry
p453
aVlegalStatusOfSupply
p454
aVstatus
p455
aVstatusDate
p456
aVrestoreDate
p457
aVvalidityPeriod
p458
aVdataExclusivityPeriod
p459
aVdateOfFirstAuthorization
p460
aVinternationalBirthDate
p461
aVjurisdictionalAuthorization
p462
aVholder
p463
aVregulator
p464
aVprocedure
p465
aVmarketingStatus
p466
asVMetadataResource
p467
(lp468
Vid
p469
aVmeta
p470
aVimplicitRules
p471
aVlanguage
p472
aVtext
p473
aVcontained
p474
aVextension
p475
aVmodifierExtension
p476
aVurl
p477
aVversion
p478
aVname
p479
aVtitle
p480
aVstatus
p481
aVexperimental
p482
aVdate
p483
aVpublisher
p484
aVcontact
p485
aVdescription
p486
aVuseContext
p487
aVjurisdiction
p488
asVCodeSystem
p489
(lp490
Vid
p491
aVmeta
p492
aVimplicitRules
p493
aVlanguage
p494
aVtext
p495
aVcontained
p496
aVextension
p497
aVmodifierExtension
p498
aVurl
p499
aVidentifier
p500
aVversion
p501
aVname
p502
aVtitle
p503
aVstatus
p504
aVexperimental
p505
aVdate
p506
aVpublisher
p507
aVcontact
p508
aVdescription
p509
aVuseContext
p510
aVjurisdiction
p511
aVpurpose
p512
aVcopyright
p513
aVcaseSensitive
p514
aVvalueSet
p515
aVhierarchyMeaning
p516
aVcompositional
p517
aVversionNeeded
p518
aVcontent
p519
aVsupplements
p520
aVcount
p521
aVfilter
p522
aVproperty
p523
aVconcept
p524
asVEntryDefinition
p525
(lp526
Vid
p527
aVmeta
p528
aVimplicitRules
p529
aVlanguage
p530
aVtext
p531
aVcontained
p532
aVextension
p533
aVmodifierExtension
p534
aVtype
p535
aVpurpose
p536
aVreferencedItem
p537
aVidentifier
p538
aVadditionalIdentifier
p539
aVclassification
p540
aVstatus
p541
aVvalidityPeriod
p542
aVlastUpdated
p543
aVadditionalCharacteristic
p544
aVadditionalClassification
p545
aVrelatedEntry
p546
asVMeasureReport
p547
(lp548
Vid
p549
aVmeta
p550
aVimplicitRules
p551
aVlanguage
p552
aVtext
p553
aVcontained
p554
aVextension
p555
aVmodifierExtension
p556
aVidentifier
p557
aVstatus
p558
aVtype
p559
aVmeasure
p560
aVsubject
p561
aVdate
p562
aVreporter
p563
aVperiod
p564
aVgroup
p565
aVevaluatedResources
p566
asVOrganization
p567
(lp568
Vid
p569
aVmeta
p570
aVimplicitRules
p571
aVlanguage
p572
aVtext
p573
aVcontained
p574
aVextension
p575
aVmodifierExtension
p576
aVidentifier
p577
aVactive
p578
aVtype
p579
aVname
p580
aValias
p581
aVtelecom
p582
aVaddress
p583
aVpartOf
p584
aVcontact
p585
aVendpoint
p586
asVMedicationStatement
p587
(lp588
Vid
p589
aVmeta
p590
aVimplicitRules
p591
aVlanguage
p592
aVtext
p593
aVcontained
p594
aVextension
p595
aVmodifierExtension
p596
aVidentifier
p597
aVbasedOn
p598
aVpartOf
p599
aVstatus
p600
aVstatusReason
p601
aVcategory
p602
aVmedicationCodeableConcept
p603
aVmedicationReference
p604
aVsubject
p605
aVcontext
p606
aVeffectiveDateTime
p607
aVeffectivePeriod
p608
aVdateAsserted
p609
aVinformationSource
p610
aVderivedFrom
p611
aVreasonCode
p612
aVreasonReference
p613
aVnote
p614
aVdosage
p615
asVMedicationDispense
p616
(lp617
Vid
p618
aVmeta
p619
aVimplicitRules
p620
aVlanguage
p621
aVtext
p622
aVcontained
p623
aVextension
p624
aVmodifierExtension
p625
aVidentifier
p626
aVpartOf
p627
aVstatus
p628
aVcategory
p629
aVmedicationCodeableConcept
p630
aVmedicationReference
p631
aVsubject
p632
aVcontext
p633
aVsupportingInformation
p634
aVperformer
p635
aVlocation
p636
aVauthorizingPrescription
p637
aVtype
p638
aVquantity
p639
aVdaysSupply
p640
aVwhenPrepared
p641
aVwhenHandedOver
p642
aVdestination
p643
aVreceiver
p644
aVnote
p645
aVdosageInstruction
p646
aVsubstitution
p647
aVdetectedIssue
p648
aVstatusReasonCodeableConcept
p649
aVstatusReasonReference
p650
aVeventHistory
p651
asVSupplyRequest
p652
(lp653
Vid
p654
aVmeta
p655
aVimplicitRules
p656
aVlanguage
p657
aVtext
p658
aVcontained
p659
aVextension
p660
aVmodifierExtension
p661
aVidentifier
p662
aVstatus
p663
aVcategory
p664
aVpriority
p665
aVitemCodeableConcept
p666
aVitemReference
p667
aVquantity
p668
aVparameter
p669
aVoccurrenceDateTime
p670
aVoccurrencePeriod
p671
aVoccurrenceTiming
p672
aVauthoredOn
p673
aVrequester
p674
aVsupplier
p675
aVreasonCode
p676
aVreasonReference
p677
aVdeliverFrom
p678
aVdeliverTo
p679
asVProductPlan
p680
(lp681
Vid
p682
aVmeta
p683
aVimplicitRules
p684
aVlanguage
p685
aVtext
p686
aVcontained
p687
aVextension
p688
aVmodifierExtension
p689
aVidentifier
p690
aVstatus
p691
aVtype
p692
aVname
p693
aValias
p694
aVperiod
p695
aVownedBy
p696
aVadministeredBy
p697
aVaddress
p698
aVcoverageArea
p699
aVcontact
p700
aVcoverage
p701
aVplan
p702
aVendpoint
p703
asVQuestionnaireResponse
p704
(lp705
Vid
p706
aVmeta
p707
aVimplicitRules
p708
aVlanguage
p709
aVtext
p710
aVcontained
p711
aVextension
p712
aVmodifierExtension
p713
aVidentifier
p714
aVbasedOn
p715
aVpartOf
p716
aVquestionnaire
p717
aVstatus
p718
aVsubject
p719
aVcontext
p720
aVauthored
p721
aVauthor
p722
aVsource
p723
aVitem
p724
asVMedicinalProductDeviceSpec
p725
(lp726
Vid
p727
aVmeta
p728
aVimplicitRules
p729
aVlanguage
p730
aVtext
p731
aVcontained
p732
aVextension
p733
aVmodifierExtension
p734
aVidentifier
p735
aVtype
p736
aVtradeName
p737
aVquantity
p738
aVlistingNumber
p739
aVmodelNumber
p740
aVsterilityIndicator
p741
aVsterilisationRequirement
p742
aVusage
p743
aVnomenclature
p744
aVshelfLife
p745
aVphysicalCharacteristics
p746
aVotherCharacteristics
p747
aVbatchIdentifier
p748
aVmanufacturer
p749
aVmaterial
p750
asVProcessResponse
p751
(lp752
Vid
p753
aVmeta
p754
aVimplicitRules
p755
aVlanguage
p756
aVtext
p757
aVcontained
p758
aVextension
p759
aVmodifierExtension
p760
aVidentifier
p761
aVstatus
p762
aVcreated
p763
aVorganization
p764
aVrequest
p765
aVoutcome
p766
aVdisposition
p767
aVrequestProvider
p768
aVform
p769
aVprocessNote
p770
aVerror
p771
aVcommunicationRequest
p772
asVParameters
p773
(lp774
Vid
p775
aVmeta
p776
aVimplicitRules
p777
aVlanguage
p778
aVparameter
p779
asVProvenance
p780
(lp781
Vid
p782
aVmeta
p783
aVimplicitRules
p784
aVlanguage
p785
aVtext
p786
aVcontained
p787
aVextension
p788
aVmodifierExtension
p789
aVtarget
p790
aVoccurredPeriod
p791
aVoccurredDateTime
p792
aVrecorded
p793
aVpolicy
p794
aVlocation
p795
aVreason
p796
aVactivity
p797
aVagent
p798
aVentity
p799
aVsignature
p800
asVEventDefinition
p801
(lp802
Vid
p803
aVmeta
p804
aVimplicitRules
p805
aVlanguage
p806
aVtext
p807
aVcontained
p808
aVextension
p809
aVmodifierExtension
p810
aVurl
p811
aVidentifier
p812
aVversion
p813
aVname
p814
aVtitle
p815
aVsubtitle
p816
aVstatus
p817
aVexperimental
p818
aVsubjectCodeableConcept
p819
aVsubjectReference
p820
aVdate
p821
aVpublisher
p822
aVcontact
p823
aVdescription
p824
aVuseContext
p825
aVjurisdiction
p826
aVpurpose
p827
aVusage
p828
aVcopyright
p829
aVapprovalDate
p830
aVlastReviewDate
p831
aVeffectivePeriod
p832
aVtopic
p833
aVcontributor
p834
aVrelatedArtifact
p835
aVtrigger
p836
asVSubstance
p837
(lp838
Vid
p839
aVmeta
p840
aVimplicitRules
p841
aVlanguage
p842
aVtext
p843
aVcontained
p844
aVextension
p845
aVmodifierExtension
p846
aVidentifier
p847
aVstatus
p848
aVcategory
p849
aVcode
p850
aVdescription
p851
aVinstance
p852
aVingredient
p853
asVLocation
p854
(lp855
Vid
p856
aVmeta
p857
aVimplicitRules
p858
aVlanguage
p859
aVtext
p860
aVcontained
p861
aVextension
p862
aVmodifierExtension
p863
aVidentifier
p864
aVstatus
p865
aVoperationalStatus
p866
aVname
p867
aValias
p868
aVdescription
p869
aVmode
p870
aVtype
p871
aVtelecom
p872
aVaddress
p873
aVphysicalType
p874
aVposition
p875
aVmanagingOrganization
p876
aVpartOf
p877
aVhoursOfOperation
p878
aVavailabilityExceptions
p879
aVendpoint
p880
asVCareTeam
p881
(lp882
Vid
p883
aVmeta
p884
aVimplicitRules
p885
aVlanguage
p886
aVtext
p887
aVcontained
p888
aVextension
p889
aVmodifierExtension
p890
aVidentifier
p891
aVstatus
p892
aVcategory
p893
aVname
p894
aVsubject
p895
aVcontext
p896
aVperiod
p897
aVparticipant
p898
aVreasonCode
p899
aVreasonReference
p900
aVmanagingOrganization
p901
aVtelecom
p902
aVnote
p903
asVExpansionProfile
p904
(lp905
Vid
p906
aVmeta
p907
aVimplicitRules
p908
aVlanguage
p909
aVtext
p910
aVcontained
p911
aVextension
p912
aVmodifierExtension
p913
aVurl
p914
aVidentifier
p915
aVversion
p916
aVname
p917
aVstatus
p918
aVexperimental
p919
aVdate
p920
aVpublisher
p921
aVcontact
p922
aVdescription
p923
aVuseContext
p924
aVjurisdiction
p925
aVfixedVersion
p926
aVexcludedSystem
p927
aVincludeDesignations
p928
aVdesignation
p929
aVincludeDefinition
p930
aVactiveOnly
p931
aVexcludeNested
p932
aVexcludeNotForUI
p933
aVexcludePostCoordinated
p934
aVdisplayLanguage
p935
aVlimitedExpansion
p936
asVGraphDefinition
p937
(lp938
Vid
p939
aVmeta
p940
aVimplicitRules
p941
aVlanguage
p942
aVtext
p943
aVcontained
p944
aVextension
p945
aVmodifierExtension
p946
aVurl
p947
aVversion
p948
aVname
p949
aVstatus
p950
aVexperimental
p951
aVdate
p952
aVpublisher
p953
aVcontact
p954
aVdescription
p955
aVuseContext
p956
aVjurisdiction
p957
aVpurpose
p958
aVstart
p959
aVprofile
p960
aVlink
p961
asVPatient
p962
(lp963
Vid
p964
aVmeta
p965
aVimplicitRules
p966
aVlanguage
p967
aVtext
p968
aVcontained
p969
aVextension
p970
aVmodifierExtension
p971
aVidentifier
p972
aVactive
p973
aVname
p974
aVtelecom
p975
aVgender
p976
aVbirthDate
p977
aVdeceasedBoolean
p978
aVdeceasedDateTime
p979
aVaddress
p980
aVmaritalStatus
p981
aVmultipleBirthBoolean
p982
aVmultipleBirthInteger
p983
aVphoto
p984
aVcontact
p985
aVcommunication
p986
aVgeneralPractitioner
p987
aVmanagingOrganization
p988
aVlink
p989
asVPaymentNotice
p990
(lp991
Vid
p992
aVmeta
p993
aVimplicitRules
p994
aVlanguage
p995
aVtext
p996
aVcontained
p997
aVextension
p998
aVmodifierExtension
p999
aVidentifier
p1000
aVstatus
p1001
aVrequest
p1002
aVresponse
p1003
aVstatusDate
p1004
aVcreated
p1005
aVtarget
p1006
aVprovider
p1007
aVpaymentStatus
p1008
asVClinicalImpression
p1009
(lp1010
Vid
p1011
aVmeta
p1012
aVimplicitRules
p1013
aVlanguage
p1014
aVtext
p1015
aVcontained
p1016
aVextension
p1017
aVmodifierExtension
p1018
aVidentifier
p1019
aVstatus
p1020
aVcode
p1021
aVdescription
p1022
aVsubject
p1023
aVcontext
p1024
aVeffectiveDateTime
p1025
aVeffectivePeriod
p1026
aVdate
p1027
aVassessor
p1028
aVprevious
p1029
aVproblem
p1030
aVinvestigation
p1031
aVprotocol
p1032
aVsummary
p1033
aVfinding
p1034
aVprognosisCodeableConcept
p1035
aVprognosisReference
p1036
aVaction
p1037
aVnote
p1038
asVMedicinalProductClinicals
p1039
(lp1040
Vid
p1041
aVmeta
p1042
aVimplicitRules
p1043
aVlanguage
p1044
aVtext
p1045
aVcontained
p1046
aVextension
p1047
aVmodifierExtension
p1048
aVundesirableEffects
p1049
aVtherapeuticIndication
p1050
aVcontraindication
p1051
aVinteractions
p1052
asVFlag
p1053
(lp1054
Vid
p1055
aVmeta
p1056
aVimplicitRules
p1057
aVlanguage
p1058
aVtext
p1059
aVcontained
p1060
aVextension
p1061
aVmodifierExtension
p1062
aVidentifier
p1063
aVstatus
p1064
aVcategory
p1065
aVcode
p1066
aVsubject
p1067
aVperiod
p1068
aVencounter
p1069
aVauthor
p1070
asVExplanationOfBenefit
p1071
(lp1072
Vid
p1073
aVmeta
p1074
aVimplicitRules
p1075
aVlanguage
p1076
aVtext
p1077
aVcontained
p1078
aVextension
p1079
aVmodifierExtension
p1080
aVidentifier
p1081
aVstatus
p1082
aVtype
p1083
aVsubType
p1084
aVuse
p1085
aVpatient
p1086
aVbillablePeriod
p1087
aVcreated
p1088
aVenterer
p1089
aVinsurer
p1090
aVprovider
p1091
aVreferral
p1092
aVfacility
p1093
aVclaim
p1094
aVclaimResponse
p1095
aVoutcome
p1096
aVdisposition
p1097
aVrelated
p1098
aVprescription
p1099
aVoriginalPrescription
p1100
aVpayee
p1101
aVinformation
p1102
aVcareTeam
p1103
aVdiagnosis
p1104
aVprocedure
p1105
aVprecedence
p1106
aVinsurance
p1107
aVaccident
p1108
aVitem
p1109
aVaddItem
p1110
aVtotal
p1111
aVpayment
p1112
aVform
p1113
aVprocessNote
p1114
aVbenefitBalance
p1115
asVMedicinalProductPharmaceutical
p1116
(lp1117
Vid
p1118
aVmeta
p1119
aVimplicitRules
p1120
aVlanguage
p1121
aVtext
p1122
aVcontained
p1123
aVextension
p1124
aVmodifierExtension
p1125
aVidentifier
p1126
aVadministrableDoseForm
p1127
aVunitOfPresentation
p1128
aVrouteOfAdministration
p1129
aVingredient
p1130
aVdevice
p1131
aVcharacteristics
p1132
asVLinkage
p1133
(lp1134
Vid
p1135
aVmeta
p1136
aVimplicitRules
p1137
aVlanguage
p1138
aVtext
p1139
aVcontained
p1140
aVextension
p1141
aVmodifierExtension
p1142
aVactive
p1143
aVauthor
p1144
aVitem
p1145
asVSubscription
p1146
(lp1147
Vid
p1148
aVmeta
p1149
aVimplicitRules
p1150
aVlanguage
p1151
aVtext
p1152
aVcontained
p1153
aVextension
p1154
aVmodifierExtension
p1155
aVstatus
p1156
aVcontact
p1157
aVend
p1158
aVreason
p1159
aVcriteria
p1160
aVerror
p1161
aVchannel
p1162
aVtag
p1163
asVMedicationAdministration
p1164
(lp1165
Vid
p1166
aVmeta
p1167
aVimplicitRules
p1168
aVlanguage
p1169
aVtext
p1170
aVcontained
p1171
aVextension
p1172
aVmodifierExtension
p1173
aVidentifier
p1174
aVinstantiates
p1175
aVpartOf
p1176
aVstatus
p1177
aVcategory
p1178
aVmedicationCodeableConcept
p1179
aVmedicationReference
p1180
aVsubject
p1181
aVcontext
p1182
aVsupportingInformation
p1183
aVeffectiveDateTime
p1184
aVeffectivePeriod
p1185
aVperformer
p1186
aVstatusReason
p1187
aVreasonCode
p1188
aVreasonReference
p1189
aVrequest
p1190
aVdevice
p1191
aVnote
p1192
aVdosage
p1193
aVeventHistory
p1194
asVVerificationResult
p1195
(lp1196
Vid
p1197
aVmeta
p1198
aVimplicitRules
p1199
aVlanguage
p1200
aVtext
p1201
aVcontained
p1202
aVextension
p1203
aVmodifierExtension
p1204
aVtarget
p1205
aVtargetLocation
p1206
aVneed
p1207
aVstatus
p1208
aVstatusDate
p1209
aVvalidationType
p1210
aVvalidationProcess
p1211
aVfrequency
p1212
aVlastPerformed
p1213
aVnextScheduled
p1214
aVfailureAction
p1215
aVprimarySource
p1216
aVattestation
p1217
aVvalidator
p1218
asVObservation
p1219
(lp1220
Vid
p1221
aVmeta
p1222
aVimplicitRules
p1223
aVlanguage
p1224
aVtext
p1225
aVcontained
p1226
aVextension
p1227
aVmodifierExtension
p1228
aVidentifier
p1229
aVbasedOn
p1230
aVpartOf
p1231
aVstatus
p1232
aVcategory
p1233
aVcode
p1234
aVsubject
p1235
aVfocus
p1236
aVcontext
p1237
aVeffectiveDateTime
p1238
aVeffectivePeriod
p1239
aVeffectiveTiming
p1240
aVissued
p1241
aVperformer
p1242
aVvalueQuantity
p1243
aVvalueCodeableConcept
p1244
aVvalueString
p1245
aVvalueBoolean
p1246
aVvalueInteger
p1247
aVvalueRange
p1248
aVvalueRatio
p1249
aVvalueSampledData
p1250
aVvalueTime
p1251
aVvalueDateTime
p1252
aVvaluePeriod
p1253
aVdataAbsentReason
p1254
aVinterpretation
p1255
aVcomment
p1256
aVbodySite
p1257
aVmethod
p1258
aVspecimen
p1259
aVdevice
p1260
aVreferenceRange
p1261
aVhasMember
p1262
aVderivedFrom
p1263
aVcomponent
p1264
asVSpecimenDefinition
p1265
(lp1266
Vid
p1267
aVmeta
p1268
aVimplicitRules
p1269
aVlanguage
p1270
aVtext
p1271
aVcontained
p1272
aVextension
p1273
aVmodifierExtension
p1274
aVidentifier
p1275
aVtypeCollected
p1276
aVpatientPreparation
p1277
aVtimeAspect
p1278
aVcollection
p1279
aVspecimenToLab
p1280
asVPaymentReconciliation
p1281
(lp1282
Vid
p1283
aVmeta
p1284
aVimplicitRules
p1285
aVlanguage
p1286
aVtext
p1287
aVcontained
p1288
aVextension
p1289
aVmodifierExtension
p1290
aVidentifier
p1291
aVstatus
p1292
aVperiod
p1293
aVcreated
p1294
aVorganization
p1295
aVrequest
p1296
aVoutcome
p1297
aVdisposition
p1298
aVrequestProvider
p1299
aVdetail
p1300
aVform
p1301
aVtotal
p1302
aVprocessNote
p1303
asVStructureMap
p1304
(lp1305
Vid
p1306
aVmeta
p1307
aVimplicitRules
p1308
aVlanguage
p1309
aVtext
p1310
aVcontained
p1311
aVextension
p1312
aVmodifierExtension
p1313
aVurl
p1314
aVidentifier
p1315
aVversion
p1316
aVname
p1317
aVtitle
p1318
aVstatus
p1319
aVexperimental
p1320
aVdate
p1321
aVpublisher
p1322
aVcontact
p1323
aVdescription
p1324
aVuseContext
p1325
aVjurisdiction
p1326
aVpurpose
p1327
aVcopyright
p1328
aVstructure
p1329
aVimport
p1330
aVgroup
p1331
asVTestScript
p1332
(lp1333
Vid
p1334
aVmeta
p1335
aVimplicitRules
p1336
aVlanguage
p1337
aVtext
p1338
aVcontained
p1339
aVextension
p1340
aVmodifierExtension
p1341
aVurl
p1342
aVidentifier
p1343
aVversion
p1344
aVname
p1345
aVtitle
p1346
aVstatus
p1347
aVexperimental
p1348
aVdate
p1349
aVpublisher
p1350
aVcontact
p1351
aVdescription
p1352
aVuseContext
p1353
aVjurisdiction
p1354
aVpurpose
p1355
aVcopyright
p1356
aVorigin
p1357
aVdestination
p1358
aVmetadata
p1359
aVfixture
p1360
aVprofile
p1361
aVvariable
p1362
aVrule
p1363
aVruleset
p1364
aVsetup
p1365
aVtest
p1366
aVteardown
p1367
asVImmunization
p1368
(lp1369
Vid
p1370
aVmeta
p1371
aVimplicitRules
p1372
aVlanguage
p1373
aVtext
p1374
aVcontained
p1375
aVextension
p1376
aVmodifierExtension
p1377
aVidentifier
p1378
aVstatus
p1379
aVstatusReason
p1380
aVvaccineCode
p1381
aVpatient
p1382
aVencounter
p1383
aVdate
p1384
aVprimarySource
p1385
aVreportOrigin
p1386
aVlocation
p1387
aVmanufacturer
p1388
aVlotNumber
p1389
aVexpirationDate
p1390
aVsite
p1391
aVroute
p1392
aVdoseQuantity
p1393
aVperformer
p1394
aVnote
p1395
aVreasonCode
p1396
aVreasonReference
p1397
aVisPotent
p1398
aVsubpotentReason
p1399
aVeducation
p1400
aVprogramEligibility
p1401
aVfundingSource
p1402
asVCommunicationRequest
p1403
(lp1404
Vid
p1405
aVmeta
p1406
aVimplicitRules
p1407
aVlanguage
p1408
aVtext
p1409
aVcontained
p1410
aVextension
p1411
aVmodifierExtension
p1412
aVidentifier
p1413
aVbasedOn
p1414
aVreplaces
p1415
aVgroupIdentifier
p1416
aVstatus
p1417
aVcategory
p1418
aVpriority
p1419
aVmedium
p1420
aVsubject
p1421
aVrecipient
p1422
aVabout
p1423
aVcontext
p1424
aVpayload
p1425
aVoccurrenceDateTime
p1426
aVoccurrencePeriod
p1427
aVauthoredOn
p1428
aVrequester
p1429
aVsender
p1430
aVreasonCode
p1431
aVreasonReference
p1432
aVnote
p1433
asVRequestGroup
p1434
(lp1435
Vid
p1436
aVmeta
p1437
aVimplicitRules
p1438
aVlanguage
p1439
aVtext
p1440
aVcontained
p1441
aVextension
p1442
aVmodifierExtension
p1443
aVidentifier
p1444
aVinstantiatesCanonical
p1445
aVinstantiatesUri
p1446
aVbasedOn
p1447
aVreplaces
p1448
aVgroupIdentifier
p1449
aVstatus
p1450
aVintent
p1451
aVpriority
p1452
aVcode
p1453
aVsubject
p1454
aVcontext
p1455
aVauthoredOn
p1456
aVauthor
p1457
aVreasonCode
p1458
aVreasonReference
p1459
aVnote
p1460
aVaction
p1461
asVSequence
p1462
(lp1463
Vid
p1464
aVmeta
p1465
aVimplicitRules
p1466
aVlanguage
p1467
aVtext
p1468
aVcontained
p1469
aVextension
p1470
aVmodifierExtension
p1471
aVidentifier
p1472
aVtype
p1473
aVcoordinateSystem
p1474
aVpatient
p1475
aVspecimen
p1476
aVdevice
p1477
aVperformer
p1478
aVquantity
p1479
aVreferenceSeq
p1480
aVvariant
p1481
aVobservedSeq
p1482
aVquality
p1483
aVreadCoverage
p1484
aVrepository
p1485
aVpointer
p1486
aVstructureVariant
p1487
asVValueSet
p1488
(lp1489
Vid
p1490
aVmeta
p1491
aVimplicitRules
p1492
aVlanguage
p1493
aVtext
p1494
aVcontained
p1495
aVextension
p1496
aVmodifierExtension
p1497
aVurl
p1498
aVidentifier
p1499
aVversion
p1500
aVname
p1501
aVtitle
p1502
aVstatus
p1503
aVexperimental
p1504
aVdate
p1505
aVpublisher
p1506
aVcontact
p1507
aVdescription
p1508
aVuseContext
p1509
aVjurisdiction
p1510
aVimmutable
p1511
aVpurpose
p1512
aVcopyright
p1513
aVextensible
p1514
aVcompose
p1515
aVexpansion
p1516
asVMedication
p1517
(lp1518
Vid
p1519
aVmeta
p1520
aVimplicitRules
p1521
aVlanguage
p1522
aVtext
p1523
aVcontained
p1524
aVextension
p1525
aVmodifierExtension
p1526
aVcode
p1527
aVstatus
p1528
aVmanufacturer
p1529
aVform
p1530
aVamount
p1531
aVingredient
p1532
aVbatch
p1533
asVAdverseEvent
p1534
(lp1535
Vid
p1536
aVmeta
p1537
aVimplicitRules
p1538
aVlanguage
p1539
aVtext
p1540
aVcontained
p1541
aVextension
p1542
aVmodifierExtension
p1543
aVidentifier
p1544
aVactuality
p1545
aVcategory
p1546
aVevent
p1547
aVsubject
p1548
aVcontext
p1549
aVdate
p1550
aVresultingCondition
p1551
aVlocation
p1552
aVseriousness
p1553
aVseverity
p1554
aVoutcome
p1555
aVrecorder
p1556
aVcontributor
p1557
aVsuspectEntity
p1558
aVsubjectMedicalHistory
p1559
aVreferenceDocument
p1560
aVstudy
p1561
asVPractitionerRole
p1562
(lp1563
Vid
p1564
aVmeta
p1565
aVimplicitRules
p1566
aVlanguage
p1567
aVtext
p1568
aVcontained
p1569
aVextension
p1570
aVmodifierExtension
p1571
aVidentifier
p1572
aVactive
p1573
aVperiod
p1574
aVpractitioner
p1575
aVorganization
p1576
aVcode
p1577
aVspecialty
p1578
aVlocation
p1579
aVhealthcareService
p1580
aVtelecom
p1581
aVavailableTime
p1582
aVnotAvailable
p1583
aVavailabilityExceptions
p1584
aVendpoint
p1585
asVCommunication
p1586
(lp1587
Vid
p1588
aVmeta
p1589
aVimplicitRules
p1590
aVlanguage
p1591
aVtext
p1592
aVcontained
p1593
aVextension
p1594
aVmodifierExtension
p1595
aVidentifier
p1596
aVinstantiates
p1597
aVbasedOn
p1598
aVpartOf
p1599
aVinResponseTo
p1600
aVstatus
p1601
aVstatusReason
p1602
aVcategory
p1603
aVpriority
p1604
aVmedium
p1605
aVsubject
p1606
aVrecipient
p1607
aVtopic
p1608
aVabout
p1609
aVcontext
p1610
aVsent
p1611
aVreceived
p1612
aVsender
p1613
aVreasonCode
p1614
aVreasonReference
p1615
aVpayload
p1616
aVnote
p1617
asVCapabilityStatement
p1618
(lp1619
Vid
p1620
aVmeta
p1621
aVimplicitRules
p1622
aVlanguage
p1623
aVtext
p1624
aVcontained
p1625
aVextension
p1626
aVmodifierExtension
p1627
aVurl
p1628
aVversion
p1629
aVname
p1630
aVtitle
p1631
aVstatus
p1632
aVexperimental
p1633
aVdate
p1634
aVpublisher
p1635
aVcontact
p1636
aVdescription
p1637
aVuseContext
p1638
aVjurisdiction
p1639
aVpurpose
p1640
aVcopyright
p1641
aVkind
p1642
aVinstantiates
p1643
aVsoftware
p1644
aVimplementation
p1645
aVfhirVersion
p1646
aVformat
p1647
aVpatchFormat
p1648
aVimplementationGuide
p1649
aVrest
p1650
aVmessaging
p1651
aVdocument
p1652
asVProcessRequest
p1653
(lp1654
Vid
p1655
aVmeta
p1656
aVimplicitRules
p1657
aVlanguage
p1658
aVtext
p1659
aVcontained
p1660
aVextension
p1661
aVmodifierExtension
p1662
aVidentifier
p1663
aVstatus
p1664
aVaction
p1665
aVtarget
p1666
aVcreated
p1667
aVprovider
p1668
aVrequest
p1669
aVresponse
p1670
aVnullify
p1671
aVreference
p1672
aVitem
p1673
aVinclude
p1674
aVexclude
p1675
aVperiod
p1676
asVSubstancePolymer
p1677
(lp1678
Vid
p1679
aVmeta
p1680
aVimplicitRules
p1681
aVlanguage
p1682
aVtext
p1683
aVcontained
p1684
aVextension
p1685
aVmodifierExtension
p1686
aVclass
p1687
aVgeometry
p1688
aVcopolymerConnectivity
p1689
aVmodification
p1690
aVmonomerSet
p1691
aVrepeat
p1692
asVFamilyMemberHistory
p1693
(lp1694
Vid
p1695
aVmeta
p1696
aVimplicitRules
p1697
aVlanguage
p1698
aVtext
p1699
aVcontained
p1700
aVextension
p1701
aVmodifierExtension
p1702
aVidentifier
p1703
aVinstantiates
p1704
aVstatus
p1705
aVdataAbsentReason
p1706
aVpatient
p1707
aVdate
p1708
aVname
p1709
aVrelationship
p1710
aVgender
p1711
aVbornPeriod
p1712
aVbornDate
p1713
aVbornString
p1714
aVageAge
p1715
aVageRange
p1716
aVageString
p1717
aVestimatedAge
p1718
aVdeceasedBoolean
p1719
aVdeceasedAge
p1720
aVdeceasedRange
p1721
aVdeceasedDate
p1722
aVdeceasedString
p1723
aVreasonCode
p1724
aVreasonReference
p1725
aVnote
p1726
aVcondition
p1727
asVOccupationalData
p1728
(lp1729
Vid
p1730
aVmeta
p1731
aVimplicitRules
p1732
aVlanguage
p1733
aVtext
p1734
aVcontained
p1735
aVextension
p1736
aVmodifierExtension
p1737
aVidentifier
p1738
aVstatus
p1739
aVsubject
p1740
aVdate
p1741
aVrecorder
p1742
aVinformant
p1743
aVemploymentStatus
p1744
aVretirementDate
p1745
aVcombatZonePeriod
p1746
aVusualWork
p1747
aVpastOrPresentJob
p1748
asVUserSession
p1749
(lp1750
Vid
p1751
aVmeta
p1752
aVimplicitRules
p1753
aVlanguage
p1754
aVtext
p1755
aVcontained
p1756
aVextension
p1757
aVmodifierExtension
p1758
aVidentifier
p1759
aVuser
p1760
aVstatus
p1761
aVworkstation
p1762
aVfocus
p1763
aVcreated
p1764
aVexpires
p1765
aVcontext
p1766
asVSubstanceSpecification
p1767
(lp1768
Vid
p1769
aVmeta
p1770
aVimplicitRules
p1771
aVlanguage
p1772
aVtext
p1773
aVcontained
p1774
aVextension
p1775
aVmodifierExtension
p1776
aVcomment
p1777
aVstoichiometric
p1778
aVidentifier
p1779
aVtype
p1780
aVreferenceSource
p1781
aVmoiety
p1782
aVproperty
p1783
aVreferenceInformation
p1784
aVstructure
p1785
aVsubstanceCode
p1786
aVsubstanceName
p1787
aVmolecularWeight
p1788
aVpolymer
p1789
asVBinary
p1790
(lp1791
Vid
p1792
aVmeta
p1793
aVimplicitRules
p1794
aVlanguage
p1795
aVcontentType
p1796
aVsecurityContext
p1797
aVcontent
p1798
asVGroup
p1799
(lp1800
Vid
p1801
aVmeta
p1802
aVimplicitRules
p1803
aVlanguage
p1804
aVtext
p1805
aVcontained
p1806
aVextension
p1807
aVmodifierExtension
p1808
aVidentifier
p1809
aVactive
p1810
aVtype
p1811
aVactual
p1812
aVcode
p1813
aVname
p1814
aVquantity
p1815
aVcharacteristic
p1816
aVmember
p1817
asVRiskAssessment
p1818
(lp1819
Vid
p1820
aVmeta
p1821
aVimplicitRules
p1822
aVlanguage
p1823
aVtext
p1824
aVcontained
p1825
aVextension
p1826
aVmodifierExtension
p1827
aVidentifier
p1828
aVbasedOn
p1829
aVparent
p1830
aVstatus
p1831
aVmethod
p1832
aVcode
p1833
aVsubject
p1834
aVcontext
p1835
aVoccurrenceDateTime
p1836
aVoccurrencePeriod
p1837
aVcondition
p1838
aVperformer
p1839
aVreasonCode
p1840
aVreasonReference
p1841
aVbasis
p1842
aVprediction
p1843
aVmitigation
p1844
aVnote
p1845
asVOrganizationRole
p1846
(lp1847
Vid
p1848
aVmeta
p1849
aVimplicitRules
p1850
aVlanguage
p1851
aVtext
p1852
aVcontained
p1853
aVextension
p1854
aVmodifierExtension
p1855
aVidentifier
p1856
aVactive
p1857
aVperiod
p1858
aVorganization
p1859
aVparticipatingOrganization
p1860
aVnetwork
p1861
aVcode
p1862
aVspecialty
p1863
aVlocation
p1864
aVhealthcareService
p1865
aVtelecom
p1866
aVavailableTime
p1867
aVnotAvailable
p1868
aVavailabilityExceptions
p1869
aVendpoint
p1870
asVImagingStudy
p1871
(lp1872
Vid
p1873
aVmeta
p1874
aVimplicitRules
p1875
aVlanguage
p1876
aVtext
p1877
aVcontained
p1878
aVextension
p1879
aVmodifierExtension
p1880
aVidentifier
p1881
aVstatus
p1882
aVmodality
p1883
aVsubject
p1884
aVcontext
p1885
aVstarted
p1886
aVbasedOn
p1887
aVreferrer
p1888
aVinterpreter
p1889
aVendpoint
p1890
aVnumberOfSeries
p1891
aVnumberOfInstances
p1892
aVprocedureReference
p1893
aVprocedureCode
p1894
aVlocation
p1895
aVreasonCode
p1896
aVreasonReference
p1897
aVnote
p1898
aVseries
p1899
asVDeviceRequest
p1900
(lp1901
Vid
p1902
aVmeta
p1903
aVimplicitRules
p1904
aVlanguage
p1905
aVtext
p1906
aVcontained
p1907
aVextension
p1908
aVmodifierExtension
p1909
aVidentifier
p1910
aVinstantiates
p1911
aVbasedOn
p1912
aVpriorRequest
p1913
aVgroupIdentifier
p1914
aVstatus
p1915
aVintent
p1916
aVpriority
p1917
aVcodeReference
p1918
aVcodeCodeableConcept
p1919
aVparameter
p1920
aVsubject
p1921
aVcontext
p1922
aVoccurrenceDateTime
p1923
aVoccurrencePeriod
p1924
aVoccurrenceTiming
p1925
aVauthoredOn
p1926
aVrequester
p1927
aVperformerType
p1928
aVperformer
p1929
aVreasonCode
p1930
aVreasonReference
p1931
aVinsurance
p1932
aVsupportingInfo
p1933
aVnote
p1934
aVrelevantHistory
p1935
asVGuidanceResponse
p1936
(lp1937
Vid
p1938
aVmeta
p1939
aVimplicitRules
p1940
aVlanguage
p1941
aVtext
p1942
aVcontained
p1943
aVextension
p1944
aVmodifierExtension
p1945
aVrequestId
p1946
aVidentifier
p1947
aVmoduleUri
p1948
aVmoduleCanonical
p1949
aVmoduleCodeableConcept
p1950
aVstatus
p1951
aVsubject
p1952
aVcontext
p1953
aVoccurrenceDateTime
p1954
aVperformer
p1955
aVreasonCode
p1956
aVreasonReference
p1957
aVnote
p1958
aVevaluationMessage
p1959
aVoutputParameters
p1960
aVresult
p1961
aVdataRequirement
p1962
asVBasic
p1963
(lp1964
Vid
p1965
aVmeta
p1966
aVimplicitRules
p1967
aVlanguage
p1968
aVtext
p1969
aVcontained
p1970
aVextension
p1971
aVmodifierExtension
p1972
aVidentifier
p1973
aVcode
p1974
aVsubject
p1975
aVcreated
p1976
aVauthor
p1977
asVBiologicallyDerivedProduct
p1978
(lp1979
Vid
p1980
aVmeta
p1981
aVimplicitRules
p1982
aVlanguage
p1983
aVtext
p1984
aVcontained
p1985
aVextension
p1986
aVmodifierExtension
p1987
aVidentifier
p1988
aVproductCategory
p1989
aVproductCode
p1990
aVstatus
p1991
aVrequest
p1992
aVquantity
p1993
aVparent
p1994
aVcollection
p1995
aVprocessing
p1996
aVmanipulation
p1997
aVstorage
p1998
asVNutritionOrder
p1999
(lp2000
Vid
p2001
aVmeta
p2002
aVimplicitRules
p2003
aVlanguage
p2004
aVtext
p2005
aVcontained
p2006
aVextension
p2007
aVmodifierExtension
p2008
aVidentifier
p2009
aVinstantiates
p2010
aVstatus
p2011
aVintent
p2012
aVpatient
p2013
aVcontext
p2014
aVdateTime
p2015
aVorderer
p2016
aVallergyIntolerance
p2017
aVfoodPreferenceModifier
p2018
aVexcludeFoodModifier
p2019
aVoralDiet
p2020
aVsupplement
p2021
aVenteralFormula
p2022
aVnote
p2023
asVAppointment
p2024
(lp2025
Vid
p2026
aVmeta
p2027
aVimplicitRules
p2028
aVlanguage
p2029
aVtext
p2030
aVcontained
p2031
aVextension
p2032
aVmodifierExtension
p2033
aVidentifier
p2034
aVstatus
p2035
aVserviceCategory
p2036
aVserviceType
p2037
aVspecialty
p2038
aVappointmentType
p2039
aVreason
p2040
aVindication
p2041
aVpriority
p2042
aVdescription
p2043
aVsupportingInformation
p2044
aVstart
p2045
aVend
p2046
aVminutesDuration
p2047
aVslot
p2048
aVcreated
p2049
aVcomment
p2050
aVpatientInstruction
p2051
aVbasedOn
p2052
aVparticipant
p2053
aVrequestedPeriod
p2054
asVOperationOutcome
p2055
(lp2056
Vid
p2057
aVmeta
p2058
aVimplicitRules
p2059
aVlanguage
p2060
aVtext
p2061
aVcontained
p2062
aVextension
p2063
aVmodifierExtension
p2064
aVissue
p2065
asVBundle
p2066
(lp2067
Vid
p2068
aVmeta
p2069
aVimplicitRules
p2070
aVlanguage
p2071
aVidentifier
p2072
aVtype
p2073
aVtimestamp
p2074
aVtotal
p2075
aVlink
p2076
aVentry
p2077
aVsignature
p2078
asVSubstanceReferenceInformation
p2079
(lp2080
Vid
p2081
aVmeta
p2082
aVimplicitRules
p2083
aVlanguage
p2084
aVtext
p2085
aVcontained
p2086
aVextension
p2087
aVmodifierExtension
p2088
aVcomment
p2089
aVgene
p2090
aVgeneElement
p2091
aVclassification
p2092
aVrelationship
p2093
aVtarget
p2094
asVCoverage
p2095
(lp2096
Vid
p2097
aVmeta
p2098
aVimplicitRules
p2099
aVlanguage
p2100
aVtext
p2101
aVcontained
p2102
aVextension
p2103
aVmodifierExtension
p2104
aVidentifier
p2105
aVstatus
p2106
aVtype
p2107
aVpolicyHolder
p2108
aVsubscriber
p2109
aVsubscriberId
p2110
aVbeneficiary
p2111
aVdependent
p2112
aVrelationship
p2113
aVperiod
p2114
aVpayor
p2115
aVclass
p2116
aVorder
p2117
aVnetwork
p2118
aVcopay
p2119
aVcontract
p2120
asVMedicinalProductPackaged
p2121
(lp2122
Vid
p2123
aVmeta
p2124
aVimplicitRules
p2125
aVlanguage
p2126
aVtext
p2127
aVcontained
p2128
aVextension
p2129
aVmodifierExtension
p2130
aVidentifier
p2131
aVdescription
p2132
aVmarketingStatus
p2133
aVbatchIdentifier
p2134
aVpackageItem
p2135
asVDevice
p2136
(lp2137
Vid
p2138
aVmeta
p2139
aVimplicitRules
p2140
aVlanguage
p2141
aVtext
p2142
aVcontained
p2143
aVextension
p2144
aVmodifierExtension
p2145
aVidentifier
p2146
aVudi
p2147
aVstatus
p2148
aVtype
p2149
aVlotNumber
p2150
aVmanufacturer
p2151
aVmanufactureDate
p2152
aVexpirationDate
p2153
aVmodel
p2154
aVversion
p2155
aVpatient
p2156
aVowner
p2157
aVcontact
p2158
aVlocation
p2159
aVurl
p2160
aVnote
p2161
aVsafety
p2162
asVCondition
p2163
(lp2164
Vid
p2165
aVmeta
p2166
aVimplicitRules
p2167
aVlanguage
p2168
aVtext
p2169
aVcontained
p2170
aVextension
p2171
aVmodifierExtension
p2172
aVidentifier
p2173
aVclinicalStatus
p2174
aVverificationStatus
p2175
aVcategory
p2176
aVseverity
p2177
aVcode
p2178
aVbodySite
p2179
aVsubject
p2180
aVcontext
p2181
aVonsetDateTime
p2182
aVonsetAge
p2183
aVonsetPeriod
p2184
aVonsetRange
p2185
aVonsetString
p2186
aVabatementDateTime
p2187
aVabatementAge
p2188
aVabatementPeriod
p2189
aVabatementRange
p2190
aVabatementString
p2191
aVassertedDate
p2192
aVrecorder
p2193
aVasserter
p2194
aVstage
p2195
aVevidence
p2196
aVnote
p2197
asVMedicinalProduct
p2198
(lp2199
Vid
p2200
aVmeta
p2201
aVimplicitRules
p2202
aVlanguage
p2203
aVtext
p2204
aVcontained
p2205
aVextension
p2206
aVmodifierExtension
p2207
aVidentifier
p2208
aVtype
p2209
aVcombinedPharmaceuticalDoseForm
p2210
aVadditionalMonitoringIndicator
p2211
aVspecialMeasures
p2212
aVpaediatricUseIndicator
p2213
aVorphanDesignationStatus
p2214
aVproductClassification
p2215
aVmarketingAuthorization
p2216
aVpackagedMedicinalProduct
p2217
aVpharmaceuticalProduct
p2218
aVclinicalParticulars
p2219
aVattachedDocument
p2220
aVmasterFile
p2221
aVname
p2222
aVcrossReference
p2223
aVmanufacturingBusinessOperation
p2224
asVDeviceUseStatement
p2225
(lp2226
Vid
p2227
aVmeta
p2228
aVimplicitRules
p2229
aVlanguage
p2230
aVtext
p2231
aVcontained
p2232
aVextension
p2233
aVmodifierExtension
p2234
aVidentifier
p2235
aVbasedOn
p2236
aVstatus
p2237
aVsubject
p2238
aVderivedFrom
p2239
aVtimingTiming
p2240
aVtimingPeriod
p2241
aVtimingDateTime
p2242
aVrecordedOn
p2243
aVsource
p2244
aVdevice
p2245
aVreasonCode
p2246
aVreasonReference
p2247
aVbodySite
p2248
aVnote
p2249
asVDetectedIssue
p2250
(lp2251
Vid
p2252
aVmeta
p2253
aVimplicitRules
p2254
aVlanguage
p2255
aVtext
p2256
aVcontained
p2257
aVextension
p2258
aVmodifierExtension
p2259
aVidentifier
p2260
aVstatus
p2261
aVcategory
p2262
aVseverity
p2263
aVpatient
p2264
aVdate
p2265
aVauthor
p2266
aVimplicated
p2267
aVdetail
p2268
aVreference
p2269
aVmitigation
p2270
asVChargeItem
p2271
(lp2272
Vid
p2273
aVmeta
p2274
aVimplicitRules
p2275
aVlanguage
p2276
aVtext
p2277
aVcontained
p2278
aVextension
p2279
aVmodifierExtension
p2280
aVidentifier
p2281
aVdefinition
p2282
aVstatus
p2283
aVpartOf
p2284
aVcode
p2285
aVsubject
p2286
aVcontext
p2287
aVoccurrenceDateTime
p2288
aVoccurrencePeriod
p2289
aVoccurrenceTiming
p2290
aVparticipant
p2291
aVperformingOrganization
p2292
aVrequestingOrganization
p2293
aVcostCenter
p2294
aVquantity
p2295
aVbodysite
p2296
aVfactorOverride
p2297
aVpriceOverride
p2298
aVoverrideReason
p2299
aVenterer
p2300
aVenteredDate
p2301
aVreason
p2302
aVservice
p2303
aVaccount
p2304
aVnote
p2305
aVsupportingInformation
p2306
asVContract
p2307
(lp2308
Vid
p2309
aVmeta
p2310
aVimplicitRules
p2311
aVlanguage
p2312
aVtext
p2313
aVcontained
p2314
aVextension
p2315
aVmodifierExtension
p2316
aVidentifier
p2317
aVstatus
p2318
aVcontentDerivative
p2319
aVissued
p2320
aVapplies
p2321
aVsubject
p2322
aVauthority
p2323
aVdomain
p2324
aVtype
p2325
aVsubType
p2326
aVterm
p2327
aVsigner
p2328
aVfriendly
p2329
aVlegal
p2330
aVrule
p2331
aVlegallyBindingAttachment
p2332
aVlegallyBindingReference
p2333
asVEligibilityRequest
p2334
(lp2335
Vid
p2336
aVmeta
p2337
aVimplicitRules
p2338
aVlanguage
p2339
aVtext
p2340
aVcontained
p2341
aVextension
p2342
aVmodifierExtension
p2343
aVidentifier
p2344
aVstatus
p2345
aVpriority
p2346
aVpatient
p2347
aVservicedDate
p2348
aVservicedPeriod
p2349
aVcreated
p2350
aVenterer
p2351
aVprovider
p2352
aVinsurer
p2353
aVfacility
p2354
aVcoverage
p2355
aVbusinessArrangement
p2356
aVbenefitCategory
p2357
aVbenefitSubCategory
p2358
aVauthorization
p2359
asVDocumentReference
p2360
(lp2361
Vid
p2362
aVmeta
p2363
aVimplicitRules
p2364
aVlanguage
p2365
aVtext
p2366
aVcontained
p2367
aVextension
p2368
aVmodifierExtension
p2369
aVmasterIdentifier
p2370
aVidentifier
p2371
aVstatus
p2372
aVdocStatus
p2373
aVtype
p2374
aVclass
p2375
aVsubject
p2376
aVcreated
p2377
aVdate
p2378
aVagent
p2379
aVauthenticator
p2380
aVcustodian
p2381
aVrelatesTo
p2382
aVdescription
p2383
aVsecurityLabel
p2384
aVcontent
p2385
aVcontext
p2386
asVDeviceComponent
p2387
(lp2388
Vid
p2389
aVmeta
p2390
aVimplicitRules
p2391
aVlanguage
p2392
aVtext
p2393
aVcontained
p2394
aVextension
p2395
aVmodifierExtension
p2396
aVidentifier
p2397
aVtype
p2398
aVlastSystemChange
p2399
aVsource
p2400
aVparent
p2401
aVoperationalStatus
p2402
aVparameterGroup
p2403
aVmeasurementPrinciple
p2404
aVproductionSpecification
p2405
aVlanguageCode
p2406
aVproperty
p2407
asVProcedure
p2408
(lp2409
Vid
p2410
aVmeta
p2411
aVimplicitRules
p2412
aVlanguage
p2413
aVtext
p2414
aVcontained
p2415
aVextension
p2416
aVmodifierExtension
p2417
aVidentifier
p2418
aVinstantiates
p2419
aVbasedOn
p2420
aVpartOf
p2421
aVstatus
p2422
aVstatusReason
p2423
aVcategory
p2424
aVcode
p2425
aVsubject
p2426
aVcontext
p2427
aVperformedDateTime
p2428
aVperformedPeriod
p2429
aVperformedString
p2430
aVperformedAge
p2431
aVperformedRange
p2432
aVrecorder
p2433
aVasserter
p2434
aVperformer
p2435
aVlocation
p2436
aVreasonCode
p2437
aVreasonReference
p2438
aVbodySite
p2439
aVoutcome
p2440
aVreport
p2441
aVcomplication
p2442
aVcomplicationDetail
p2443
aVfollowUp
p2444
aVnote
p2445
aVfocalDevice
p2446
aVusedReference
p2447
aVusedCode
p2448
asVClaim
p2449
(lp2450
Vid
p2451
aVmeta
p2452
aVimplicitRules
p2453
aVlanguage
p2454
aVtext
p2455
aVcontained
p2456
aVextension
p2457
aVmodifierExtension
p2458
aVidentifier
p2459
aVstatus
p2460
aVtype
p2461
aVsubType
p2462
aVuse
p2463
aVpatient
p2464
aVbillablePeriod
p2465
aVcreated
p2466
aVenterer
p2467
aVinsurer
p2468
aVprovider
p2469
aVpriority
p2470
aVfundsReserve
p2471
aVrelated
p2472
aVprescription
p2473
aVoriginalPrescription
p2474
aVpayee
p2475
aVreferral
p2476
aVfacility
p2477
aVcareTeam
p2478
aVinformation
p2479
aVdiagnosis
p2480
aVprocedure
p2481
aVinsurance
p2482
aVaccident
p2483
aVitem
p2484
aVtotal
p2485
asVOperationDefinition
p2486
(lp2487
Vid
p2488
aVmeta
p2489
aVimplicitRules
p2490
aVlanguage
p2491
aVtext
p2492
aVcontained
p2493
aVextension
p2494
aVmodifierExtension
p2495
aVurl
p2496
aVversion
p2497
aVname
p2498
aVstatus
p2499
aVkind
p2500
aVexperimental
p2501
aVdate
p2502
aVpublisher
p2503
aVcontact
p2504
aVdescription
p2505
aVuseContext
p2506
aVjurisdiction
p2507
aVpurpose
p2508
aVaffectsState
p2509
aVcode
p2510
aVcomment
p2511
aVbase
p2512
aVresource
p2513
aVsystem
p2514
aVtype
p2515
aVinstance
p2516
aVinputProfile
p2517
aVoutputProfile
p2518
aVparameter
p2519
aVoverload
p2520
asVDiagnosticReport
p2521
(lp2522
Vid
p2523
aVmeta
p2524
aVimplicitRules
p2525
aVlanguage
p2526
aVtext
p2527
aVcontained
p2528
aVextension
p2529
aVmodifierExtension
p2530
aVidentifier
p2531
aVbasedOn
p2532
aVstatus
p2533
aVcategory
p2534
aVcode
p2535
aVsubject
p2536
aVcontext
p2537
aVeffectiveDateTime
p2538
aVeffectivePeriod
p2539
aVissued
p2540
aVperformer
p2541
aVresultsInterpreter
p2542
aVspecimen
p2543
aVresult
p2544
aVimagingStudy
p2545
aVmedia
p2546
aVconclusion
p2547
aVcodedDiagnosis
p2548
aVpresentedForm
p2549
asVLibrary
p2550
(lp2551
Vid
p2552
aVmeta
p2553
aVimplicitRules
p2554
aVlanguage
p2555
aVtext
p2556
aVcontained
p2557
aVextension
p2558
aVmodifierExtension
p2559
aVurl
p2560
aVidentifier
p2561
aVversion
p2562
aVname
p2563
aVtitle
p2564
aVsubtitle
p2565
aVstatus
p2566
aVexperimental
p2567
aVtype
p2568
aVsubjectCodeableConcept
p2569
aVsubjectReference
p2570
aVdate
p2571
aVpublisher
p2572
aVcontact
p2573
aVdescription
p2574
aVuseContext
p2575
aVjurisdiction
p2576
aVpurpose
p2577
aVusage
p2578
aVcopyright
p2579
aVapprovalDate
p2580
aVlastReviewDate
p2581
aVeffectivePeriod
p2582
aVtopic
p2583
aVcontributor
p2584
aVrelatedArtifact
p2585
aVparameter
p2586
aVdataRequirement
p2587
aVcontent
p2588
asVStructureDefinition
p2589
(lp2590
Vid
p2591
aVmeta
p2592
aVimplicitRules
p2593
aVlanguage
p2594
aVtext
p2595
aVcontained
p2596
aVextension
p2597
aVmodifierExtension
p2598
aVurl
p2599
aVidentifier
p2600
aVversion
p2601
aVname
p2602
aVtitle
p2603
aVstatus
p2604
aVexperimental
p2605
aVdate
p2606
aVpublisher
p2607
aVcontact
p2608
aVdescription
p2609
aVuseContext
p2610
aVjurisdiction
p2611
aVpurpose
p2612
aVcopyright
p2613
aVkeyword
p2614
aVfhirVersion
p2615
aVmapping
p2616
aVkind
p2617
aVabstract
p2618
aVcontext
p2619
aVcontextInvariant
p2620
aVtype
p2621
aVbaseDefinition
p2622
aVderivation
p2623
aVsnapshot
p2624
aVdifferential
p2625
asVInvoice
p2626
(lp2627
Vid
p2628
aVmeta
p2629
aVimplicitRules
p2630
aVlanguage
p2631
aVtext
p2632
aVcontained
p2633
aVextension
p2634
aVmodifierExtension
p2635
aVidentifier
p2636
aVstatus
p2637
aVcancelledReason
p2638
aVtype
p2639
aVsubject
p2640
aVrecipient
p2641
aVdate
p2642
aVparticipant
p2643
aVissuer
p2644
aVaccount
p2645
aVlineItem
p2646
aVtotalPriceComponent
p2647
aVtotalNet
p2648
aVtotalGross
p2649
aVpaymentTerms
p2650
aVnote
p2651
asVMeasure
p2652
(lp2653
Vid
p2654
aVmeta
p2655
aVimplicitRules
p2656
aVlanguage
p2657
aVtext
p2658
aVcontained
p2659
aVextension
p2660
aVmodifierExtension
p2661
aVurl
p2662
aVidentifier
p2663
aVversion
p2664
aVname
p2665
aVtitle
p2666
aVsubtitle
p2667
aVstatus
p2668
aVexperimental
p2669
aVsubjectCodeableConcept
p2670
aVsubjectReference
p2671
aVdate
p2672
aVpublisher
p2673
aVcontact
p2674
aVdescription
p2675
aVuseContext
p2676
aVjurisdiction
p2677
aVpurpose
p2678
aVusage
p2679
aVcopyright
p2680
aVapprovalDate
p2681
aVlastReviewDate
p2682
aVeffectivePeriod
p2683
aVtopic
p2684
aVcontributor
p2685
aVrelatedArtifact
p2686
aVlibrary
p2687
aVdisclaimer
p2688
aVscoring
p2689
aVcompositeScoring
p2690
aVtype
p2691
aVriskAdjustment
p2692
aVrateAggregation
p2693
aVrationale
p2694
aVclinicalRecommendationStatement
p2695
aVimprovementNotation
p2696
aVdefinition
p2697
aVguidance
p2698
aVset
p2699
aVgroup
p2700
aVsupplementalData
p2701
asVQuestionnaire
p2702
(lp2703
Vid
p2704
aVmeta
p2705
aVimplicitRules
p2706
aVlanguage
p2707
aVtext
p2708
aVcontained
p2709
aVextension
p2710
aVmodifierExtension
p2711
aVurl
p2712
aVidentifier
p2713
aVversion
p2714
aVname
p2715
aVtitle
p2716
aVderivedFrom
p2717
aVstatus
p2718
aVexperimental
p2719
aVsubjectType
p2720
aVdate
p2721
aVpublisher
p2722
aVcontact
p2723
aVdescription
p2724
aVuseContext
p2725
aVjurisdiction
p2726
aVpurpose
p2727
aVcopyright
p2728
aVapprovalDate
p2729
aVlastReviewDate
p2730
aVeffectivePeriod
p2731
aVcode
p2732
aVitem
p2733
asVConceptMap
p2734
(lp2735
Vid
p2736
aVmeta
p2737
aVimplicitRules
p2738
aVlanguage
p2739
aVtext
p2740
aVcontained
p2741
aVextension
p2742
aVmodifierExtension
p2743
aVurl
p2744
aVidentifier
p2745
aVversion
p2746
aVname
p2747
aVtitle
p2748
aVstatus
p2749
aVexperimental
p2750
aVdate
p2751
aVpublisher
p2752
aVcontact
p2753
aVdescription
p2754
aVuseContext
p2755
aVjurisdiction
p2756
aVpurpose
p2757
aVcopyright
p2758
aVsourceUri
p2759
aVsourceCanonical
p2760
aVtargetUri
p2761
aVtargetCanonical
p2762
aVgroup
p2763
asVEligibilityResponse
p2764
(lp2765
Vid
p2766
aVmeta
p2767
aVimplicitRules
p2768
aVlanguage
p2769
aVtext
p2770
aVcontained
p2771
aVextension
p2772
aVmodifierExtension
p2773
aVidentifier
p2774
aVstatus
p2775
aVcreated
p2776
aVrequestProvider
p2777
aVrequest
p2778
aVoutcome
p2779
aVdisposition
p2780
aVinsurer
p2781
aVinforce
p2782
aVinsurance
p2783
aVpreAuthRef
p2784
aVauthorization
p2785
aVform
p2786
aVerror
p2787
asVSlot
p2788
(lp2789
Vid
p2790
aVmeta
p2791
aVimplicitRules
p2792
aVlanguage
p2793
aVtext
p2794
aVcontained
p2795
aVextension
p2796
aVmodifierExtension
p2797
aVidentifier
p2798
aVserviceCategory
p2799
aVserviceType
p2800
aVspecialty
p2801
aVappointmentType
p2802
aVschedule
p2803
aVstatus
p2804
aVstart
p2805
aVend
p2806
aVoverbooked
p2807
aVcomment
p2808
asVCarePlan
p2809
(lp2810
Vid
p2811
aVmeta
p2812
aVimplicitRules
p2813
aVlanguage
p2814
aVtext
p2815
aVcontained
p2816
aVextension
p2817
aVmodifierExtension
p2818
aVidentifier
p2819
aVinstantiates
p2820
aVbasedOn
p2821
aVreplaces
p2822
aVpartOf
p2823
aVstatus
p2824
aVintent
p2825
aVcategory
p2826
aVtitle
p2827
aVdescription
p2828
aVsubject
p2829
aVcontext
p2830
aVperiod
p2831
aVauthor
p2832
aVcareTeam
p2833
aVaddresses
p2834
aVsupportingInfo
p2835
aVgoal
p2836
aVactivity
p2837
aVnote
p2838
asVItemInstance
p2839
(lp2840
Vid
p2841
aVmeta
p2842
aVimplicitRules
p2843
aVlanguage
p2844
aVtext
p2845
aVcontained
p2846
aVextension
p2847
aVmodifierExtension
p2848
aVcount
p2849
aVlocation
p2850
aVsubject
p2851
aVmanufactureDate
p2852
aVexpiryDate
p2853
aVcurrentSWVersion
p2854
aVlotNumber
p2855
aVserialNumber
p2856
aVcarrierAIDC
p2857
aVcarrierHRF
p2858
asVMedia
p2859
(lp2860
Vid
p2861
aVmeta
p2862
aVimplicitRules
p2863
aVlanguage
p2864
aVtext
p2865
aVcontained
p2866
aVextension
p2867
aVmodifierExtension
p2868
aVidentifier
p2869
aVbasedOn
p2870
aVpartOf
p2871
aVstatus
p2872
aVtype
p2873
aVmodality
p2874
aVview
p2875
aVsubject
p2876
aVcontext
p2877
aVcreatedDateTime
p2878
aVcreatedPeriod
p2879
aVissued
p2880
aVoperator
p2881
aVreasonCode
p2882
aVbodySite
p2883
aVdeviceName
p2884
aVdevice
p2885
aVheight
p2886
aVwidth
p2887
aVframes
p2888
aVduration
p2889
aVcontent
p2890
aVnote
p2891
asVPerson
p2892
(lp2893
Vid
p2894
aVmeta
p2895
aVimplicitRules
p2896
aVlanguage
p2897
aVtext
p2898
aVcontained
p2899
aVextension
p2900
aVmodifierExtension
p2901
aVidentifier
p2902
aVname
p2903
aVtelecom
p2904
aVgender
p2905
aVbirthDate
p2906
aVaddress
p2907
aVphoto
p2908
aVmanagingOrganization
p2909
aVactive
p2910
aVlink
p2911
asVHealthcareService
p2912
(lp2913
Vid
p2914
aVmeta
p2915
aVimplicitRules
p2916
aVlanguage
p2917
aVtext
p2918
aVcontained
p2919
aVextension
p2920
aVmodifierExtension
p2921
aVidentifier
p2922
aVactive
p2923
aVprovidedBy
p2924
aVcategory
p2925
aVtype
p2926
aVspecialty
p2927
aVlocation
p2928
aVname
p2929
aVcomment
p2930
aVextraDetails
p2931
aVphoto
p2932
aVtelecom
p2933
aVcoverageArea
p2934
aVserviceProvisionCode
p2935
aVeligibility
p2936
aVeligibilityNote
p2937
aVprogramName
p2938
aVcharacteristic
p2939
aVreferralMethod
p2940
aVappointmentRequired
p2941
aVavailableTime
p2942
aVnotAvailable
p2943
aVavailabilityExceptions
p2944
aVendpoint
p2945
asVVisionPrescription
p2946
(lp2947
Vid
p2948
aVmeta
p2949
aVimplicitRules
p2950
aVlanguage
p2951
aVtext
p2952
aVcontained
p2953
aVextension
p2954
aVmodifierExtension
p2955
aVidentifier
p2956
aVstatus
p2957
aVpatient
p2958
aVencounter
p2959
aVdateWritten
p2960
aVprescriber
p2961
aVreasonCodeableConcept
p2962
aVreasonReference
p2963
aVdispense
p2964
asVAllergyIntolerance
p2965
(lp2966
Vid
p2967
aVmeta
p2968
aVimplicitRules
p2969
aVlanguage
p2970
aVtext
p2971
aVcontained
p2972
aVextension
p2973
aVmodifierExtension
p2974
aVidentifier
p2975
aVclinicalStatus
p2976
aVverificationStatus
p2977
aVtype
p2978
aVcategory
p2979
aVcriticality
p2980
aVcode
p2981
aVpatient
p2982
aVencounter
p2983
aVonsetDateTime
p2984
aVonsetAge
p2985
aVonsetPeriod
p2986
aVonsetRange
p2987
aVonsetString
p2988
aVassertedDate
p2989
aVrecorder
p2990
aVasserter
p2991
aVlastOccurrence
p2992
aVnote
p2993
aVreaction
p2994
asVDomainResource
p2995
(lp2996
Vid
p2997
aVmeta
p2998
aVimplicitRules
p2999
aVlanguage
p3000
aVtext
p3001
aVcontained
p3002
aVextension
p3003
aVmodifierExtension
p3004
asVEnrollmentRequest
p3005
(lp3006
Vid
p3007
aVmeta
p3008
aVimplicitRules
p3009
aVlanguage
p3010
aVtext
p3011
aVcontained
p3012
aVextension
p3013
aVmodifierExtension
p3014
aVidentifier
p3015
aVstatus
p3016
aVcreated
p3017
aVinsurer
p3018
aVprovider
p3019
aVcandidate
p3020
aVcoverage
p3021
asVComposition
p3022
(lp3023
Vid
p3024
aVmeta
p3025
aVimplicitRules
p3026
aVlanguage
p3027
aVtext
p3028
aVcontained
p3029
aVextension
p3030
aVmodifierExtension
p3031
aVidentifier
p3032
aVstatus
p3033
aVtype
p3034
aVclass
p3035
aVsubject
p3036
aVencounter
p3037
aVdate
p3038
aVauthor
p3039
aVtitle
p3040
aVconfidentiality
p3041
aVattester
p3042
aVcustodian
p3043
aVrelatesTo
p3044
aVevent
p3045
aVsection
p3046
asVRelatedPerson
p3047
(lp3048
Vid
p3049
aVmeta
p3050
aVimplicitRules
p3051
aVlanguage
p3052
aVtext
p3053
aVcontained
p3054
aVextension
p3055
aVmodifierExtension
p3056
aVidentifier
p3057
aVactive
p3058
aVpatient
p3059
aVrelationship
p3060
aVname
p3061
aVtelecom
p3062
aVgender
p3063
aVbirthDate
p3064
aVaddress
p3065
aVphoto
p3066
aVperiod
p3067
asVSpecimen
p3068
(lp3069
Vid
p3070
aVmeta
p3071
aVimplicitRules
p3072
aVlanguage
p3073
aVtext
p3074
aVcontained
p3075
aVextension
p3076
aVmodifierExtension
p3077
aVidentifier
p3078
aVaccessionIdentifier
p3079
aVstatus
p3080
aVtype
p3081
aVsubject
p3082
aVreceivedTime
p3083
aVparent
p3084
aVrequest
p3085
aVcollection
p3086
aVprocessing
p3087
aVcontainer
p3088
aVnote
p3089
asVConsent
p3090
(lp3091
Vid
p3092
aVmeta
p3093
aVimplicitRules
p3094
aVlanguage
p3095
aVtext
p3096
aVcontained
p3097
aVextension
p3098
aVmodifierExtension
p3099
aVidentifier
p3100
aVstatus
p3101
aVscope
p3102
aVcategory
p3103
aVpatient
p3104
aVdateTime
p3105
aVperformer
p3106
aVorganization
p3107
aVsourceAttachment
p3108
aVsourceIdentifier
p3109
aVsourceReference
p3110
aVpolicy
p3111
aVpolicyRule
p3112
aVverification
p3113
aVprovision
p3114
asVSearchParameter
p3115
(lp3116
Vid
p3117
aVmeta
p3118
aVimplicitRules
p3119
aVlanguage
p3120
aVtext
p3121
aVcontained
p3122
aVextension
p3123
aVmodifierExtension
p3124
aVurl
p3125
aVversion
p3126
aVname
p3127
aVderivedFrom
p3128
aVstatus
p3129
aVexperimental
p3130
aVdate
p3131
aVpublisher
p3132
aVcontact
p3133
aVdescription
p3134
aVuseContext
p3135
aVjurisdiction
p3136
aVpurpose
p3137
aVcode
p3138
aVbase
p3139
aVtype
p3140
aVexpression
p3141
aVxpath
p3142
aVxpathUsage
p3143
aVtarget
p3144
aVmultipleOr
p3145
aVmultipleAnd
p3146
aVcomparator
p3147
aVmodifier
p3148
aVchain
p3149
aVcomponent
p3150
asVAppointmentResponse
p3151
(lp3152
Vid
p3153
aVmeta
p3154
aVimplicitRules
p3155
aVlanguage
p3156
aVtext
p3157
aVcontained
p3158
aVextension
p3159
aVmodifierExtension
p3160
aVidentifier
p3161
aVappointment
p3162
aVstart
p3163
aVend
p3164
aVparticipantType
p3165
aVactor
p3166
aVparticipantStatus
p3167
aVcomment
p3168
asVClaimResponse
p3169
(lp3170
Vid
p3171
aVmeta
p3172
aVimplicitRules
p3173
aVlanguage
p3174
aVtext
p3175
aVcontained
p3176
aVextension
p3177
aVmodifierExtension
p3178
aVidentifier
p3179
aVstatus
p3180
aVtype
p3181
aVsubType
p3182
aVuse
p3183
aVpatient
p3184
aVcreated
p3185
aVinsurer
p3186
aVrequestProvider
p3187
aVrequest
p3188
aVoutcome
p3189
aVdisposition
p3190
aVpayeeType
p3191
aVitem
p3192
aVaddItem
p3193
aVerror
p3194
aVtotal
p3195
aVpayment
p3196
aVreserved
p3197
aVform
p3198
aVprocessNote
p3199
aVcommunicationRequest
p3200
aVinsurance
p3201
asVResearchStudy
p3202
(lp3203
Vid
p3204
aVmeta
p3205
aVimplicitRules
p3206
aVlanguage
p3207
aVtext
p3208
aVcontained
p3209
aVextension
p3210
aVmodifierExtension
p3211
aVidentifier
p3212
aVtitle
p3213
aVprotocol
p3214
aVpartOf
p3215
aVstatus
p3216
aVprimaryPurposeType
p3217
aVphase
p3218
aVcategory
p3219
aVfocus
p3220
aVcondition
p3221
aVcontact
p3222
aVrelatedArtifact
p3223
aVkeyword
p3224
aVlocation
p3225
aVdescription
p3226
aVenrollment
p3227
aVperiod
p3228
aVsponsor
p3229
aVprincipalInvestigator
p3230
aVsite
p3231
aVreasonStopped
p3232
aVnote
p3233
aVarm
p3234
aVobjective
p3235
asVEpisodeOfCare
p3236
(lp3237
Vid
p3238
aVmeta
p3239
aVimplicitRules
p3240
aVlanguage
p3241
aVtext
p3242
aVcontained
p3243
aVextension
p3244
aVmodifierExtension
p3245
aVidentifier
p3246
aVstatus
p3247
aVstatusHistory
p3248
aVtype
p3249
aVdiagnosis
p3250
aVpatient
p3251
aVmanagingOrganization
p3252
aVperiod
p3253
aVreferralRequest
p3254
aVcareManager
p3255
aVteam
p3256
aVaccount
p3257
asVServiceRequest
p3258
(lp3259
Vid
p3260
aVmeta
p3261
aVimplicitRules
p3262
aVlanguage
p3263
aVtext
p3264
aVcontained
p3265
aVextension
p3266
aVmodifierExtension
p3267
aVidentifier
p3268
aVinstantiates
p3269
aVbasedOn
p3270
aVreplaces
p3271
aVrequisition
p3272
aVstatus
p3273
aVintent
p3274
aVcategory
p3275
aVpriority
p3276
aVdoNotPerform
p3277
aVcode
p3278
aVorderDetail
p3279
aVsubject
p3280
aVcontext
p3281
aVoccurrenceDateTime
p3282
aVoccurrencePeriod
p3283
aVoccurrenceTiming
p3284
aVasNeededBoolean
p3285
aVasNeededCodeableConcept
p3286
aVauthoredOn
p3287
aVrequester
p3288
aVperformerType
p3289
aVperformer
p3290
aVreasonCode
p3291
aVreasonReference
p3292
aVinsurance
p3293
aVsupportingInfo
p3294
aVspecimen
p3295
aVbodySite
p3296
aVnote
p3297
aVpatientInstruction
p3298
aVrelevantHistory
p3299
asVTerminologyCapabilities
p3300
(lp3301
Vid
p3302
aVmeta
p3303
aVimplicitRules
p3304
aVlanguage
p3305
aVtext
p3306
aVcontained
p3307
aVextension
p3308
aVmodifierExtension
p3309
aVurl
p3310
aVversion
p3311
aVname
p3312
aVtitle
p3313
aVstatus
p3314
aVexperimental
p3315
aVdate
p3316
aVpublisher
p3317
aVcontact
p3318
aVdescription
p3319
aVuseContext
p3320
aVjurisdiction
p3321
aVpurpose
p3322
aVcopyright
p3323
aVlockedDate
p3324
aVcodeSystem
p3325
aVexpansion
p3326
aVcodeSearch
p3327
aVvalidateCode
p3328
aVtranslation
p3329
aVclosure
p3330
asVEndpoint
p3331
(lp3332
Vid
p3333
aVmeta
p3334
aVimplicitRules
p3335
aVlanguage
p3336
aVtext
p3337
aVcontained
p3338
aVextension
p3339
aVmodifierExtension
p3340
aVidentifier
p3341
aVstatus
p3342
aVconnectionType
p3343
aVname
p3344
aVmanagingOrganization
p3345
aVcontact
p3346
aVperiod
p3347
aVpayloadType
p3348
aVpayloadMimeType
p3349
aVaddress
p3350
aVheader
p3351
asVResource
p3352
(lp3353
Vid
p3354
aVmeta
p3355
aVimplicitRules
p3356
aVlanguage
p3357
asVDeviceMetric
p3358
(lp3359
Vid
p3360
aVmeta
p3361
aVimplicitRules
p3362
aVlanguage
p3363
aVtext
p3364
aVcontained
p3365
aVextension
p3366
aVmodifierExtension
p3367
aVidentifier
p3368
aVtype
p3369
aVunit
p3370
aVsource
p3371
aVparent
p3372
aVoperationalStatus
p3373
aVcolor
p3374
aVcategory
p3375
aVmeasurementPeriod
p3376
aVcalibration
p3377
asVList
p3378
(lp3379
Vid
p3380
aVmeta
p3381
aVimplicitRules
p3382
aVlanguage
p3383
aVtext
p3384
aVcontained
p3385
aVextension
p3386
aVmodifierExtension
p3387
aVidentifier
p3388
aVstatus
p3389
aVmode
p3390
aVtitle
p3391
aVcode
p3392
aVsubject
p3393
aVencounter
p3394
aVdate
p3395
aVsource
p3396
aVorderedBy
p3397
aVnote
p3398
aVentry
p3399
aVemptyReason
p3400
asVAuditEvent
p3401
(lp3402
Vid
p3403
aVmeta
p3404
aVimplicitRules
p3405
aVlanguage
p3406
aVtext
p3407
aVcontained
p3408
aVextension
p3409
aVmodifierExtension
p3410
aVtype
p3411
aVsubtype
p3412
aVaction
p3413
aVperiod
p3414
aVrecorded
p3415
aVoutcome
p3416
aVoutcomeDesc
p3417
aVpurposeOfEvent
p3418
aVagent
p3419
aVsource
p3420
aVentity
p3421
asVMedicinalProductIngredient
p3422
(lp3423
Vid
p3424
aVmeta
p3425
aVimplicitRules
p3426
aVlanguage
p3427
aVtext
p3428
aVcontained
p3429
aVextension
p3430
aVmodifierExtension
p3431
aVidentifier
p3432
aVrole
p3433
aVallergenicIndicator
p3434
aVmanufacturer
p3435
aVspecifiedSubstance
p3436
aVsubstance
p3437
asVImmunizationEvaluation
p3438
(lp3439
Vid
p3440
aVmeta
p3441
aVimplicitRules
p3442
aVlanguage
p3443
aVtext
p3444
aVcontained
p3445
aVextension
p3446
aVmodifierExtension
p3447
aVidentifier
p3448
aVstatus
p3449
aVpatient
p3450
aVdate
p3451
aVauthority
p3452
aVtargetDisease
p3453
aVimmunizationEvent
p3454
aVdoseStatus
p3455
aVdoseStatusReason
p3456
aVdescription
p3457
aVseries
p3458
aVdoseNumberPositiveInt
p3459
aVdoseNumberString
p3460
aVseriesDosesPositiveInt
p3461
aVseriesDosesString
p3462
asVMessageDefinition
p3463
(lp3464
Vid
p3465
aVmeta
p3466
aVimplicitRules
p3467
aVlanguage
p3468
aVtext
p3469
aVcontained
p3470
aVextension
p3471
aVmodifierExtension
p3472
aVurl
p3473
aVidentifier
p3474
aVversion
p3475
aVname
p3476
aVtitle
p3477
aVreplaces
p3478
aVstatus
p3479
aVexperimental
p3480
aVdate
p3481
aVpublisher
p3482
aVcontact
p3483
aVdescription
p3484
aVuseContext
p3485
aVjurisdiction
p3486
aVpurpose
p3487
aVcopyright
p3488
aVbase
p3489
aVparent
p3490
aVeventCoding
p3491
aVeventUri
p3492
aVcategory
p3493
aVfocus
p3494
aVresponseRequired
p3495
aVallowedResponse
p3496
asVExampleScenario
p3497
(lp3498
Vid
p3499
aVmeta
p3500
aVimplicitRules
p3501
aVlanguage
p3502
aVtext
p3503
aVcontained
p3504
aVextension
p3505
aVmodifierExtension
p3506
aVurl
p3507
aVidentifier
p3508
aVversion
p3509
aVname
p3510
aVstatus
p3511
aVexperimental
p3512
aVdate
p3513
aVpublisher
p3514
aVcontact
p3515
aVuseContext
p3516
aVjurisdiction
p3517
aVcopyright
p3518
aVpurpose
p3519
aVactor
p3520
aVinstance
p3521
aVprocess
p3522
aVworkflow
p3523
asVBodyStructure
p3524
(lp3525
Vid
p3526
aVmeta
p3527
aVimplicitRules
p3528
aVlanguage
p3529
aVtext
p3530
aVcontained
p3531
aVextension
p3532
aVmodifierExtension
p3533
aVidentifier
p3534
aVactive
p3535
aVmorphology
p3536
aVlocation
p3537
aVlocationQualifier
p3538
aVdescription
p3539
aVimage
p3540
aVpatient
p3541
asVEnrollmentResponse
p3542
(lp3543
Vid
p3544
aVmeta
p3545
aVimplicitRules
p3546
aVlanguage
p3547
aVtext
p3548
aVcontained
p3549
aVextension
p3550
aVmodifierExtension
p3551
aVidentifier
p3552
aVstatus
p3553
aVrequest
p3554
aVoutcome
p3555
aVdisposition
p3556
aVcreated
p3557
aVorganization
p3558
aVrequestProvider
p3559
asVCompartmentDefinition
p3560
(lp3561
Vid
p3562
aVmeta
p3563
aVimplicitRules
p3564
aVlanguage
p3565
aVtext
p3566
aVcontained
p3567
aVextension
p3568
aVmodifierExtension
p3569
aVurl
p3570
aVname
p3571
aVtitle
p3572
aVstatus
p3573
aVexperimental
p3574
aVdate
p3575
aVpublisher
p3576
aVcontact
p3577
aVdescription
p3578
aVuseContext
p3579
aVjurisdiction
p3580
aVpurpose
p3581
aVcode
p3582
aVsearch
p3583
aVresource
p3584
asVSupplyDelivery
p3585
(lp3586
Vid
p3587
aVmeta
p3588
aVimplicitRules
p3589
aVlanguage
p3590
aVtext
p3591
aVcontained
p3592
aVextension
p3593
aVmodifierExtension
p3594
aVidentifier
p3595
aVbasedOn
p3596
aVpartOf
p3597
aVstatus
p3598
aVpatient
p3599
aVtype
p3600
aVsuppliedItem
p3601
aVoccurrenceDateTime
p3602
aVoccurrencePeriod
p3603
aVoccurrenceTiming
p3604
aVsupplier
p3605
aVdestination
p3606
aVreceiver
p3607
asVTestReport
p3608
(lp3609
Vid
p3610
aVmeta
p3611
aVimplicitRules
p3612
aVlanguage
p3613
aVtext
p3614
aVcontained
p3615
aVextension
p3616
aVmodifierExtension
p3617
aVidentifier
p3618
aVname
p3619
aVstatus
p3620
aVtestScript
p3621
aVresult
p3622
aVscore
p3623
aVtester
p3624
aVissued
p3625
aVparticipant
p3626
aVsetup
p3627
aVtest
p3628
aVteardown
p3629
as.