ccollections
defaultdict
p0
(c__builtin__
list
p1
tp2
Rp3
VNamingSystem
p4
(lp5
Vid
p6
aVmeta
p7
aVimplicitRules
p8
aVlanguage
p9
aVtext
p10
aVcontained
p11
aVextension
p12
aVmodifierExtension
p13
aVname
p14
aVstatus
p15
aVkind
p16
aVdate
p17
aVpublisher
p18
aVcontact
p19
aVresponsible
p20
aVtype
p21
aVdescription
p22
aVuseContext
p23
aVjurisdiction
p24
aVusage
p25
aVuniqueId
p26
aVreplacedBy
p27
asVGoal
p28
(lp29
Vid
p30
aVmeta
p31
aVimplicitRules
p32
aVlanguage
p33
aVtext
p34
aVcontained
p35
aVextension
p36
aVmodifierExtension
p37
aVidentifier
p38
aVstatus
p39
aVcategory
p40
aVpriority
p41
aVdescription
p42
aVsubject
p43
aVstartDate
p44
aVstartCodeableConcept
p45
aVtarget
p46
aVstatusDate
p47
aVstatusReason
p48
aVexpressedBy
p49
aVaddresses
p50
aVnote
p51
aVoutcomeCode
p52
aVoutcomeReference
p53
asVImmunizationRecommendation
p54
(lp55
Vid
p56
aVmeta
p57
aVimplicitRules
p58
aVlanguage
p59
aVtext
p60
aVcontained
p61
aVextension
p62
aVmodifierExtension
p63
aVidentifier
p64
aVpatient
p65
aVrecommendation
p66
asVMessageHeader
p67
(lp68
Vid
p69
aVmeta
p70
aVimplicitRules
p71
aVlanguage
p72
aVtext
p73
aVcontained
p74
aVextension
p75
aVmodifierExtension
p76
aVevent
p77
aVdestination
p78
aVreceiver
p79
aVsender
p80
aVtimestamp
p81
aVenterer
p82
aVauthor
p83
aVsource
p84
aVresponsible
p85
aVreason
p86
aVresponse
p87
aVfocus
p88
asVActivityDefinition
p89
(lp90
Vid
p91
aVmeta
p92
aVimplicitRules
p93
aVlanguage
p94
aVtext
p95
aVcontained
p96
aVextension
p97
aVmodifierExtension
p98
aVurl
p99
aVidentifier
p100
aVversion
p101
aVname
p102
aVtitle
p103
aVstatus
p104
aVexperimental
p105
aVdate
p106
aVpublisher
p107
aVdescription
p108
aVpurpose
p109
aVusage
p110
aVapprovalDate
p111
aVlastReviewDate
p112
aVeffectivePeriod
p113
aVuseContext
p114
aVjurisdiction
p115
aVtopic
p116
aVcontributor
p117
aVcontact
p118
aVcopyright
p119
aVrelatedArtifact
p120
aVlibrary
p121
aVkind
p122
aVcode
p123
aVtimingTiming
p124
aVtimingDateTime
p125
aVtimingPeriod
p126
aVtimingRange
p127
aVlocation
p128
aVparticipant
p129
aVproductReference
p130
aVproductReference
p131
aVproductCodeableConcept
p132
aVquantity
p133
aVdosage
p134
aVbodySite
p135
aVtransform
p136
aVdynamicValue
p137
asVPractitioner
p138
(lp139
Vid
p140
aVmeta
p141
aVimplicitRules
p142
aVlanguage
p143
aVtext
p144
aVcontained
p145
aVextension
p146
aVmodifierExtension
p147
aVidentifier
p148
aVactive
p149
aVname
p150
aVtelecom
p151
aVaddress
p152
aVgender
p153
aVbirthDate
p154
aVphoto
p155
aVqualification
p156
aVcommunication
p157
asVSchedule
p158
(lp159
Vid
p160
aVmeta
p161
aVimplicitRules
p162
aVlanguage
p163
aVtext
p164
aVcontained
p165
aVextension
p166
aVmodifierExtension
p167
aVidentifier
p168
aVactive
p169
aVserviceCategory
p170
aVserviceType
p171
aVspecialty
p172
aVactor
p173
aVplanningHorizon
p174
aVcomment
p175
asVResearchSubject
p176
(lp177
Vid
p178
aVmeta
p179
aVimplicitRules
p180
aVlanguage
p181
aVtext
p182
aVcontained
p183
aVextension
p184
aVmodifierExtension
p185
aVidentifier
p186
aVstatus
p187
aVperiod
p188
aVstudy
p189
aVindividual
p190
aVassignedArm
p191
aVactualArm
p192
aVconsent
p193
asVMedicationRequest
p194
(lp195
Vid
p196
aVmeta
p197
aVimplicitRules
p198
aVlanguage
p199
aVtext
p200
aVcontained
p201
aVextension
p202
aVmodifierExtension
p203
aVidentifier
p204
aVdefinition
p205
aVbasedOn
p206
aVgroupIdentifier
p207
aVstatus
p208
aVintent
p209
aVcategory
p210
aVpriority
p211
aVmedicationCodeableConcept
p212
aVmedicationReference
p213
aVsubject
p214
aVcontext
p215
aVsupportingInformation
p216
aVauthoredOn
p217
aVrequester
p218
aVrecorder
p219
aVreasonCode
p220
aVreasonReference
p221
aVnote
p222
aVdosageInstruction
p223
aVdispenseRequest
p224
aVsubstitution
p225
aVpriorPrescription
p226
aVdetectedIssue
p227
aVeventHistory
p228
asVDocumentManifest
p229
(lp230
Vid
p231
aVmeta
p232
aVimplicitRules
p233
aVlanguage
p234
aVtext
p235
aVcontained
p236
aVextension
p237
aVmodifierExtension
p238
aVmasterIdentifier
p239
aVidentifier
p240
aVstatus
p241
aVtype
p242
aVsubject
p243
aVcreated
p244
aVauthor
p245
aVrecipient
p246
aVsource
p247
aVdescription
p248
aVcontent
p249
aVrelated
p250
asVImplementationGuide
p251
(lp252
Vid
p253
aVmeta
p254
aVimplicitRules
p255
aVlanguage
p256
aVtext
p257
aVcontained
p258
aVextension
p259
aVmodifierExtension
p260
aVurl
p261
aVversion
p262
aVname
p263
aVstatus
p264
aVexperimental
p265
aVdate
p266
aVpublisher
p267
aVcontact
p268
aVdescription
p269
aVuseContext
p270
aVjurisdiction
p271
aVcopyright
p272
aVfhirVersion
p273
aVdependency
p274
aVpackage
p275
aVglobal
p276
aVbinary
p277
aVpage
p278
asVPlanDefinition
p279
(lp280
Vid
p281
aVmeta
p282
aVimplicitRules
p283
aVlanguage
p284
aVtext
p285
aVcontained
p286
aVextension
p287
aVmodifierExtension
p288
aVurl
p289
aVidentifier
p290
aVversion
p291
aVname
p292
aVtitle
p293
aVtype
p294
aVstatus
p295
aVexperimental
p296
aVdate
p297
aVpublisher
p298
aVdescription
p299
aVpurpose
p300
aVusage
p301
aVapprovalDate
p302
aVlastReviewDate
p303
aVeffectivePeriod
p304
aVuseContext
p305
aVjurisdiction
p306
aVtopic
p307
aVcontributor
p308
aVcontact
p309
aVcopyright
p310
aVrelatedArtifact
p311
aVlibrary
p312
aVgoal
p313
aVaction
p314
asVEncounter
p315
(lp316
Vid
p317
aVmeta
p318
aVimplicitRules
p319
aVlanguage
p320
aVtext
p321
aVcontained
p322
aVextension
p323
aVmodifierExtension
p324
aVidentifier
p325
aVstatus
p326
aVstatusHistory
p327
aVclass
p328
aVclassHistory
p329
aVtype
p330
aVpriority
p331
aVsubject
p332
aVepisodeOfCare
p333
aVincomingReferral
p334
aVparticipant
p335
aVappointment
p336
aVperiod
p337
aVlength
p338
aVreason
p339
aVdiagnosis
p340
aVaccount
p341
aVhospitalization
p342
aVlocation
p343
aVserviceProvider
p344
aVpartOf
p345
asVAccount
p346
(lp347
Vid
p348
aVmeta
p349
aVimplicitRules
p350
aVlanguage
p351
aVtext
p352
aVcontained
p353
aVextension
p354
aVmodifierExtension
p355
aVidentifier
p356
aVstatus
p357
aVtype
p358
aVname
p359
aVsubject
p360
aVperiod
p361
aVactive
p362
aVbalance
p363
aVcoverage
p364
aVowner
p365
aVdescription
p366
aVguarantor
p367
asVTask
p368
(lp369
Vid
p370
aVmeta
p371
aVimplicitRules
p372
aVlanguage
p373
aVtext
p374
aVcontained
p375
aVextension
p376
aVmodifierExtension
p377
aVidentifier
p378
aVdefinitionUri
p379
aVdefinitionReference
p380
aVbasedOn
p381
aVgroupIdentifier
p382
aVpartOf
p383
aVstatus
p384
aVstatusReason
p385
aVbusinessStatus
p386
aVintent
p387
aVpriority
p388
aVcode
p389
aVdescription
p390
aVfocus
p391
aVfor
p392
aVcontext
p393
aVexecutionPeriod
p394
aVauthoredOn
p395
aVlastModified
p396
aVrequester
p397
aVperformerType
p398
aVowner
p399
aVreason
p400
aVnote
p401
aVrelevantHistory
p402
aVrestriction
p403
aVinput
p404
aVoutput
p405
asVMetadataResource
p406
(lp407
Vid
p408
aVmeta
p409
aVimplicitRules
p410
aVlanguage
p411
aVtext
p412
aVcontained
p413
aVextension
p414
aVmodifierExtension
p415
aVurl
p416
aVversion
p417
aVname
p418
aVtitle
p419
aVstatus
p420
aVexperimental
p421
aVdate
p422
aVpublisher
p423
aVcontact
p424
aVuseContext
p425
aVjurisdiction
p426
aVdescription
p427
asVCodeSystem
p428
(lp429
Vid
p430
aVmeta
p431
aVimplicitRules
p432
aVlanguage
p433
aVtext
p434
aVcontained
p435
aVextension
p436
aVmodifierExtension
p437
aVurl
p438
aVidentifier
p439
aVversion
p440
aVname
p441
aVtitle
p442
aVstatus
p443
aVexperimental
p444
aVdate
p445
aVpublisher
p446
aVcontact
p447
aVdescription
p448
aVuseContext
p449
aVjurisdiction
p450
aVpurpose
p451
aVcopyright
p452
aVcaseSensitive
p453
aVvalueSet
p454
aVhierarchyMeaning
p455
aVcompositional
p456
aVversionNeeded
p457
aVcontent
p458
aVcount
p459
aVfilter
p460
aVproperty
p461
aVconcept
p462
asVMeasureReport
p463
(lp464
Vid
p465
aVmeta
p466
aVimplicitRules
p467
aVlanguage
p468
aVtext
p469
aVcontained
p470
aVextension
p471
aVmodifierExtension
p472
aVidentifier
p473
aVstatus
p474
aVtype
p475
aVmeasure
p476
aVpatient
p477
aVdate
p478
aVreportingOrganization
p479
aVperiod
p480
aVgroup
p481
aVevaluatedResources
p482
asVOrganization
p483
(lp484
Vid
p485
aVmeta
p486
aVimplicitRules
p487
aVlanguage
p488
aVtext
p489
aVcontained
p490
aVextension
p491
aVmodifierExtension
p492
aVidentifier
p493
aVactive
p494
aVtype
p495
aVname
p496
aValias
p497
aVtelecom
p498
aVaddress
p499
aVpartOf
p500
aVcontact
p501
aVendpoint
p502
asVMedicationStatement
p503
(lp504
Vid
p505
aVmeta
p506
aVimplicitRules
p507
aVlanguage
p508
aVtext
p509
aVcontained
p510
aVextension
p511
aVmodifierExtension
p512
aVidentifier
p513
aVbasedOn
p514
aVpartOf
p515
aVcontext
p516
aVstatus
p517
aVcategory
p518
aVmedicationCodeableConcept
p519
aVmedicationReference
p520
aVeffectiveDateTime
p521
aVeffectivePeriod
p522
aVdateAsserted
p523
aVinformationSource
p524
aVsubject
p525
aVderivedFrom
p526
aVtaken
p527
aVreasonNotTaken
p528
aVreasonCode
p529
aVreasonReference
p530
aVnote
p531
aVdosage
p532
asVMedicationDispense
p533
(lp534
Vid
p535
aVmeta
p536
aVimplicitRules
p537
aVlanguage
p538
aVtext
p539
aVcontained
p540
aVextension
p541
aVmodifierExtension
p542
aVidentifier
p543
aVpartOf
p544
aVstatus
p545
aVcategory
p546
aVmedicationCodeableConcept
p547
aVmedicationReference
p548
aVsubject
p549
aVcontext
p550
aVsupportingInformation
p551
aVperformer
p552
aVauthorizingPrescription
p553
aVtype
p554
aVquantity
p555
aVdaysSupply
p556
aVwhenPrepared
p557
aVwhenHandedOver
p558
aVdestination
p559
aVreceiver
p560
aVnote
p561
aVdosageInstruction
p562
aVsubstitution
p563
aVdetectedIssue
p564
aVnotDone
p565
aVnotDoneReasonCodeableConcept
p566
aVnotDoneReasonReference
p567
aVeventHistory
p568
asVSupplyRequest
p569
(lp570
Vid
p571
aVmeta
p572
aVimplicitRules
p573
aVlanguage
p574
aVtext
p575
aVcontained
p576
aVextension
p577
aVmodifierExtension
p578
aVidentifier
p579
aVstatus
p580
aVcategory
p581
aVpriority
p582
aVorderedItem
p583
aVoccurrenceDateTime
p584
aVoccurrencePeriod
p585
aVoccurrenceTiming
p586
aVauthoredOn
p587
aVrequester
p588
aVsupplier
p589
aVreasonCodeableConcept
p590
aVreasonReference
p591
aVdeliverFrom
p592
aVdeliverTo
p593
asVServiceDefinition
p594
(lp595
Vid
p596
aVmeta
p597
aVimplicitRules
p598
aVlanguage
p599
aVtext
p600
aVcontained
p601
aVextension
p602
aVmodifierExtension
p603
aVurl
p604
aVidentifier
p605
aVversion
p606
aVname
p607
aVtitle
p608
aVstatus
p609
aVexperimental
p610
aVdate
p611
aVpublisher
p612
aVdescription
p613
aVpurpose
p614
aVusage
p615
aVapprovalDate
p616
aVlastReviewDate
p617
aVeffectivePeriod
p618
aVuseContext
p619
aVjurisdiction
p620
aVtopic
p621
aVcontributor
p622
aVcontact
p623
aVcopyright
p624
aVrelatedArtifact
p625
aVtrigger
p626
aVdataRequirement
p627
aVoperationDefinition
p628
asVQuestionnaireResponse
p629
(lp630
Vid
p631
aVmeta
p632
aVimplicitRules
p633
aVlanguage
p634
aVtext
p635
aVcontained
p636
aVextension
p637
aVmodifierExtension
p638
aVidentifier
p639
aVbasedOn
p640
aVparent
p641
aVquestionnaire
p642
aVstatus
p643
aVsubject
p644
aVcontext
p645
aVauthored
p646
aVauthor
p647
aVsource
p648
aVitem
p649
asVProcessResponse
p650
(lp651
Vid
p652
aVmeta
p653
aVimplicitRules
p654
aVlanguage
p655
aVtext
p656
aVcontained
p657
aVextension
p658
aVmodifierExtension
p659
aVidentifier
p660
aVstatus
p661
aVcreated
p662
aVorganization
p663
aVrequest
p664
aVoutcome
p665
aVdisposition
p666
aVrequestProvider
p667
aVrequestOrganization
p668
aVform
p669
aVprocessNote
p670
aVerror
p671
aVcommunicationRequest
p672
asVParameters
p673
(lp674
Vid
p675
aVmeta
p676
aVimplicitRules
p677
aVlanguage
p678
aVparameter
p679
asVProvenance
p680
(lp681
Vid
p682
aVmeta
p683
aVimplicitRules
p684
aVlanguage
p685
aVtext
p686
aVcontained
p687
aVextension
p688
aVmodifierExtension
p689
aVtarget
p690
aVperiod
p691
aVrecorded
p692
aVpolicy
p693
aVlocation
p694
aVreason
p695
aVactivity
p696
aVagent
p697
aVentity
p698
aVsignature
p699
asVSubstance
p700
(lp701
Vid
p702
aVmeta
p703
aVimplicitRules
p704
aVlanguage
p705
aVtext
p706
aVcontained
p707
aVextension
p708
aVmodifierExtension
p709
aVidentifier
p710
aVstatus
p711
aVcategory
p712
aVcode
p713
aVdescription
p714
aVinstance
p715
aVingredient
p716
asVLocation
p717
(lp718
Vid
p719
aVmeta
p720
aVimplicitRules
p721
aVlanguage
p722
aVtext
p723
aVcontained
p724
aVextension
p725
aVmodifierExtension
p726
aVidentifier
p727
aVstatus
p728
aVoperationalStatus
p729
aVname
p730
aValias
p731
aVdescription
p732
aVmode
p733
aVtype
p734
aVtelecom
p735
aVaddress
p736
aVphysicalType
p737
aVposition
p738
aVmanagingOrganization
p739
aVpartOf
p740
aVendpoint
p741
asVCareTeam
p742
(lp743
Vid
p744
aVmeta
p745
aVimplicitRules
p746
aVlanguage
p747
aVtext
p748
aVcontained
p749
aVextension
p750
aVmodifierExtension
p751
aVidentifier
p752
aVstatus
p753
aVcategory
p754
aVname
p755
aVsubject
p756
aVcontext
p757
aVperiod
p758
aVparticipant
p759
aVreasonCode
p760
aVreasonReference
p761
aVmanagingOrganization
p762
aVnote
p763
asVExpansionProfile
p764
(lp765
Vid
p766
aVmeta
p767
aVimplicitRules
p768
aVlanguage
p769
aVtext
p770
aVcontained
p771
aVextension
p772
aVmodifierExtension
p773
aVurl
p774
aVidentifier
p775
aVversion
p776
aVname
p777
aVstatus
p778
aVexperimental
p779
aVdate
p780
aVpublisher
p781
aVcontact
p782
aVdescription
p783
aVuseContext
p784
aVjurisdiction
p785
aVfixedVersion
p786
aVexcludedSystem
p787
aVincludeDesignations
p788
aVdesignation
p789
aVincludeDefinition
p790
aVactiveOnly
p791
aVexcludeNested
p792
aVexcludeNotForUI
p793
aVexcludePostCoordinated
p794
aVdisplayLanguage
p795
aVlimitedExpansion
p796
asVGraphDefinition
p797
(lp798
Vid
p799
aVmeta
p800
aVimplicitRules
p801
aVlanguage
p802
aVtext
p803
aVcontained
p804
aVextension
p805
aVmodifierExtension
p806
aVurl
p807
aVversion
p808
aVname
p809
aVstatus
p810
aVexperimental
p811
aVdate
p812
aVpublisher
p813
aVcontact
p814
aVdescription
p815
aVuseContext
p816
aVjurisdiction
p817
aVpurpose
p818
aVstart
p819
aVprofile
p820
aVlink
p821
asVPatient
p822
(lp823
Vid
p824
aVmeta
p825
aVimplicitRules
p826
aVlanguage
p827
aVtext
p828
aVcontained
p829
aVextension
p830
aVmodifierExtension
p831
aVidentifier
p832
aVactive
p833
aVname
p834
aVtelecom
p835
aVgender
p836
aVbirthDate
p837
aVdeceasedBoolean
p838
aVdeceasedDateTime
p839
aVaddress
p840
aVmaritalStatus
p841
aVmultipleBirthBoolean
p842
aVmultipleBirthInteger
p843
aVphoto
p844
aVcontact
p845
aVanimal
p846
aVcommunication
p847
aVgeneralPractitioner
p848
aVmanagingOrganization
p849
aVlink
p850
asVPaymentNotice
p851
(lp852
Vid
p853
aVmeta
p854
aVimplicitRules
p855
aVlanguage
p856
aVtext
p857
aVcontained
p858
aVextension
p859
aVmodifierExtension
p860
aVidentifier
p861
aVstatus
p862
aVrequest
p863
aVresponse
p864
aVstatusDate
p865
aVcreated
p866
aVtarget
p867
aVprovider
p868
aVorganization
p869
aVpaymentStatus
p870
asVClinicalImpression
p871
(lp872
Vid
p873
aVmeta
p874
aVimplicitRules
p875
aVlanguage
p876
aVtext
p877
aVcontained
p878
aVextension
p879
aVmodifierExtension
p880
aVidentifier
p881
aVstatus
p882
aVcode
p883
aVdescription
p884
aVsubject
p885
aVcontext
p886
aVeffectiveDateTime
p887
aVeffectivePeriod
p888
aVdate
p889
aVassessor
p890
aVprevious
p891
aVproblem
p892
aVinvestigation
p893
aVprotocol
p894
aVsummary
p895
aVfinding
p896
aVprognosisCodeableConcept
p897
aVprognosisReference
p898
aVaction
p899
aVnote
p900
asVFlag
p901
(lp902
Vid
p903
aVmeta
p904
aVimplicitRules
p905
aVlanguage
p906
aVtext
p907
aVcontained
p908
aVextension
p909
aVmodifierExtension
p910
aVidentifier
p911
aVstatus
p912
aVcategory
p913
aVcode
p914
aVsubject
p915
aVperiod
p916
aVencounter
p917
aVauthor
p918
asVExplanationOfBenefit
p919
(lp920
Vid
p921
aVmeta
p922
aVimplicitRules
p923
aVlanguage
p924
aVtext
p925
aVcontained
p926
aVextension
p927
aVmodifierExtension
p928
aVidentifier
p929
aVstatus
p930
aVtype
p931
aVsubType
p932
aVpatient
p933
aVbillablePeriod
p934
aVcreated
p935
aVenterer
p936
aVinsurer
p937
aVprovider
p938
aVorganization
p939
aVreferral
p940
aVfacility
p941
aVclaim
p942
aVclaimResponse
p943
aVoutcome
p944
aVdisposition
p945
aVrelated
p946
aVprescription
p947
aVoriginalPrescription
p948
aVpayee
p949
aVinformation
p950
aVcareTeam
p951
aVdiagnosis
p952
aVprocedure
p953
aVprecedence
p954
aVinsurance
p955
aVaccident
p956
aVemploymentImpacted
p957
aVhospitalization
p958
aVitem
p959
aVaddItem
p960
aVtotalCost
p961
aVunallocDeductable
p962
aVtotalBenefit
p963
aVpayment
p964
aVform
p965
aVprocessNote
p966
aVbenefitBalance
p967
asVBodySite
p968
(lp969
Vid
p970
aVmeta
p971
aVimplicitRules
p972
aVlanguage
p973
aVtext
p974
aVcontained
p975
aVextension
p976
aVmodifierExtension
p977
aVidentifier
p978
aVactive
p979
aVcode
p980
aVqualifier
p981
aVdescription
p982
aVimage
p983
aVpatient
p984
asVLinkage
p985
(lp986
Vid
p987
aVmeta
p988
aVimplicitRules
p989
aVlanguage
p990
aVtext
p991
aVcontained
p992
aVextension
p993
aVmodifierExtension
p994
aVactive
p995
aVauthor
p996
aVitem
p997
asVSubscription
p998
(lp999
Vid
p1000
aVmeta
p1001
aVimplicitRules
p1002
aVlanguage
p1003
aVtext
p1004
aVcontained
p1005
aVextension
p1006
aVmodifierExtension
p1007
aVstatus
p1008
aVcontact
p1009
aVend
p1010
aVreason
p1011
aVcriteria
p1012
aVerror
p1013
aVchannel
p1014
aVtag
p1015
asVMedicationAdministration
p1016
(lp1017
Vid
p1018
aVmeta
p1019
aVimplicitRules
p1020
aVlanguage
p1021
aVtext
p1022
aVcontained
p1023
aVextension
p1024
aVmodifierExtension
p1025
aVidentifier
p1026
aVdefinition
p1027
aVpartOf
p1028
aVstatus
p1029
aVcategory
p1030
aVmedicationCodeableConcept
p1031
aVmedicationReference
p1032
aVsubject
p1033
aVcontext
p1034
aVsupportingInformation
p1035
aVeffectiveDateTime
p1036
aVeffectivePeriod
p1037
aVperformer
p1038
aVnotGiven
p1039
aVreasonNotGiven
p1040
aVreasonCode
p1041
aVreasonReference
p1042
aVprescription
p1043
aVdevice
p1044
aVnote
p1045
aVdosage
p1046
aVeventHistory
p1047
asVObservation
p1048
(lp1049
Vid
p1050
aVmeta
p1051
aVimplicitRules
p1052
aVlanguage
p1053
aVtext
p1054
aVcontained
p1055
aVextension
p1056
aVmodifierExtension
p1057
aVidentifier
p1058
aVbasedOn
p1059
aVstatus
p1060
aVcategory
p1061
aVcode
p1062
aVsubject
p1063
aVcontext
p1064
aVeffectiveDateTime
p1065
aVeffectivePeriod
p1066
aVissued
p1067
aVperformer
p1068
aVvalueQuantity
p1069
aVvalueCodeableConcept
p1070
aVvalueString
p1071
aVvalueBoolean
p1072
aVvalueRange
p1073
aVvalueRatio
p1074
aVvalueSampledData
p1075
aVvalueAttachment
p1076
aVvalueTime
p1077
aVvalueDateTime
p1078
aVvaluePeriod
p1079
aVdataAbsentReason
p1080
aVinterpretation
p1081
aVcomment
p1082
aVbodySite
p1083
aVmethod
p1084
aVspecimen
p1085
aVdevice
p1086
aVreferenceRange
p1087
aVrelated
p1088
aVcomponent
p1089
asVPaymentReconciliation
p1090
(lp1091
Vid
p1092
aVmeta
p1093
aVimplicitRules
p1094
aVlanguage
p1095
aVtext
p1096
aVcontained
p1097
aVextension
p1098
aVmodifierExtension
p1099
aVidentifier
p1100
aVstatus
p1101
aVperiod
p1102
aVcreated
p1103
aVorganization
p1104
aVrequest
p1105
aVoutcome
p1106
aVdisposition
p1107
aVrequestProvider
p1108
aVrequestOrganization
p1109
aVdetail
p1110
aVform
p1111
aVtotal
p1112
aVprocessNote
p1113
asVStructureMap
p1114
(lp1115
Vid
p1116
aVmeta
p1117
aVimplicitRules
p1118
aVlanguage
p1119
aVtext
p1120
aVcontained
p1121
aVextension
p1122
aVmodifierExtension
p1123
aVurl
p1124
aVidentifier
p1125
aVversion
p1126
aVname
p1127
aVtitle
p1128
aVstatus
p1129
aVexperimental
p1130
aVdate
p1131
aVpublisher
p1132
aVcontact
p1133
aVdescription
p1134
aVuseContext
p1135
aVjurisdiction
p1136
aVpurpose
p1137
aVcopyright
p1138
aVstructure
p1139
aVimport
p1140
aVgroup
p1141
asVTestScript
p1142
(lp1143
Vid
p1144
aVmeta
p1145
aVimplicitRules
p1146
aVlanguage
p1147
aVtext
p1148
aVcontained
p1149
aVextension
p1150
aVmodifierExtension
p1151
aVurl
p1152
aVidentifier
p1153
aVversion
p1154
aVname
p1155
aVtitle
p1156
aVstatus
p1157
aVexperimental
p1158
aVdate
p1159
aVpublisher
p1160
aVcontact
p1161
aVdescription
p1162
aVuseContext
p1163
aVjurisdiction
p1164
aVpurpose
p1165
aVcopyright
p1166
aVorigin
p1167
aVdestination
p1168
aVmetadata
p1169
aVfixture
p1170
aVprofile
p1171
aVvariable
p1172
aVrule
p1173
aVruleset
p1174
aVsetup
p1175
aVtest
p1176
aVteardown
p1177
asVImmunization
p1178
(lp1179
Vid
p1180
aVmeta
p1181
aVimplicitRules
p1182
aVlanguage
p1183
aVtext
p1184
aVcontained
p1185
aVextension
p1186
aVmodifierExtension
p1187
aVidentifier
p1188
aVstatus
p1189
aVnotGiven
p1190
aVvaccineCode
p1191
aVpatient
p1192
aVencounter
p1193
aVdate
p1194
aVprimarySource
p1195
aVreportOrigin
p1196
aVlocation
p1197
aVmanufacturer
p1198
aVlotNumber
p1199
aVexpirationDate
p1200
aVsite
p1201
aVroute
p1202
aVdoseQuantity
p1203
aVpractitioner
p1204
aVnote
p1205
aVexplanation
p1206
aVreaction
p1207
aVvaccinationProtocol
p1208
asVCommunicationRequest
p1209
(lp1210
Vid
p1211
aVmeta
p1212
aVimplicitRules
p1213
aVlanguage
p1214
aVtext
p1215
aVcontained
p1216
aVextension
p1217
aVmodifierExtension
p1218
aVidentifier
p1219
aVbasedOn
p1220
aVreplaces
p1221
aVgroupIdentifier
p1222
aVstatus
p1223
aVcategory
p1224
aVpriority
p1225
aVmedium
p1226
aVsubject
p1227
aVrecipient
p1228
aVtopic
p1229
aVcontext
p1230
aVpayload
p1231
aVoccurrenceDateTime
p1232
aVoccurrencePeriod
p1233
aVauthoredOn
p1234
aVsender
p1235
aVrequester
p1236
aVreasonCode
p1237
aVreasonReference
p1238
aVnote
p1239
asVRequestGroup
p1240
(lp1241
Vid
p1242
aVmeta
p1243
aVimplicitRules
p1244
aVlanguage
p1245
aVtext
p1246
aVcontained
p1247
aVextension
p1248
aVmodifierExtension
p1249
aVidentifier
p1250
aVdefinition
p1251
aVbasedOn
p1252
aVreplaces
p1253
aVgroupIdentifier
p1254
aVstatus
p1255
aVintent
p1256
aVpriority
p1257
aVsubject
p1258
aVcontext
p1259
aVauthoredOn
p1260
aVauthor
p1261
aVreasonCodeableConcept
p1262
aVreasonReference
p1263
aVnote
p1264
aVaction
p1265
asVSequence
p1266
(lp1267
Vid
p1268
aVmeta
p1269
aVimplicitRules
p1270
aVlanguage
p1271
aVtext
p1272
aVcontained
p1273
aVextension
p1274
aVmodifierExtension
p1275
aVidentifier
p1276
aVtype
p1277
aVcoordinateSystem
p1278
aVpatient
p1279
aVspecimen
p1280
aVdevice
p1281
aVperformer
p1282
aVquantity
p1283
aVreferenceSeq
p1284
aVvariant
p1285
aVobservedSeq
p1286
aVquality
p1287
aVreadCoverage
p1288
aVrepository
p1289
aVpointer
p1290
asVValueSet
p1291
(lp1292
Vid
p1293
aVmeta
p1294
aVimplicitRules
p1295
aVlanguage
p1296
aVtext
p1297
aVcontained
p1298
aVextension
p1299
aVmodifierExtension
p1300
aVurl
p1301
aVidentifier
p1302
aVversion
p1303
aVname
p1304
aVtitle
p1305
aVstatus
p1306
aVexperimental
p1307
aVdate
p1308
aVpublisher
p1309
aVcontact
p1310
aVdescription
p1311
aVuseContext
p1312
aVjurisdiction
p1313
aVimmutable
p1314
aVpurpose
p1315
aVcopyright
p1316
aVextensible
p1317
aVcompose
p1318
aVexpansion
p1319
asVMedication
p1320
(lp1321
Vid
p1322
aVmeta
p1323
aVimplicitRules
p1324
aVlanguage
p1325
aVtext
p1326
aVcontained
p1327
aVextension
p1328
aVmodifierExtension
p1329
aVcode
p1330
aVstatus
p1331
aVisBrand
p1332
aVisOverTheCounter
p1333
aVmanufacturer
p1334
aVform
p1335
aVingredient
p1336
aVpackage
p1337
aVimage
p1338
asVAdverseEvent
p1339
(lp1340
Vid
p1341
aVmeta
p1342
aVimplicitRules
p1343
aVlanguage
p1344
aVtext
p1345
aVcontained
p1346
aVextension
p1347
aVmodifierExtension
p1348
aVidentifier
p1349
aVcategory
p1350
aVtype
p1351
aVsubject
p1352
aVdate
p1353
aVreaction
p1354
aVlocation
p1355
aVseriousness
p1356
aVoutcome
p1357
aVrecorder
p1358
aVeventParticipant
p1359
aVdescription
p1360
aVsuspectEntity
p1361
aVsubjectMedicalHistory
p1362
aVreferenceDocument
p1363
aVstudy
p1364
asVPractitionerRole
p1365
(lp1366
Vid
p1367
aVmeta
p1368
aVimplicitRules
p1369
aVlanguage
p1370
aVtext
p1371
aVcontained
p1372
aVextension
p1373
aVmodifierExtension
p1374
aVidentifier
p1375
aVactive
p1376
aVperiod
p1377
aVpractitioner
p1378
aVorganization
p1379
aVcode
p1380
aVspecialty
p1381
aVlocation
p1382
aVhealthcareService
p1383
aVtelecom
p1384
aVavailableTime
p1385
aVnotAvailable
p1386
aVavailabilityExceptions
p1387
aVendpoint
p1388
asVCommunication
p1389
(lp1390
Vid
p1391
aVmeta
p1392
aVimplicitRules
p1393
aVlanguage
p1394
aVtext
p1395
aVcontained
p1396
aVextension
p1397
aVmodifierExtension
p1398
aVidentifier
p1399
aVdefinition
p1400
aVbasedOn
p1401
aVpartOf
p1402
aVstatus
p1403
aVnotDone
p1404
aVnotDoneReason
p1405
aVcategory
p1406
aVmedium
p1407
aVsubject
p1408
aVrecipient
p1409
aVtopic
p1410
aVcontext
p1411
aVsent
p1412
aVreceived
p1413
aVsender
p1414
aVreasonCode
p1415
aVreasonReference
p1416
aVpayload
p1417
aVnote
p1418
asVImagingManifest
p1419
(lp1420
Vid
p1421
aVmeta
p1422
aVimplicitRules
p1423
aVlanguage
p1424
aVtext
p1425
aVcontained
p1426
aVextension
p1427
aVmodifierExtension
p1428
aVidentifier
p1429
aVpatient
p1430
aVauthoringTime
p1431
aVauthor
p1432
aVdescription
p1433
aVstudy
p1434
asVCapabilityStatement
p1435
(lp1436
Vid
p1437
aVmeta
p1438
aVimplicitRules
p1439
aVlanguage
p1440
aVtext
p1441
aVcontained
p1442
aVextension
p1443
aVmodifierExtension
p1444
aVurl
p1445
aVversion
p1446
aVname
p1447
aVtitle
p1448
aVstatus
p1449
aVexperimental
p1450
aVdate
p1451
aVpublisher
p1452
aVcontact
p1453
aVdescription
p1454
aVuseContext
p1455
aVjurisdiction
p1456
aVpurpose
p1457
aVcopyright
p1458
aVkind
p1459
aVinstantiates
p1460
aVsoftware
p1461
aVimplementation
p1462
aVfhirVersion
p1463
aVacceptUnknown
p1464
aVformat
p1465
aVpatchFormat
p1466
aVimplementationGuide
p1467
aVprofile
p1468
aVrest
p1469
aVmessaging
p1470
aVdocument
p1471
asVProcessRequest
p1472
(lp1473
Vid
p1474
aVmeta
p1475
aVimplicitRules
p1476
aVlanguage
p1477
aVtext
p1478
aVcontained
p1479
aVextension
p1480
aVmodifierExtension
p1481
aVidentifier
p1482
aVstatus
p1483
aVaction
p1484
aVtarget
p1485
aVcreated
p1486
aVprovider
p1487
aVorganization
p1488
aVrequest
p1489
aVresponse
p1490
aVnullify
p1491
aVreference
p1492
aVitem
p1493
aVinclude
p1494
aVexclude
p1495
aVperiod
p1496
asVFamilyMemberHistory
p1497
(lp1498
Vid
p1499
aVmeta
p1500
aVimplicitRules
p1501
aVlanguage
p1502
aVtext
p1503
aVcontained
p1504
aVextension
p1505
aVmodifierExtension
p1506
aVidentifier
p1507
aVdefinition
p1508
aVstatus
p1509
aVnotDone
p1510
aVnotDoneReason
p1511
aVpatient
p1512
aVdate
p1513
aVname
p1514
aVrelationship
p1515
aVgender
p1516
aVbornPeriod
p1517
aVbornDate
p1518
aVbornString
p1519
aVageAge
p1520
aVageRange
p1521
aVageString
p1522
aVestimatedAge
p1523
aVdeceasedBoolean
p1524
aVdeceasedAge
p1525
aVdeceasedRange
p1526
aVdeceasedDate
p1527
aVdeceasedString
p1528
aVreasonCode
p1529
aVreasonReference
p1530
aVnote
p1531
aVcondition
p1532
asVBinary
p1533
(lp1534
Vid
p1535
aVmeta
p1536
aVimplicitRules
p1537
aVlanguage
p1538
aVcontentType
p1539
aVsecurityContext
p1540
aVcontent
p1541
asVGroup
p1542
(lp1543
Vid
p1544
aVmeta
p1545
aVimplicitRules
p1546
aVlanguage
p1547
aVtext
p1548
aVcontained
p1549
aVextension
p1550
aVmodifierExtension
p1551
aVidentifier
p1552
aVactive
p1553
aVtype
p1554
aVactual
p1555
aVcode
p1556
aVname
p1557
aVquantity
p1558
aVcharacteristic
p1559
aVmember
p1560
asVRiskAssessment
p1561
(lp1562
Vid
p1563
aVmeta
p1564
aVimplicitRules
p1565
aVlanguage
p1566
aVtext
p1567
aVcontained
p1568
aVextension
p1569
aVmodifierExtension
p1570
aVidentifier
p1571
aVbasedOn
p1572
aVparent
p1573
aVstatus
p1574
aVmethod
p1575
aVcode
p1576
aVsubject
p1577
aVcontext
p1578
aVoccurrenceDateTime
p1579
aVoccurrencePeriod
p1580
aVcondition
p1581
aVperformer
p1582
aVreasonCodeableConcept
p1583
aVreasonReference
p1584
aVbasis
p1585
aVprediction
p1586
aVmitigation
p1587
aVcomment
p1588
asVImagingStudy
p1589
(lp1590
Vid
p1591
aVmeta
p1592
aVimplicitRules
p1593
aVlanguage
p1594
aVtext
p1595
aVcontained
p1596
aVextension
p1597
aVmodifierExtension
p1598
aVuid
p1599
aVaccession
p1600
aVidentifier
p1601
aVavailability
p1602
aVmodalityList
p1603
aVpatient
p1604
aVcontext
p1605
aVstarted
p1606
aVbasedOn
p1607
aVreferrer
p1608
aVinterpreter
p1609
aVendpoint
p1610
aVnumberOfSeries
p1611
aVnumberOfInstances
p1612
aVprocedureReference
p1613
aVprocedureCode
p1614
aVreason
p1615
aVdescription
p1616
aVseries
p1617
asVDeviceRequest
p1618
(lp1619
Vid
p1620
aVmeta
p1621
aVimplicitRules
p1622
aVlanguage
p1623
aVtext
p1624
aVcontained
p1625
aVextension
p1626
aVmodifierExtension
p1627
aVidentifier
p1628
aVdefinition
p1629
aVbasedOn
p1630
aVpriorRequest
p1631
aVgroupIdentifier
p1632
aVstatus
p1633
aVintent
p1634
aVpriority
p1635
aVcodeReference
p1636
aVcodeCodeableConcept
p1637
aVsubject
p1638
aVcontext
p1639
aVoccurrenceDateTime
p1640
aVoccurrencePeriod
p1641
aVoccurrenceTiming
p1642
aVauthoredOn
p1643
aVrequester
p1644
aVperformerType
p1645
aVperformer
p1646
aVreasonCode
p1647
aVreasonReference
p1648
aVsupportingInfo
p1649
aVnote
p1650
aVrelevantHistory
p1651
asVGuidanceResponse
p1652
(lp1653
Vid
p1654
aVmeta
p1655
aVimplicitRules
p1656
aVlanguage
p1657
aVtext
p1658
aVcontained
p1659
aVextension
p1660
aVmodifierExtension
p1661
aVrequestId
p1662
aVidentifier
p1663
aVmodule
p1664
aVstatus
p1665
aVsubject
p1666
aVcontext
p1667
aVoccurrenceDateTime
p1668
aVperformer
p1669
aVreasonCodeableConcept
p1670
aVreasonReference
p1671
aVnote
p1672
aVevaluationMessage
p1673
aVoutputParameters
p1674
aVresult
p1675
aVdataRequirement
p1676
asVBasic
p1677
(lp1678
Vid
p1679
aVmeta
p1680
aVimplicitRules
p1681
aVlanguage
p1682
aVtext
p1683
aVcontained
p1684
aVextension
p1685
aVmodifierExtension
p1686
aVidentifier
p1687
aVcode
p1688
aVsubject
p1689
aVcreated
p1690
aVauthor
p1691
asVAppointment
p1692
(lp1693
Vid
p1694
aVmeta
p1695
aVimplicitRules
p1696
aVlanguage
p1697
aVtext
p1698
aVcontained
p1699
aVextension
p1700
aVmodifierExtension
p1701
aVidentifier
p1702
aVstatus
p1703
aVserviceCategory
p1704
aVserviceType
p1705
aVspecialty
p1706
aVappointmentType
p1707
aVreason
p1708
aVindication
p1709
aVpriority
p1710
aVdescription
p1711
aVsupportingInformation
p1712
aVstart
p1713
aVend
p1714
aVminutesDuration
p1715
aVslot
p1716
aVcreated
p1717
aVcomment
p1718
aVincomingReferral
p1719
aVparticipant
p1720
aVrequestedPeriod
p1721
asVOperationOutcome
p1722
(lp1723
Vid
p1724
aVmeta
p1725
aVimplicitRules
p1726
aVlanguage
p1727
aVtext
p1728
aVcontained
p1729
aVextension
p1730
aVmodifierExtension
p1731
aVissue
p1732
asVProcedureRequest
p1733
(lp1734
Vid
p1735
aVmeta
p1736
aVimplicitRules
p1737
aVlanguage
p1738
aVtext
p1739
aVcontained
p1740
aVextension
p1741
aVmodifierExtension
p1742
aVidentifier
p1743
aVdefinition
p1744
aVbasedOn
p1745
aVreplaces
p1746
aVrequisition
p1747
aVstatus
p1748
aVintent
p1749
aVpriority
p1750
aVdoNotPerform
p1751
aVcategory
p1752
aVcode
p1753
aVsubject
p1754
aVcontext
p1755
aVoccurrenceDateTime
p1756
aVoccurrencePeriod
p1757
aVoccurrenceTiming
p1758
aVasNeededBoolean
p1759
aVasNeededCodeableConcept
p1760
aVauthoredOn
p1761
aVrequester
p1762
aVperformerType
p1763
aVperformer
p1764
aVreasonCode
p1765
aVreasonReference
p1766
aVsupportingInfo
p1767
aVspecimen
p1768
aVbodySite
p1769
aVnote
p1770
aVrelevantHistory
p1771
asVBundle
p1772
(lp1773
Vid
p1774
aVmeta
p1775
aVimplicitRules
p1776
aVlanguage
p1777
aVidentifier
p1778
aVtype
p1779
aVtotal
p1780
aVlink
p1781
aVentry
p1782
aVsignature
p1783
asVCoverage
p1784
(lp1785
Vid
p1786
aVmeta
p1787
aVimplicitRules
p1788
aVlanguage
p1789
aVtext
p1790
aVcontained
p1791
aVextension
p1792
aVmodifierExtension
p1793
aVidentifier
p1794
aVstatus
p1795
aVtype
p1796
aVpolicyHolder
p1797
aVsubscriber
p1798
aVsubscriberId
p1799
aVbeneficiary
p1800
aVrelationship
p1801
aVperiod
p1802
aVpayor
p1803
aVgrouping
p1804
aVdependent
p1805
aVsequence
p1806
aVorder
p1807
aVnetwork
p1808
aVcontract
p1809
asVDevice
p1810
(lp1811
Vid
p1812
aVmeta
p1813
aVimplicitRules
p1814
aVlanguage
p1815
aVtext
p1816
aVcontained
p1817
aVextension
p1818
aVmodifierExtension
p1819
aVidentifier
p1820
aVudi
p1821
aVstatus
p1822
aVtype
p1823
aVlotNumber
p1824
aVmanufacturer
p1825
aVmanufactureDate
p1826
aVexpirationDate
p1827
aVmodel
p1828
aVversion
p1829
aVpatient
p1830
aVowner
p1831
aVcontact
p1832
aVlocation
p1833
aVurl
p1834
aVnote
p1835
aVsafety
p1836
asVDomainResource
p1837
(lp1838
Vid
p1839
aVmeta
p1840
aVimplicitRules
p1841
aVlanguage
p1842
aVtext
p1843
aVcontained
p1844
aVextension
p1845
aVmodifierExtension
p1846
asVCondition
p1847
(lp1848
Vid
p1849
aVmeta
p1850
aVimplicitRules
p1851
aVlanguage
p1852
aVtext
p1853
aVcontained
p1854
aVextension
p1855
aVmodifierExtension
p1856
aVidentifier
p1857
aVclinicalStatus
p1858
aVverificationStatus
p1859
aVcategory
p1860
aVseverity
p1861
aVcode
p1862
aVbodySite
p1863
aVsubject
p1864
aVcontext
p1865
aVonsetDateTime
p1866
aVonsetAge
p1867
aVonsetPeriod
p1868
aVonsetRange
p1869
aVonsetString
p1870
aVabatementDateTime
p1871
aVabatementAge
p1872
aVabatementBoolean
p1873
aVabatementPeriod
p1874
aVabatementRange
p1875
aVabatementString
p1876
aVassertedDate
p1877
aVasserter
p1878
aVstage
p1879
aVevidence
p1880
aVnote
p1881
asVEligibilityRequest
p1882
(lp1883
Vid
p1884
aVmeta
p1885
aVimplicitRules
p1886
aVlanguage
p1887
aVtext
p1888
aVcontained
p1889
aVextension
p1890
aVmodifierExtension
p1891
aVidentifier
p1892
aVstatus
p1893
aVpriority
p1894
aVpatient
p1895
aVservicedDate
p1896
aVservicedPeriod
p1897
aVcreated
p1898
aVenterer
p1899
aVprovider
p1900
aVorganization
p1901
aVinsurer
p1902
aVfacility
p1903
aVcoverage
p1904
aVbusinessArrangement
p1905
aVbenefitCategory
p1906
aVbenefitSubCategory
p1907
asVDeviceUseStatement
p1908
(lp1909
Vid
p1910
aVmeta
p1911
aVimplicitRules
p1912
aVlanguage
p1913
aVtext
p1914
aVcontained
p1915
aVextension
p1916
aVmodifierExtension
p1917
aVidentifier
p1918
aVstatus
p1919
aVsubject
p1920
aVwhenUsed
p1921
aVtimingTiming
p1922
aVtimingPeriod
p1923
aVtimingDateTime
p1924
aVrecordedOn
p1925
aVsource
p1926
aVdevice
p1927
aVindication
p1928
aVbodySite
p1929
aVnote
p1930
asVDetectedIssue
p1931
(lp1932
Vid
p1933
aVmeta
p1934
aVimplicitRules
p1935
aVlanguage
p1936
aVtext
p1937
aVcontained
p1938
aVextension
p1939
aVmodifierExtension
p1940
aVidentifier
p1941
aVstatus
p1942
aVcategory
p1943
aVseverity
p1944
aVpatient
p1945
aVdate
p1946
aVauthor
p1947
aVimplicated
p1948
aVdetail
p1949
aVreference
p1950
aVmitigation
p1951
asVChargeItem
p1952
(lp1953
Vid
p1954
aVmeta
p1955
aVimplicitRules
p1956
aVlanguage
p1957
aVtext
p1958
aVcontained
p1959
aVextension
p1960
aVmodifierExtension
p1961
aVidentifier
p1962
aVdefinition
p1963
aVstatus
p1964
aVpartOf
p1965
aVcode
p1966
aVsubject
p1967
aVcontext
p1968
aVoccurrenceDateTime
p1969
aVoccurrencePeriod
p1970
aVoccurrenceTiming
p1971
aVparticipant
p1972
aVperformingOrganization
p1973
aVrequestingOrganization
p1974
aVquantity
p1975
aVbodysite
p1976
aVfactorOverride
p1977
aVpriceOverride
p1978
aVoverrideReason
p1979
aVenterer
p1980
aVenteredDate
p1981
aVreason
p1982
aVservice
p1983
aVaccount
p1984
aVnote
p1985
aVsupportingInformation
p1986
asVContract
p1987
(lp1988
Vid
p1989
aVmeta
p1990
aVimplicitRules
p1991
aVlanguage
p1992
aVtext
p1993
aVcontained
p1994
aVextension
p1995
aVmodifierExtension
p1996
aVidentifier
p1997
aVstatus
p1998
aVissued
p1999
aVapplies
p2000
aVsubject
p2001
aVtopic
p2002
aVauthority
p2003
aVdomain
p2004
aVtype
p2005
aVsubType
p2006
aVaction
p2007
aVactionReason
p2008
aVdecisionType
p2009
aVcontentDerivative
p2010
aVsecurityLabel
p2011
aVagent
p2012
aVsigner
p2013
aVvaluedItem
p2014
aVterm
p2015
aVbindingAttachment
p2016
aVbindingReference
p2017
aVbindingReference
p2018
aVbindingReference
p2019
aVfriendly
p2020
aVlegal
p2021
aVrule
p2022
asVPerson
p2023
(lp2024
Vid
p2025
aVmeta
p2026
aVimplicitRules
p2027
aVlanguage
p2028
aVtext
p2029
aVcontained
p2030
aVextension
p2031
aVmodifierExtension
p2032
aVidentifier
p2033
aVname
p2034
aVtelecom
p2035
aVgender
p2036
aVbirthDate
p2037
aVaddress
p2038
aVphoto
p2039
aVmanagingOrganization
p2040
aVactive
p2041
aVlink
p2042
asVReferralRequest
p2043
(lp2044
Vid
p2045
aVmeta
p2046
aVimplicitRules
p2047
aVlanguage
p2048
aVtext
p2049
aVcontained
p2050
aVextension
p2051
aVmodifierExtension
p2052
aVidentifier
p2053
aVdefinition
p2054
aVbasedOn
p2055
aVreplaces
p2056
aVgroupIdentifier
p2057
aVstatus
p2058
aVintent
p2059
aVtype
p2060
aVpriority
p2061
aVserviceRequested
p2062
aVsubject
p2063
aVcontext
p2064
aVoccurrenceDateTime
p2065
aVoccurrencePeriod
p2066
aVauthoredOn
p2067
aVrequester
p2068
aVspecialty
p2069
aVrecipient
p2070
aVreasonCode
p2071
aVreasonReference
p2072
aVdescription
p2073
aVsupportingInfo
p2074
aVnote
p2075
aVrelevantHistory
p2076
asVDeviceComponent
p2077
(lp2078
Vid
p2079
aVmeta
p2080
aVimplicitRules
p2081
aVlanguage
p2082
aVtext
p2083
aVcontained
p2084
aVextension
p2085
aVmodifierExtension
p2086
aVidentifier
p2087
aVtype
p2088
aVlastSystemChange
p2089
aVsource
p2090
aVparent
p2091
aVoperationalStatus
p2092
aVparameterGroup
p2093
aVmeasurementPrinciple
p2094
aVproductionSpecification
p2095
aVlanguageCode
p2096
asVProcedure
p2097
(lp2098
Vid
p2099
aVmeta
p2100
aVimplicitRules
p2101
aVlanguage
p2102
aVtext
p2103
aVcontained
p2104
aVextension
p2105
aVmodifierExtension
p2106
aVidentifier
p2107
aVdefinition
p2108
aVbasedOn
p2109
aVpartOf
p2110
aVstatus
p2111
aVnotDone
p2112
aVnotDoneReason
p2113
aVcategory
p2114
aVcode
p2115
aVsubject
p2116
aVcontext
p2117
aVperformedDateTime
p2118
aVperformedPeriod
p2119
aVperformer
p2120
aVlocation
p2121
aVreasonCode
p2122
aVreasonReference
p2123
aVbodySite
p2124
aVoutcome
p2125
aVreport
p2126
aVcomplication
p2127
aVcomplicationDetail
p2128
aVfollowUp
p2129
aVnote
p2130
aVfocalDevice
p2131
aVusedReference
p2132
aVusedCode
p2133
asVClaim
p2134
(lp2135
Vid
p2136
aVmeta
p2137
aVimplicitRules
p2138
aVlanguage
p2139
aVtext
p2140
aVcontained
p2141
aVextension
p2142
aVmodifierExtension
p2143
aVidentifier
p2144
aVstatus
p2145
aVtype
p2146
aVsubType
p2147
aVuse
p2148
aVpatient
p2149
aVbillablePeriod
p2150
aVcreated
p2151
aVenterer
p2152
aVinsurer
p2153
aVprovider
p2154
aVorganization
p2155
aVpriority
p2156
aVfundsReserve
p2157
aVrelated
p2158
aVprescription
p2159
aVoriginalPrescription
p2160
aVpayee
p2161
aVreferral
p2162
aVfacility
p2163
aVcareTeam
p2164
aVinformation
p2165
aVdiagnosis
p2166
aVprocedure
p2167
aVinsurance
p2168
aVaccident
p2169
aVemploymentImpacted
p2170
aVhospitalization
p2171
aVitem
p2172
aVtotal
p2173
asVOperationDefinition
p2174
(lp2175
Vid
p2176
aVmeta
p2177
aVimplicitRules
p2178
aVlanguage
p2179
aVtext
p2180
aVcontained
p2181
aVextension
p2182
aVmodifierExtension
p2183
aVurl
p2184
aVversion
p2185
aVname
p2186
aVstatus
p2187
aVkind
p2188
aVexperimental
p2189
aVdate
p2190
aVpublisher
p2191
aVcontact
p2192
aVdescription
p2193
aVuseContext
p2194
aVjurisdiction
p2195
aVpurpose
p2196
aVidempotent
p2197
aVcode
p2198
aVcomment
p2199
aVbase
p2200
aVresource
p2201
aVsystem
p2202
aVtype
p2203
aVinstance
p2204
aVparameter
p2205
aVoverload
p2206
asVDiagnosticReport
p2207
(lp2208
Vid
p2209
aVmeta
p2210
aVimplicitRules
p2211
aVlanguage
p2212
aVtext
p2213
aVcontained
p2214
aVextension
p2215
aVmodifierExtension
p2216
aVidentifier
p2217
aVbasedOn
p2218
aVstatus
p2219
aVcategory
p2220
aVcode
p2221
aVsubject
p2222
aVcontext
p2223
aVeffectiveDateTime
p2224
aVeffectivePeriod
p2225
aVissued
p2226
aVperformer
p2227
aVspecimen
p2228
aVresult
p2229
aVimagingStudy
p2230
aVimage
p2231
aVconclusion
p2232
aVcodedDiagnosis
p2233
aVpresentedForm
p2234
asVLibrary
p2235
(lp2236
Vid
p2237
aVmeta
p2238
aVimplicitRules
p2239
aVlanguage
p2240
aVtext
p2241
aVcontained
p2242
aVextension
p2243
aVmodifierExtension
p2244
aVurl
p2245
aVidentifier
p2246
aVversion
p2247
aVname
p2248
aVtitle
p2249
aVstatus
p2250
aVexperimental
p2251
aVtype
p2252
aVdate
p2253
aVpublisher
p2254
aVdescription
p2255
aVpurpose
p2256
aVusage
p2257
aVapprovalDate
p2258
aVlastReviewDate
p2259
aVeffectivePeriod
p2260
aVuseContext
p2261
aVjurisdiction
p2262
aVtopic
p2263
aVcontributor
p2264
aVcontact
p2265
aVcopyright
p2266
aVrelatedArtifact
p2267
aVparameter
p2268
aVdataRequirement
p2269
aVcontent
p2270
asVStructureDefinition
p2271
(lp2272
Vid
p2273
aVmeta
p2274
aVimplicitRules
p2275
aVlanguage
p2276
aVtext
p2277
aVcontained
p2278
aVextension
p2279
aVmodifierExtension
p2280
aVurl
p2281
aVidentifier
p2282
aVversion
p2283
aVname
p2284
aVtitle
p2285
aVstatus
p2286
aVexperimental
p2287
aVdate
p2288
aVpublisher
p2289
aVcontact
p2290
aVdescription
p2291
aVuseContext
p2292
aVjurisdiction
p2293
aVpurpose
p2294
aVcopyright
p2295
aVkeyword
p2296
aVfhirVersion
p2297
aVmapping
p2298
aVkind
p2299
aVabstract
p2300
aVcontextType
p2301
aVcontext
p2302
aVcontextInvariant
p2303
aVtype
p2304
aVbaseDefinition
p2305
aVderivation
p2306
aVsnapshot
p2307
aVdifferential
p2308
asVMeasure
p2309
(lp2310
Vid
p2311
aVmeta
p2312
aVimplicitRules
p2313
aVlanguage
p2314
aVtext
p2315
aVcontained
p2316
aVextension
p2317
aVmodifierExtension
p2318
aVurl
p2319
aVidentifier
p2320
aVversion
p2321
aVname
p2322
aVtitle
p2323
aVstatus
p2324
aVexperimental
p2325
aVdate
p2326
aVpublisher
p2327
aVdescription
p2328
aVpurpose
p2329
aVusage
p2330
aVapprovalDate
p2331
aVlastReviewDate
p2332
aVeffectivePeriod
p2333
aVuseContext
p2334
aVjurisdiction
p2335
aVtopic
p2336
aVcontributor
p2337
aVcontact
p2338
aVcopyright
p2339
aVrelatedArtifact
p2340
aVlibrary
p2341
aVdisclaimer
p2342
aVscoring
p2343
aVcompositeScoring
p2344
aVtype
p2345
aVriskAdjustment
p2346
aVrateAggregation
p2347
aVrationale
p2348
aVclinicalRecommendationStatement
p2349
aVimprovementNotation
p2350
aVdefinition
p2351
aVguidance
p2352
aVset
p2353
aVgroup
p2354
aVsupplementalData
p2355
asVQuestionnaire
p2356
(lp2357
Vid
p2358
aVmeta
p2359
aVimplicitRules
p2360
aVlanguage
p2361
aVtext
p2362
aVcontained
p2363
aVextension
p2364
aVmodifierExtension
p2365
aVurl
p2366
aVidentifier
p2367
aVversion
p2368
aVname
p2369
aVtitle
p2370
aVstatus
p2371
aVexperimental
p2372
aVdate
p2373
aVpublisher
p2374
aVdescription
p2375
aVpurpose
p2376
aVapprovalDate
p2377
aVlastReviewDate
p2378
aVeffectivePeriod
p2379
aVuseContext
p2380
aVjurisdiction
p2381
aVcontact
p2382
aVcopyright
p2383
aVcode
p2384
aVsubjectType
p2385
aVitem
p2386
asVConceptMap
p2387
(lp2388
Vid
p2389
aVmeta
p2390
aVimplicitRules
p2391
aVlanguage
p2392
aVtext
p2393
aVcontained
p2394
aVextension
p2395
aVmodifierExtension
p2396
aVurl
p2397
aVidentifier
p2398
aVversion
p2399
aVname
p2400
aVtitle
p2401
aVstatus
p2402
aVexperimental
p2403
aVdate
p2404
aVpublisher
p2405
aVcontact
p2406
aVdescription
p2407
aVuseContext
p2408
aVjurisdiction
p2409
aVpurpose
p2410
aVcopyright
p2411
aVsourceUri
p2412
aVsourceReference
p2413
aVtargetUri
p2414
aVtargetReference
p2415
aVgroup
p2416
asVEligibilityResponse
p2417
(lp2418
Vid
p2419
aVmeta
p2420
aVimplicitRules
p2421
aVlanguage
p2422
aVtext
p2423
aVcontained
p2424
aVextension
p2425
aVmodifierExtension
p2426
aVidentifier
p2427
aVstatus
p2428
aVcreated
p2429
aVrequestProvider
p2430
aVrequestOrganization
p2431
aVrequest
p2432
aVoutcome
p2433
aVdisposition
p2434
aVinsurer
p2435
aVinforce
p2436
aVinsurance
p2437
aVform
p2438
aVerror
p2439
asVSlot
p2440
(lp2441
Vid
p2442
aVmeta
p2443
aVimplicitRules
p2444
aVlanguage
p2445
aVtext
p2446
aVcontained
p2447
aVextension
p2448
aVmodifierExtension
p2449
aVidentifier
p2450
aVserviceCategory
p2451
aVserviceType
p2452
aVspecialty
p2453
aVappointmentType
p2454
aVschedule
p2455
aVstatus
p2456
aVstart
p2457
aVend
p2458
aVoverbooked
p2459
aVcomment
p2460
asVCarePlan
p2461
(lp2462
Vid
p2463
aVmeta
p2464
aVimplicitRules
p2465
aVlanguage
p2466
aVtext
p2467
aVcontained
p2468
aVextension
p2469
aVmodifierExtension
p2470
aVidentifier
p2471
aVdefinition
p2472
aVbasedOn
p2473
aVreplaces
p2474
aVpartOf
p2475
aVstatus
p2476
aVintent
p2477
aVcategory
p2478
aVtitle
p2479
aVdescription
p2480
aVsubject
p2481
aVcontext
p2482
aVperiod
p2483
aVauthor
p2484
aVcareTeam
p2485
aVaddresses
p2486
aVsupportingInfo
p2487
aVgoal
p2488
aVactivity
p2489
aVnote
p2490
asVMedia
p2491
(lp2492
Vid
p2493
aVmeta
p2494
aVimplicitRules
p2495
aVlanguage
p2496
aVtext
p2497
aVcontained
p2498
aVextension
p2499
aVmodifierExtension
p2500
aVidentifier
p2501
aVbasedOn
p2502
aVtype
p2503
aVsubtype
p2504
aVview
p2505
aVsubject
p2506
aVcontext
p2507
aVoccurrenceDateTime
p2508
aVoccurrencePeriod
p2509
aVoperator
p2510
aVreasonCode
p2511
aVbodySite
p2512
aVdevice
p2513
aVheight
p2514
aVwidth
p2515
aVframes
p2516
aVduration
p2517
aVcontent
p2518
aVnote
p2519
asVHealthcareService
p2520
(lp2521
Vid
p2522
aVmeta
p2523
aVimplicitRules
p2524
aVlanguage
p2525
aVtext
p2526
aVcontained
p2527
aVextension
p2528
aVmodifierExtension
p2529
aVidentifier
p2530
aVactive
p2531
aVprovidedBy
p2532
aVcategory
p2533
aVtype
p2534
aVspecialty
p2535
aVlocation
p2536
aVname
p2537
aVcomment
p2538
aVextraDetails
p2539
aVphoto
p2540
aVtelecom
p2541
aVcoverageArea
p2542
aVserviceProvisionCode
p2543
aVeligibility
p2544
aVeligibilityNote
p2545
aVprogramName
p2546
aVcharacteristic
p2547
aVreferralMethod
p2548
aVappointmentRequired
p2549
aVavailableTime
p2550
aVnotAvailable
p2551
aVavailabilityExceptions
p2552
aVendpoint
p2553
asVVisionPrescription
p2554
(lp2555
Vid
p2556
aVmeta
p2557
aVimplicitRules
p2558
aVlanguage
p2559
aVtext
p2560
aVcontained
p2561
aVextension
p2562
aVmodifierExtension
p2563
aVidentifier
p2564
aVstatus
p2565
aVpatient
p2566
aVencounter
p2567
aVdateWritten
p2568
aVprescriber
p2569
aVreasonCodeableConcept
p2570
aVreasonReference
p2571
aVdispense
p2572
asVAllergyIntolerance
p2573
(lp2574
Vid
p2575
aVmeta
p2576
aVimplicitRules
p2577
aVlanguage
p2578
aVtext
p2579
aVcontained
p2580
aVextension
p2581
aVmodifierExtension
p2582
aVidentifier
p2583
aVclinicalStatus
p2584
aVverificationStatus
p2585
aVtype
p2586
aVcategory
p2587
aVcriticality
p2588
aVcode
p2589
aVpatient
p2590
aVonsetDateTime
p2591
aVonsetAge
p2592
aVonsetPeriod
p2593
aVonsetRange
p2594
aVonsetString
p2595
aVassertedDate
p2596
aVrecorder
p2597
aVasserter
p2598
aVlastOccurrence
p2599
aVnote
p2600
aVreaction
p2601
asVNutritionOrder
p2602
(lp2603
Vid
p2604
aVmeta
p2605
aVimplicitRules
p2606
aVlanguage
p2607
aVtext
p2608
aVcontained
p2609
aVextension
p2610
aVmodifierExtension
p2611
aVidentifier
p2612
aVstatus
p2613
aVpatient
p2614
aVencounter
p2615
aVdateTime
p2616
aVorderer
p2617
aVallergyIntolerance
p2618
aVfoodPreferenceModifier
p2619
aVexcludeFoodModifier
p2620
aVoralDiet
p2621
aVsupplement
p2622
aVenteralFormula
p2623
asVEnrollmentRequest
p2624
(lp2625
Vid
p2626
aVmeta
p2627
aVimplicitRules
p2628
aVlanguage
p2629
aVtext
p2630
aVcontained
p2631
aVextension
p2632
aVmodifierExtension
p2633
aVidentifier
p2634
aVstatus
p2635
aVcreated
p2636
aVinsurer
p2637
aVprovider
p2638
aVorganization
p2639
aVsubject
p2640
aVcoverage
p2641
asVComposition
p2642
(lp2643
Vid
p2644
aVmeta
p2645
aVimplicitRules
p2646
aVlanguage
p2647
aVtext
p2648
aVcontained
p2649
aVextension
p2650
aVmodifierExtension
p2651
aVidentifier
p2652
aVstatus
p2653
aVtype
p2654
aVclass
p2655
aVsubject
p2656
aVencounter
p2657
aVdate
p2658
aVauthor
p2659
aVtitle
p2660
aVconfidentiality
p2661
aVattester
p2662
aVcustodian
p2663
aVrelatesTo
p2664
aVevent
p2665
aVsection
p2666
asVRelatedPerson
p2667
(lp2668
Vid
p2669
aVmeta
p2670
aVimplicitRules
p2671
aVlanguage
p2672
aVtext
p2673
aVcontained
p2674
aVextension
p2675
aVmodifierExtension
p2676
aVidentifier
p2677
aVactive
p2678
aVpatient
p2679
aVrelationship
p2680
aVname
p2681
aVtelecom
p2682
aVgender
p2683
aVbirthDate
p2684
aVaddress
p2685
aVphoto
p2686
aVperiod
p2687
asVSpecimen
p2688
(lp2689
Vid
p2690
aVmeta
p2691
aVimplicitRules
p2692
aVlanguage
p2693
aVtext
p2694
aVcontained
p2695
aVextension
p2696
aVmodifierExtension
p2697
aVidentifier
p2698
aVaccessionIdentifier
p2699
aVstatus
p2700
aVtype
p2701
aVsubject
p2702
aVreceivedTime
p2703
aVparent
p2704
aVrequest
p2705
aVcollection
p2706
aVprocessing
p2707
aVcontainer
p2708
aVnote
p2709
asVConsent
p2710
(lp2711
Vid
p2712
aVmeta
p2713
aVimplicitRules
p2714
aVlanguage
p2715
aVtext
p2716
aVcontained
p2717
aVextension
p2718
aVmodifierExtension
p2719
aVidentifier
p2720
aVstatus
p2721
aVcategory
p2722
aVpatient
p2723
aVperiod
p2724
aVdateTime
p2725
aVconsentingParty
p2726
aVactor
p2727
aVaction
p2728
aVorganization
p2729
aVsourceAttachment
p2730
aVsourceIdentifier
p2731
aVsourceReference
p2732
aVsourceReference
p2733
aVsourceReference
p2734
aVsourceReference
p2735
aVpolicy
p2736
aVpolicyRule
p2737
aVsecurityLabel
p2738
aVpurpose
p2739
aVdataPeriod
p2740
aVdata
p2741
aVexcept
p2742
asVSearchParameter
p2743
(lp2744
Vid
p2745
aVmeta
p2746
aVimplicitRules
p2747
aVlanguage
p2748
aVtext
p2749
aVcontained
p2750
aVextension
p2751
aVmodifierExtension
p2752
aVurl
p2753
aVversion
p2754
aVname
p2755
aVstatus
p2756
aVexperimental
p2757
aVdate
p2758
aVpublisher
p2759
aVcontact
p2760
aVuseContext
p2761
aVjurisdiction
p2762
aVpurpose
p2763
aVcode
p2764
aVbase
p2765
aVtype
p2766
aVderivedFrom
p2767
aVdescription
p2768
aVexpression
p2769
aVxpath
p2770
aVxpathUsage
p2771
aVtarget
p2772
aVcomparator
p2773
aVmodifier
p2774
aVchain
p2775
aVcomponent
p2776
asVAppointmentResponse
p2777
(lp2778
Vid
p2779
aVmeta
p2780
aVimplicitRules
p2781
aVlanguage
p2782
aVtext
p2783
aVcontained
p2784
aVextension
p2785
aVmodifierExtension
p2786
aVidentifier
p2787
aVappointment
p2788
aVstart
p2789
aVend
p2790
aVparticipantType
p2791
aVactor
p2792
aVparticipantStatus
p2793
aVcomment
p2794
asVClaimResponse
p2795
(lp2796
Vid
p2797
aVmeta
p2798
aVimplicitRules
p2799
aVlanguage
p2800
aVtext
p2801
aVcontained
p2802
aVextension
p2803
aVmodifierExtension
p2804
aVidentifier
p2805
aVstatus
p2806
aVpatient
p2807
aVcreated
p2808
aVinsurer
p2809
aVrequestProvider
p2810
aVrequestOrganization
p2811
aVrequest
p2812
aVoutcome
p2813
aVdisposition
p2814
aVpayeeType
p2815
aVitem
p2816
aVaddItem
p2817
aVerror
p2818
aVtotalCost
p2819
aVunallocDeductable
p2820
aVtotalBenefit
p2821
aVpayment
p2822
aVreserved
p2823
aVform
p2824
aVprocessNote
p2825
aVcommunicationRequest
p2826
aVinsurance
p2827
asVResearchStudy
p2828
(lp2829
Vid
p2830
aVmeta
p2831
aVimplicitRules
p2832
aVlanguage
p2833
aVtext
p2834
aVcontained
p2835
aVextension
p2836
aVmodifierExtension
p2837
aVidentifier
p2838
aVtitle
p2839
aVprotocol
p2840
aVpartOf
p2841
aVstatus
p2842
aVcategory
p2843
aVfocus
p2844
aVcontact
p2845
aVrelatedArtifact
p2846
aVkeyword
p2847
aVjurisdiction
p2848
aVdescription
p2849
aVenrollment
p2850
aVperiod
p2851
aVsponsor
p2852
aVprincipalInvestigator
p2853
aVsite
p2854
aVreasonStopped
p2855
aVnote
p2856
aVarm
p2857
asVEpisodeOfCare
p2858
(lp2859
Vid
p2860
aVmeta
p2861
aVimplicitRules
p2862
aVlanguage
p2863
aVtext
p2864
aVcontained
p2865
aVextension
p2866
aVmodifierExtension
p2867
aVidentifier
p2868
aVstatus
p2869
aVstatusHistory
p2870
aVtype
p2871
aVdiagnosis
p2872
aVpatient
p2873
aVmanagingOrganization
p2874
aVperiod
p2875
aVreferralRequest
p2876
aVcareManager
p2877
aVteam
p2878
aVaccount
p2879
asVEndpoint
p2880
(lp2881
Vid
p2882
aVmeta
p2883
aVimplicitRules
p2884
aVlanguage
p2885
aVtext
p2886
aVcontained
p2887
aVextension
p2888
aVmodifierExtension
p2889
aVidentifier
p2890
aVstatus
p2891
aVconnectionType
p2892
aVname
p2893
aVmanagingOrganization
p2894
aVcontact
p2895
aVperiod
p2896
aVpayloadType
p2897
aVpayloadMimeType
p2898
aVaddress
p2899
aVheader
p2900
asVResource
p2901
(lp2902
Vid
p2903
aVmeta
p2904
aVimplicitRules
p2905
aVlanguage
p2906
asVDeviceMetric
p2907
(lp2908
Vid
p2909
aVmeta
p2910
aVimplicitRules
p2911
aVlanguage
p2912
aVtext
p2913
aVcontained
p2914
aVextension
p2915
aVmodifierExtension
p2916
aVidentifier
p2917
aVtype
p2918
aVunit
p2919
aVsource
p2920
aVparent
p2921
aVoperationalStatus
p2922
aVcolor
p2923
aVcategory
p2924
aVmeasurementPeriod
p2925
aVcalibration
p2926
asVList
p2927
(lp2928
Vid
p2929
aVmeta
p2930
aVimplicitRules
p2931
aVlanguage
p2932
aVtext
p2933
aVcontained
p2934
aVextension
p2935
aVmodifierExtension
p2936
aVidentifier
p2937
aVstatus
p2938
aVmode
p2939
aVtitle
p2940
aVcode
p2941
aVsubject
p2942
aVencounter
p2943
aVdate
p2944
aVsource
p2945
aVorderedBy
p2946
aVnote
p2947
aVentry
p2948
aVemptyReason
p2949
asVAuditEvent
p2950
(lp2951
Vid
p2952
aVmeta
p2953
aVimplicitRules
p2954
aVlanguage
p2955
aVtext
p2956
aVcontained
p2957
aVextension
p2958
aVmodifierExtension
p2959
aVtype
p2960
aVsubtype
p2961
aVaction
p2962
aVrecorded
p2963
aVoutcome
p2964
aVoutcomeDesc
p2965
aVpurposeOfEvent
p2966
aVagent
p2967
aVsource
p2968
aVentity
p2969
asVMessageDefinition
p2970
(lp2971
Vid
p2972
aVmeta
p2973
aVimplicitRules
p2974
aVlanguage
p2975
aVtext
p2976
aVcontained
p2977
aVextension
p2978
aVmodifierExtension
p2979
aVurl
p2980
aVidentifier
p2981
aVversion
p2982
aVname
p2983
aVtitle
p2984
aVstatus
p2985
aVexperimental
p2986
aVdate
p2987
aVpublisher
p2988
aVcontact
p2989
aVdescription
p2990
aVuseContext
p2991
aVjurisdiction
p2992
aVpurpose
p2993
aVcopyright
p2994
aVbase
p2995
aVparent
p2996
aVreplaces
p2997
aVevent
p2998
aVcategory
p2999
aVfocus
p3000
aVresponseRequired
p3001
aVallowedResponse
p3002
asVDocumentReference
p3003
(lp3004
Vid
p3005
aVmeta
p3006
aVimplicitRules
p3007
aVlanguage
p3008
aVtext
p3009
aVcontained
p3010
aVextension
p3011
aVmodifierExtension
p3012
aVmasterIdentifier
p3013
aVidentifier
p3014
aVstatus
p3015
aVdocStatus
p3016
aVtype
p3017
aVclass
p3018
aVsubject
p3019
aVcreated
p3020
aVindexed
p3021
aVauthor
p3022
aVauthenticator
p3023
aVcustodian
p3024
aVrelatesTo
p3025
aVdescription
p3026
aVsecurityLabel
p3027
aVcontent
p3028
aVcontext
p3029
asVEnrollmentResponse
p3030
(lp3031
Vid
p3032
aVmeta
p3033
aVimplicitRules
p3034
aVlanguage
p3035
aVtext
p3036
aVcontained
p3037
aVextension
p3038
aVmodifierExtension
p3039
aVidentifier
p3040
aVstatus
p3041
aVrequest
p3042
aVoutcome
p3043
aVdisposition
p3044
aVcreated
p3045
aVorganization
p3046
aVrequestProvider
p3047
aVrequestOrganization
p3048
asVDataElement
p3049
(lp3050
Vid
p3051
aVmeta
p3052
aVimplicitRules
p3053
aVlanguage
p3054
aVtext
p3055
aVcontained
p3056
aVextension
p3057
aVmodifierExtension
p3058
aVurl
p3059
aVidentifier
p3060
aVversion
p3061
aVstatus
p3062
aVexperimental
p3063
aVdate
p3064
aVpublisher
p3065
aVname
p3066
aVtitle
p3067
aVcontact
p3068
aVuseContext
p3069
aVjurisdiction
p3070
aVcopyright
p3071
aVstringency
p3072
aVmapping
p3073
aVelement
p3074
asVCompartmentDefinition
p3075
(lp3076
Vid
p3077
aVmeta
p3078
aVimplicitRules
p3079
aVlanguage
p3080
aVtext
p3081
aVcontained
p3082
aVextension
p3083
aVmodifierExtension
p3084
aVurl
p3085
aVname
p3086
aVtitle
p3087
aVstatus
p3088
aVexperimental
p3089
aVdate
p3090
aVpublisher
p3091
aVcontact
p3092
aVdescription
p3093
aVpurpose
p3094
aVuseContext
p3095
aVjurisdiction
p3096
aVcode
p3097
aVsearch
p3098
aVresource
p3099
asVSupplyDelivery
p3100
(lp3101
Vid
p3102
aVmeta
p3103
aVimplicitRules
p3104
aVlanguage
p3105
aVtext
p3106
aVcontained
p3107
aVextension
p3108
aVmodifierExtension
p3109
aVidentifier
p3110
aVbasedOn
p3111
aVpartOf
p3112
aVstatus
p3113
aVpatient
p3114
aVtype
p3115
aVsuppliedItem
p3116
aVoccurrenceDateTime
p3117
aVoccurrencePeriod
p3118
aVoccurrenceTiming
p3119
aVsupplier
p3120
aVdestination
p3121
aVreceiver
p3122
asVTestReport
p3123
(lp3124
Vid
p3125
aVmeta
p3126
aVimplicitRules
p3127
aVlanguage
p3128
aVtext
p3129
aVcontained
p3130
aVextension
p3131
aVmodifierExtension
p3132
aVidentifier
p3133
aVname
p3134
aVstatus
p3135
aVtestScript
p3136
aVresult
p3137
aVscore
p3138
aVtester
p3139
aVissued
p3140
aVparticipant
p3141
aVsetup
p3142
aVtest
p3143
aVteardown
p3144
as.