ccollections
defaultdict
p0
(c__builtin__
list
p1
tp2
Rp3
VNamingSystem
p4
(lp5
Vid
p6
aVmeta
p7
aVimplicitRules
p8
aVlanguage
p9
aVtext
p10
aVcontained
p11
aVextension
p12
aVmodifierExtension
p13
aVname
p14
aVstatus
p15
aVkind
p16
aVpublisher
p17
aVcontact
p18
aVresponsible
p19
aVdate
p20
aVtype
p21
aVdescription
p22
aVuseContext
p23
aVusage
p24
aVuniqueId
p25
aVreplacedBy
p26
asVGoal
p27
(lp28
Vid
p29
aVmeta
p30
aVimplicitRules
p31
aVlanguage
p32
aVtext
p33
aVcontained
p34
aVextension
p35
aVmodifierExtension
p36
aVidentifier
p37
aVsubject
p38
aVstartDate
p39
aVstartCodeableConcept
p40
aVtargetDate
p41
aVtargetQuantity
p42
aVcategory
p43
aVdescription
p44
aVstatus
p45
aVstatusDate
p46
aVstatusReason
p47
aVauthor
p48
aVpriority
p49
aVaddresses
p50
aVnote
p51
aVoutcome
p52
asVModuleDefinition
p53
(lp54
Vid
p55
aVmeta
p56
aVimplicitRules
p57
aVlanguage
p58
aVtext
p59
aVcontained
p60
aVextension
p61
aVmodifierExtension
p62
aVidentifier
p63
aVversion
p64
aVmodel
p65
aVlibrary
p66
aVcodeSystem
p67
aVvalueSet
p68
aVparameter
p69
aVdata
p70
asVImmunizationRecommendation
p71
(lp72
Vid
p73
aVmeta
p74
aVimplicitRules
p75
aVlanguage
p76
aVtext
p77
aVcontained
p78
aVextension
p79
aVmodifierExtension
p80
aVidentifier
p81
aVpatient
p82
aVrecommendation
p83
asVMessageHeader
p84
(lp85
Vid
p86
aVmeta
p87
aVimplicitRules
p88
aVlanguage
p89
aVtext
p90
aVcontained
p91
aVextension
p92
aVmodifierExtension
p93
aVtimestamp
p94
aVevent
p95
aVresponse
p96
aVsource
p97
aVdestination
p98
aVenterer
p99
aVauthor
p100
aVreceiver
p101
aVresponsible
p102
aVreason
p103
aVdata
p104
asVExpansionProfile
p105
(lp106
Vid
p107
aVmeta
p108
aVimplicitRules
p109
aVlanguage
p110
aVtext
p111
aVcontained
p112
aVextension
p113
aVmodifierExtension
p114
aVurl
p115
aVidentifier
p116
aVversion
p117
aVname
p118
aVstatus
p119
aVexperimental
p120
aVpublisher
p121
aVcontact
p122
aVdate
p123
aVdescription
p124
aVcodeSystem
p125
aVincludeDesignations
p126
aVdesignation
p127
aVincludeDefinition
p128
aVexcludeNested
p129
aVexcludeNotForUI
p130
aVexcludePostCoordinated
p131
aVdisplayLanguage
p132
aVlimitedExpansion
p133
asVPractitioner
p134
(lp135
Vid
p136
aVmeta
p137
aVimplicitRules
p138
aVlanguage
p139
aVtext
p140
aVcontained
p141
aVextension
p142
aVmodifierExtension
p143
aVidentifier
p144
aVactive
p145
aVname
p146
aVtelecom
p147
aVaddress
p148
aVgender
p149
aVbirthDate
p150
aVphoto
p151
aVpractitionerRole
p152
aVqualification
p153
aVcommunication
p154
asVSchedule
p155
(lp156
Vid
p157
aVmeta
p158
aVimplicitRules
p159
aVlanguage
p160
aVtext
p161
aVcontained
p162
aVextension
p163
aVmodifierExtension
p164
aVidentifier
p165
aVtype
p166
aVactor
p167
aVplanningHorizon
p168
aVcomment
p169
asVDocumentManifest
p170
(lp171
Vid
p172
aVmeta
p173
aVimplicitRules
p174
aVlanguage
p175
aVtext
p176
aVcontained
p177
aVextension
p178
aVmodifierExtension
p179
aVmasterIdentifier
p180
aVidentifier
p181
aVsubject
p182
aVrecipient
p183
aVtype
p184
aVauthor
p185
aVcreated
p186
aVsource
p187
aVstatus
p188
aVdescription
p189
aVcontent
p190
aVrelated
p191
asVImplementationGuide
p192
(lp193
Vid
p194
aVmeta
p195
aVimplicitRules
p196
aVlanguage
p197
aVtext
p198
aVcontained
p199
aVextension
p200
aVmodifierExtension
p201
aVurl
p202
aVversion
p203
aVname
p204
aVstatus
p205
aVexperimental
p206
aVpublisher
p207
aVcontact
p208
aVdate
p209
aVdescription
p210
aVuseContext
p211
aVcopyright
p212
aVfhirVersion
p213
aVdependency
p214
aVpackage
p215
aVglobal
p216
aVbinary
p217
aVpage
p218
asVEncounter
p219
(lp220
Vid
p221
aVmeta
p222
aVimplicitRules
p223
aVlanguage
p224
aVtext
p225
aVcontained
p226
aVextension
p227
aVmodifierExtension
p228
aVidentifier
p229
aVstatus
p230
aVstatusHistory
p231
aVclass
p232
aVtype
p233
aVpriority
p234
aVpatient
p235
aVepisodeOfCare
p236
aVincomingReferral
p237
aVparticipant
p238
aVappointment
p239
aVperiod
p240
aVlength
p241
aVreason
p242
aVindication
p243
aVhospitalization
p244
aVlocation
p245
aVserviceProvider
p246
aVpartOf
p247
asVAccount
p248
(lp249
Vid
p250
aVmeta
p251
aVimplicitRules
p252
aVlanguage
p253
aVtext
p254
aVcontained
p255
aVextension
p256
aVmodifierExtension
p257
aVidentifier
p258
aVname
p259
aVtype
p260
aVstatus
p261
aVactivePeriod
p262
aVcurrency
p263
aVbalance
p264
aVcoveragePeriod
p265
aVsubject
p266
aVowner
p267
aVdescription
p268
asVImagingObjectSelection
p269
(lp270
Vid
p271
aVmeta
p272
aVimplicitRules
p273
aVlanguage
p274
aVtext
p275
aVcontained
p276
aVextension
p277
aVmodifierExtension
p278
aVuid
p279
aVpatient
p280
aVtitle
p281
aVdescription
p282
aVauthor
p283
aVauthoringTime
p284
aVstudy
p285
asVOrganization
p286
(lp287
Vid
p288
aVmeta
p289
aVimplicitRules
p290
aVlanguage
p291
aVtext
p292
aVcontained
p293
aVextension
p294
aVmodifierExtension
p295
aVidentifier
p296
aVactive
p297
aVtype
p298
aVname
p299
aVtelecom
p300
aVaddress
p301
aVpartOf
p302
aVcontact
p303
asVMedicationStatement
p304
(lp305
Vid
p306
aVmeta
p307
aVimplicitRules
p308
aVlanguage
p309
aVtext
p310
aVcontained
p311
aVextension
p312
aVmodifierExtension
p313
aVidentifier
p314
aVpatient
p315
aVinformationSource
p316
aVdateAsserted
p317
aVstatus
p318
aVwasNotTaken
p319
aVreasonNotTaken
p320
aVreasonForUseCodeableConcept
p321
aVreasonForUseReference
p322
aVeffectiveDateTime
p323
aVeffectivePeriod
p324
aVnote
p325
aVsupportingInformation
p326
aVmedicationCodeableConcept
p327
aVmedicationReference
p328
aVdosage
p329
asVMedicationDispense
p330
(lp331
Vid
p332
aVmeta
p333
aVimplicitRules
p334
aVlanguage
p335
aVtext
p336
aVcontained
p337
aVextension
p338
aVmodifierExtension
p339
aVidentifier
p340
aVstatus
p341
aVpatient
p342
aVdispenser
p343
aVauthorizingPrescription
p344
aVtype
p345
aVquantity
p346
aVdaysSupply
p347
aVmedicationCodeableConcept
p348
aVmedicationReference
p349
aVwhenPrepared
p350
aVwhenHandedOver
p351
aVdestination
p352
aVreceiver
p353
aVnote
p354
aVdosageInstruction
p355
aVsubstitution
p356
asVSupplyRequest
p357
(lp358
Vid
p359
aVmeta
p360
aVimplicitRules
p361
aVlanguage
p362
aVtext
p363
aVcontained
p364
aVextension
p365
aVmodifierExtension
p366
aVpatient
p367
aVsource
p368
aVdate
p369
aVidentifier
p370
aVstatus
p371
aVkind
p372
aVorderedItem
p373
aVsupplier
p374
aVreasonCodeableConcept
p375
aVreasonReference
p376
aVwhen
p377
asVQuestionnaireResponse
p378
(lp379
Vid
p380
aVmeta
p381
aVimplicitRules
p382
aVlanguage
p383
aVtext
p384
aVcontained
p385
aVextension
p386
aVmodifierExtension
p387
aVidentifier
p388
aVquestionnaire
p389
aVstatus
p390
aVsubject
p391
aVauthor
p392
aVauthored
p393
aVsource
p394
aVencounter
p395
aVitem
p396
asVModuleMetadata
p397
(lp398
Vid
p399
aVmeta
p400
aVimplicitRules
p401
aVlanguage
p402
aVtext
p403
aVcontained
p404
aVextension
p405
aVmodifierExtension
p406
aVidentifier
p407
aVversion
p408
aVtitle
p409
aVtype
p410
aVstatus
p411
aVdescription
p412
aVpurpose
p413
aVusage
p414
aVpublicationDate
p415
aVlastReviewDate
p416
aVeffectivePeriod
p417
aVcoverage
p418
aVtopic
p419
aVkeyword
p420
aVcontributor
p421
aVpublisher
p422
aVsteward
p423
aVrightsDeclaration
p424
aVrelatedResource
p425
asVParameters
p426
(lp427
Vid
p428
aVmeta
p429
aVimplicitRules
p430
aVlanguage
p431
aVparameter
p432
asVProvenance
p433
(lp434
Vid
p435
aVmeta
p436
aVimplicitRules
p437
aVlanguage
p438
aVtext
p439
aVcontained
p440
aVextension
p441
aVmodifierExtension
p442
aVtarget
p443
aVperiod
p444
aVrecorded
p445
aVreason
p446
aVactivity
p447
aVlocation
p448
aVpolicy
p449
aVagent
p450
aVentity
p451
aVsignature
p452
asVSubstance
p453
(lp454
Vid
p455
aVmeta
p456
aVimplicitRules
p457
aVlanguage
p458
aVtext
p459
aVcontained
p460
aVextension
p461
aVmodifierExtension
p462
aVidentifier
p463
aVcategory
p464
aVcode
p465
aVdescription
p466
aVinstance
p467
aVingredient
p468
asVEligibilityResponse
p469
(lp470
Vid
p471
aVmeta
p472
aVimplicitRules
p473
aVlanguage
p474
aVtext
p475
aVcontained
p476
aVextension
p477
aVmodifierExtension
p478
aVidentifier
p479
aVrequest
p480
aVoutcome
p481
aVdisposition
p482
aVruleset
p483
aVoriginalRuleset
p484
aVcreated
p485
aVorganization
p486
aVrequestProvider
p487
aVrequestOrganization
p488
asVPatient
p489
(lp490
Vid
p491
aVmeta
p492
aVimplicitRules
p493
aVlanguage
p494
aVtext
p495
aVcontained
p496
aVextension
p497
aVmodifierExtension
p498
aVidentifier
p499
aVactive
p500
aVname
p501
aVtelecom
p502
aVgender
p503
aVbirthDate
p504
aVdeceasedBoolean
p505
aVdeceasedDateTime
p506
aVaddress
p507
aVmaritalStatus
p508
aVmultipleBirthBoolean
p509
aVmultipleBirthInteger
p510
aVphoto
p511
aVcontact
p512
aVanimal
p513
aVcommunication
p514
aVcareProvider
p515
aVmanagingOrganization
p516
aVlink
p517
asVPaymentNotice
p518
(lp519
Vid
p520
aVmeta
p521
aVimplicitRules
p522
aVlanguage
p523
aVtext
p524
aVcontained
p525
aVextension
p526
aVmodifierExtension
p527
aVidentifier
p528
aVruleset
p529
aVoriginalRuleset
p530
aVcreated
p531
aVtarget
p532
aVprovider
p533
aVorganization
p534
aVrequest
p535
aVresponse
p536
aVpaymentStatus
p537
asVClinicalImpression
p538
(lp539
Vid
p540
aVmeta
p541
aVimplicitRules
p542
aVlanguage
p543
aVtext
p544
aVcontained
p545
aVextension
p546
aVmodifierExtension
p547
aVpatient
p548
aVassessor
p549
aVstatus
p550
aVdate
p551
aVdescription
p552
aVprevious
p553
aVproblem
p554
aVtriggerCodeableConcept
p555
aVtriggerReference
p556
aVinvestigations
p557
aVprotocol
p558
aVsummary
p559
aVfinding
p560
aVresolved
p561
aVruledOut
p562
aVprognosis
p563
aVplan
p564
aVaction
p565
asVFlag
p566
(lp567
Vid
p568
aVmeta
p569
aVimplicitRules
p570
aVlanguage
p571
aVtext
p572
aVcontained
p573
aVextension
p574
aVmodifierExtension
p575
aVidentifier
p576
aVcategory
p577
aVstatus
p578
aVperiod
p579
aVsubject
p580
aVencounter
p581
aVauthor
p582
aVcode
p583
asVExplanationOfBenefit
p584
(lp585
Vid
p586
aVmeta
p587
aVimplicitRules
p588
aVlanguage
p589
aVtext
p590
aVcontained
p591
aVextension
p592
aVmodifierExtension
p593
aVidentifier
p594
aVrequest
p595
aVoutcome
p596
aVdisposition
p597
aVruleset
p598
aVoriginalRuleset
p599
aVcreated
p600
aVorganization
p601
aVrequestProvider
p602
aVrequestOrganization
p603
asVBodySite
p604
(lp605
Vid
p606
aVmeta
p607
aVimplicitRules
p608
aVlanguage
p609
aVtext
p610
aVcontained
p611
aVextension
p612
aVmodifierExtension
p613
aVpatient
p614
aVidentifier
p615
aVcode
p616
aVmodifier
p617
aVdescription
p618
aVimage
p619
asVGuidanceRequest
p620
(lp621
Vid
p622
aVmeta
p623
aVimplicitRules
p624
aVlanguage
p625
aVtext
p626
aVcontained
p627
aVextension
p628
aVmodifierExtension
p629
aVmodule
p630
aVdateTime
p631
aVevaluateAtDateTime
p632
aVinputParameters
p633
aVinitiatingOrganization
p634
aVinitiatingPerson
p635
aVuserType
p636
aVuserLanguage
p637
aVuserTaskContext
p638
aVreceivingOrganization
p639
aVreceivingPerson
p640
aVrecipientType
p641
aVrecipientLanguage
p642
aVencounterClass
p643
aVencounterType
p644
asVSubscription
p645
(lp646
Vid
p647
aVmeta
p648
aVimplicitRules
p649
aVlanguage
p650
aVtext
p651
aVcontained
p652
aVextension
p653
aVmodifierExtension
p654
aVcriteria
p655
aVcontact
p656
aVreason
p657
aVstatus
p658
aVerror
p659
aVchannel
p660
aVend
p661
aVtag
p662
asVMedicationAdministration
p663
(lp664
Vid
p665
aVmeta
p666
aVimplicitRules
p667
aVlanguage
p668
aVtext
p669
aVcontained
p670
aVextension
p671
aVmodifierExtension
p672
aVidentifier
p673
aVstatus
p674
aVpatient
p675
aVpractitioner
p676
aVencounter
p677
aVprescription
p678
aVwasNotGiven
p679
aVreasonNotGiven
p680
aVreasonGiven
p681
aVeffectiveTimeDateTime
p682
aVeffectiveTimePeriod
p683
aVmedicationCodeableConcept
p684
aVmedicationReference
p685
aVdevice
p686
aVnote
p687
aVdosage
p688
asVDiagnosticOrder
p689
(lp690
Vid
p691
aVmeta
p692
aVimplicitRules
p693
aVlanguage
p694
aVtext
p695
aVcontained
p696
aVextension
p697
aVmodifierExtension
p698
aVsubject
p699
aVorderer
p700
aVidentifier
p701
aVencounter
p702
aVreason
p703
aVsupportingInformation
p704
aVspecimen
p705
aVstatus
p706
aVpriority
p707
aVevent
p708
aVitem
p709
aVnote
p710
asVObservation
p711
(lp712
Vid
p713
aVmeta
p714
aVimplicitRules
p715
aVlanguage
p716
aVtext
p717
aVcontained
p718
aVextension
p719
aVmodifierExtension
p720
aVidentifier
p721
aVstatus
p722
aVcategory
p723
aVcode
p724
aVsubject
p725
aVencounter
p726
aVeffectiveDateTime
p727
aVeffectivePeriod
p728
aVissued
p729
aVperformer
p730
aVvalueQuantity
p731
aVvalueCodeableConcept
p732
aVvalueString
p733
aVvalueRange
p734
aVvalueRatio
p735
aVvalueSampledData
p736
aVvalueAttachment
p737
aVvalueTime
p738
aVvalueDateTime
p739
aVvaluePeriod
p740
aVdataAbsentReason
p741
aVinterpretation
p742
aVcomments
p743
aVbodySite
p744
aVmethod
p745
aVspecimen
p746
aVdevice
p747
aVreferenceRange
p748
aVrelated
p749
aVcomponent
p750
asVPaymentReconciliation
p751
(lp752
Vid
p753
aVmeta
p754
aVimplicitRules
p755
aVlanguage
p756
aVtext
p757
aVcontained
p758
aVextension
p759
aVmodifierExtension
p760
aVidentifier
p761
aVrequest
p762
aVoutcome
p763
aVdisposition
p764
aVruleset
p765
aVoriginalRuleset
p766
aVcreated
p767
aVperiod
p768
aVorganization
p769
aVrequestProvider
p770
aVrequestOrganization
p771
aVdetail
p772
aVform
p773
aVtotal
p774
aVnote
p775
asVTestScript
p776
(lp777
Vid
p778
aVmeta
p779
aVimplicitRules
p780
aVlanguage
p781
aVtext
p782
aVcontained
p783
aVextension
p784
aVmodifierExtension
p785
aVurl
p786
aVversion
p787
aVname
p788
aVstatus
p789
aVidentifier
p790
aVexperimental
p791
aVpublisher
p792
aVcontact
p793
aVdate
p794
aVdescription
p795
aVuseContext
p796
aVrequirements
p797
aVcopyright
p798
aVmetadata
p799
aVmultiserver
p800
aVfixture
p801
aVprofile
p802
aVvariable
p803
aVsetup
p804
aVtest
p805
aVteardown
p806
asVImmunization
p807
(lp808
Vid
p809
aVmeta
p810
aVimplicitRules
p811
aVlanguage
p812
aVtext
p813
aVcontained
p814
aVextension
p815
aVmodifierExtension
p816
aVidentifier
p817
aVstatus
p818
aVdate
p819
aVvaccineCode
p820
aVpatient
p821
aVwasNotGiven
p822
aVreported
p823
aVperformer
p824
aVrequester
p825
aVencounter
p826
aVmanufacturer
p827
aVlocation
p828
aVlotNumber
p829
aVexpirationDate
p830
aVsite
p831
aVroute
p832
aVdoseQuantity
p833
aVnote
p834
aVexplanation
p835
aVreaction
p836
aVvaccinationProtocol
p837
asVCommunicationRequest
p838
(lp839
Vid
p840
aVmeta
p841
aVimplicitRules
p842
aVlanguage
p843
aVtext
p844
aVcontained
p845
aVextension
p846
aVmodifierExtension
p847
aVidentifier
p848
aVcategory
p849
aVsender
p850
aVrecipient
p851
aVpayload
p852
aVmedium
p853
aVrequester
p854
aVstatus
p855
aVencounter
p856
aVscheduledDateTime
p857
aVscheduledPeriod
p858
aVreason
p859
aVrequestedOn
p860
aVsubject
p861
aVpriority
p862
asVOperationOutcome
p863
(lp864
Vid
p865
aVmeta
p866
aVimplicitRules
p867
aVlanguage
p868
aVtext
p869
aVcontained
p870
aVextension
p871
aVmodifierExtension
p872
aVissue
p873
asVMedication
p874
(lp875
Vid
p876
aVmeta
p877
aVimplicitRules
p878
aVlanguage
p879
aVtext
p880
aVcontained
p881
aVextension
p882
aVmodifierExtension
p883
aVcode
p884
aVisBrand
p885
aVmanufacturer
p886
aVproduct
p887
aVpackage
p888
asVCommunication
p889
(lp890
Vid
p891
aVmeta
p892
aVimplicitRules
p893
aVlanguage
p894
aVtext
p895
aVcontained
p896
aVextension
p897
aVmodifierExtension
p898
aVidentifier
p899
aVcategory
p900
aVsender
p901
aVrecipient
p902
aVpayload
p903
aVmedium
p904
aVstatus
p905
aVencounter
p906
aVsent
p907
aVreceived
p908
aVreason
p909
aVsubject
p910
aVrequestDetail
p911
asVProcessResponse
p912
(lp913
Vid
p914
aVmeta
p915
aVimplicitRules
p916
aVlanguage
p917
aVtext
p918
aVcontained
p919
aVextension
p920
aVmodifierExtension
p921
aVidentifier
p922
aVrequest
p923
aVoutcome
p924
aVdisposition
p925
aVruleset
p926
aVoriginalRuleset
p927
aVcreated
p928
aVorganization
p929
aVrequestProvider
p930
aVrequestOrganization
p931
aVform
p932
aVnotes
p933
aVerror
p934
asVMedicationOrder
p935
(lp936
Vid
p937
aVmeta
p938
aVimplicitRules
p939
aVlanguage
p940
aVtext
p941
aVcontained
p942
aVextension
p943
aVmodifierExtension
p944
aVidentifier
p945
aVdateWritten
p946
aVstatus
p947
aVdateEnded
p948
aVreasonEnded
p949
aVpatient
p950
aVprescriber
p951
aVencounter
p952
aVreasonCodeableConcept
p953
aVreasonReference
p954
aVnote
p955
aVmedicationCodeableConcept
p956
aVmedicationReference
p957
aVdosageInstruction
p958
aVdispenseRequest
p959
aVsubstitution
p960
aVpriorPrescription
p961
asVFamilyMemberHistory
p962
(lp963
Vid
p964
aVmeta
p965
aVimplicitRules
p966
aVlanguage
p967
aVtext
p968
aVcontained
p969
aVextension
p970
aVmodifierExtension
p971
aVidentifier
p972
aVpatient
p973
aVdate
p974
aVstatus
p975
aVname
p976
aVrelationship
p977
aVgender
p978
aVbornPeriod
p979
aVbornDate
p980
aVbornString
p981
aVageQuantity
p982
aVageRange
p983
aVageString
p984
aVdeceasedBoolean
p985
aVdeceasedQuantity
p986
aVdeceasedRange
p987
aVdeceasedDate
p988
aVdeceasedString
p989
aVnote
p990
aVcondition
p991
asVBinary
p992
(lp993
Vid
p994
aVmeta
p995
aVimplicitRules
p996
aVlanguage
p997
aVcontentType
p998
aVcontent
p999
asVGroup
p1000
(lp1001
Vid
p1002
aVmeta
p1003
aVimplicitRules
p1004
aVlanguage
p1005
aVtext
p1006
aVcontained
p1007
aVextension
p1008
aVmodifierExtension
p1009
aVidentifier
p1010
aVtype
p1011
aVactual
p1012
aVcode
p1013
aVname
p1014
aVquantity
p1015
aVcharacteristic
p1016
aVmember
p1017
asVRiskAssessment
p1018
(lp1019
Vid
p1020
aVmeta
p1021
aVimplicitRules
p1022
aVlanguage
p1023
aVtext
p1024
aVcontained
p1025
aVextension
p1026
aVmodifierExtension
p1027
aVsubject
p1028
aVdate
p1029
aVcondition
p1030
aVencounter
p1031
aVperformer
p1032
aVidentifier
p1033
aVmethod
p1034
aVbasis
p1035
aVprediction
p1036
aVmitigation
p1037
asVImagingStudy
p1038
(lp1039
Vid
p1040
aVmeta
p1041
aVimplicitRules
p1042
aVlanguage
p1043
aVtext
p1044
aVcontained
p1045
aVextension
p1046
aVmodifierExtension
p1047
aVstarted
p1048
aVpatient
p1049
aVuid
p1050
aVaccession
p1051
aVidentifier
p1052
aVorder
p1053
aVmodalityList
p1054
aVreferrer
p1055
aVavailability
p1056
aVurl
p1057
aVnumberOfSeries
p1058
aVnumberOfInstances
p1059
aVprocedure
p1060
aVinterpreter
p1061
aVdescription
p1062
aVseries
p1063
asVGuidanceResponse
p1064
(lp1065
Vid
p1066
aVmeta
p1067
aVimplicitRules
p1068
aVlanguage
p1069
aVtext
p1070
aVcontained
p1071
aVextension
p1072
aVmodifierExtension
p1073
aVrequestId
p1074
aVmodule
p1075
aVstatus
p1076
aVevaluationMessage
p1077
aVoutputParameters
p1078
aVaction
p1079
asVBasic
p1080
(lp1081
Vid
p1082
aVmeta
p1083
aVimplicitRules
p1084
aVlanguage
p1085
aVtext
p1086
aVcontained
p1087
aVextension
p1088
aVmodifierExtension
p1089
aVidentifier
p1090
aVcode
p1091
aVsubject
p1092
aVauthor
p1093
aVcreated
p1094
asVConformance
p1095
(lp1096
Vid
p1097
aVmeta
p1098
aVimplicitRules
p1099
aVlanguage
p1100
aVtext
p1101
aVcontained
p1102
aVextension
p1103
aVmodifierExtension
p1104
aVurl
p1105
aVversion
p1106
aVname
p1107
aVstatus
p1108
aVexperimental
p1109
aVpublisher
p1110
aVcontact
p1111
aVdate
p1112
aVdescription
p1113
aVrequirements
p1114
aVcopyright
p1115
aVkind
p1116
aVsoftware
p1117
aVimplementation
p1118
aVfhirVersion
p1119
aVacceptUnknown
p1120
aVformat
p1121
aVprofile
p1122
aVrest
p1123
aVmessaging
p1124
aVdocument
p1125
asVAppointment
p1126
(lp1127
Vid
p1128
aVmeta
p1129
aVimplicitRules
p1130
aVlanguage
p1131
aVtext
p1132
aVcontained
p1133
aVextension
p1134
aVmodifierExtension
p1135
aVidentifier
p1136
aVstatus
p1137
aVtype
p1138
aVreason
p1139
aVpriority
p1140
aVdescription
p1141
aVstart
p1142
aVend
p1143
aVminutesDuration
p1144
aVslot
p1145
aVcomment
p1146
aVparticipant
p1147
asVValueSet
p1148
(lp1149
Vid
p1150
aVmeta
p1151
aVimplicitRules
p1152
aVlanguage
p1153
aVtext
p1154
aVcontained
p1155
aVextension
p1156
aVmodifierExtension
p1157
aVurl
p1158
aVidentifier
p1159
aVversion
p1160
aVname
p1161
aVstatus
p1162
aVexperimental
p1163
aVpublisher
p1164
aVcontact
p1165
aVdate
p1166
aVlockedDate
p1167
aVdescription
p1168
aVuseContext
p1169
aVimmutable
p1170
aVrequirements
p1171
aVcopyright
p1172
aVextensible
p1173
aVcodeSystem
p1174
aVcompose
p1175
aVexpansion
p1176
asVProcedureRequest
p1177
(lp1178
Vid
p1179
aVmeta
p1180
aVimplicitRules
p1181
aVlanguage
p1182
aVtext
p1183
aVcontained
p1184
aVextension
p1185
aVmodifierExtension
p1186
aVidentifier
p1187
aVsubject
p1188
aVcode
p1189
aVbodySite
p1190
aVreasonCodeableConcept
p1191
aVreasonReference
p1192
aVscheduledDateTime
p1193
aVscheduledPeriod
p1194
aVscheduledTiming
p1195
aVencounter
p1196
aVperformer
p1197
aVstatus
p1198
aVnotes
p1199
aVasNeededBoolean
p1200
aVasNeededCodeableConcept
p1201
aVorderedOn
p1202
aVorderer
p1203
aVpriority
p1204
asVBundle
p1205
(lp1206
Vid
p1207
aVmeta
p1208
aVimplicitRules
p1209
aVlanguage
p1210
aVtype
p1211
aVtotal
p1212
aVlink
p1213
aVentry
p1214
aVsignature
p1215
asVDecisionSupportRule
p1216
(lp1217
Vid
p1218
aVmeta
p1219
aVimplicitRules
p1220
aVlanguage
p1221
aVtext
p1222
aVcontained
p1223
aVextension
p1224
aVmodifierExtension
p1225
aVidentifier
p1226
aVversion
p1227
aVmoduleMetadata
p1228
aVlibrary
p1229
aVtrigger
p1230
aVcondition
p1231
aVaction
p1232
asVCoverage
p1233
(lp1234
Vid
p1235
aVmeta
p1236
aVimplicitRules
p1237
aVlanguage
p1238
aVtext
p1239
aVcontained
p1240
aVextension
p1241
aVmodifierExtension
p1242
aVissuer
p1243
aVbin
p1244
aVperiod
p1245
aVtype
p1246
aVsubscriberId
p1247
aVidentifier
p1248
aVgroup
p1249
aVplan
p1250
aVsubPlan
p1251
aVdependent
p1252
aVsequence
p1253
aVsubscriber
p1254
aVnetwork
p1255
aVcontract
p1256
asVDevice
p1257
(lp1258
Vid
p1259
aVmeta
p1260
aVimplicitRules
p1261
aVlanguage
p1262
aVtext
p1263
aVcontained
p1264
aVextension
p1265
aVmodifierExtension
p1266
aVidentifier
p1267
aVtype
p1268
aVnote
p1269
aVstatus
p1270
aVmanufacturer
p1271
aVmodel
p1272
aVversion
p1273
aVmanufactureDate
p1274
aVexpiry
p1275
aVudi
p1276
aVlotNumber
p1277
aVowner
p1278
aVlocation
p1279
aVpatient
p1280
aVcontact
p1281
aVurl
p1282
asVCondition
p1283
(lp1284
Vid
p1285
aVmeta
p1286
aVimplicitRules
p1287
aVlanguage
p1288
aVtext
p1289
aVcontained
p1290
aVextension
p1291
aVmodifierExtension
p1292
aVidentifier
p1293
aVpatient
p1294
aVencounter
p1295
aVasserter
p1296
aVdateRecorded
p1297
aVcode
p1298
aVcategory
p1299
aVclinicalStatus
p1300
aVverificationStatus
p1301
aVseverity
p1302
aVonsetDateTime
p1303
aVonsetQuantity
p1304
aVonsetPeriod
p1305
aVonsetRange
p1306
aVonsetString
p1307
aVabatementDateTime
p1308
aVabatementQuantity
p1309
aVabatementBoolean
p1310
aVabatementPeriod
p1311
aVabatementRange
p1312
aVabatementString
p1313
aVstage
p1314
aVevidence
p1315
aVbodySite
p1316
aVnotes
p1317
asVEligibilityRequest
p1318
(lp1319
Vid
p1320
aVmeta
p1321
aVimplicitRules
p1322
aVlanguage
p1323
aVtext
p1324
aVcontained
p1325
aVextension
p1326
aVmodifierExtension
p1327
aVidentifier
p1328
aVruleset
p1329
aVoriginalRuleset
p1330
aVcreated
p1331
aVtarget
p1332
aVprovider
p1333
aVorganization
p1334
asVDeviceUseStatement
p1335
(lp1336
Vid
p1337
aVmeta
p1338
aVimplicitRules
p1339
aVlanguage
p1340
aVtext
p1341
aVcontained
p1342
aVextension
p1343
aVmodifierExtension
p1344
aVbodySiteCodeableConcept
p1345
aVbodySiteReference
p1346
aVwhenUsed
p1347
aVdevice
p1348
aVidentifier
p1349
aVindication
p1350
aVnotes
p1351
aVrecordedOn
p1352
aVsubject
p1353
aVtimingTiming
p1354
aVtimingPeriod
p1355
aVtimingDateTime
p1356
asVDetectedIssue
p1357
(lp1358
Vid
p1359
aVmeta
p1360
aVimplicitRules
p1361
aVlanguage
p1362
aVtext
p1363
aVcontained
p1364
aVextension
p1365
aVmodifierExtension
p1366
aVpatient
p1367
aVcategory
p1368
aVseverity
p1369
aVimplicated
p1370
aVdetail
p1371
aVdate
p1372
aVauthor
p1373
aVidentifier
p1374
aVreference
p1375
aVmitigation
p1376
asVContract
p1377
(lp1378
Vid
p1379
aVmeta
p1380
aVimplicitRules
p1381
aVlanguage
p1382
aVtext
p1383
aVcontained
p1384
aVextension
p1385
aVmodifierExtension
p1386
aVidentifier
p1387
aVissued
p1388
aVapplies
p1389
aVsubject
p1390
aVauthority
p1391
aVdomain
p1392
aVtype
p1393
aVsubType
p1394
aVaction
p1395
aVactionReason
p1396
aVactor
p1397
aVvaluedItem
p1398
aVsigner
p1399
aVterm
p1400
aVbindingAttachment
p1401
aVbindingReference
p1402
aVbindingReference
p1403
aVbindingReference
p1404
aVfriendly
p1405
aVlegal
p1406
aVrule
p1407
asVPerson
p1408
(lp1409
Vid
p1410
aVmeta
p1411
aVimplicitRules
p1412
aVlanguage
p1413
aVtext
p1414
aVcontained
p1415
aVextension
p1416
aVmodifierExtension
p1417
aVidentifier
p1418
aVname
p1419
aVtelecom
p1420
aVgender
p1421
aVbirthDate
p1422
aVaddress
p1423
aVphoto
p1424
aVmanagingOrganization
p1425
aVactive
p1426
aVlink
p1427
asVReferralRequest
p1428
(lp1429
Vid
p1430
aVmeta
p1431
aVimplicitRules
p1432
aVlanguage
p1433
aVtext
p1434
aVcontained
p1435
aVextension
p1436
aVmodifierExtension
p1437
aVstatus
p1438
aVidentifier
p1439
aVdate
p1440
aVtype
p1441
aVspecialty
p1442
aVpriority
p1443
aVpatient
p1444
aVrequester
p1445
aVrecipient
p1446
aVencounter
p1447
aVdateSent
p1448
aVreason
p1449
aVdescription
p1450
aVserviceRequested
p1451
aVsupportingInformation
p1452
aVfulfillmentTime
p1453
asVDeviceComponent
p1454
(lp1455
Vid
p1456
aVmeta
p1457
aVimplicitRules
p1458
aVlanguage
p1459
aVtext
p1460
aVcontained
p1461
aVextension
p1462
aVmodifierExtension
p1463
aVtype
p1464
aVidentifier
p1465
aVlastSystemChange
p1466
aVsource
p1467
aVparent
p1468
aVoperationalStatus
p1469
aVparameterGroup
p1470
aVmeasurementPrinciple
p1471
aVproductionSpecification
p1472
aVlanguageCode
p1473
asVProcedure
p1474
(lp1475
Vid
p1476
aVmeta
p1477
aVimplicitRules
p1478
aVlanguage
p1479
aVtext
p1480
aVcontained
p1481
aVextension
p1482
aVmodifierExtension
p1483
aVidentifier
p1484
aVsubject
p1485
aVstatus
p1486
aVcategory
p1487
aVcode
p1488
aVnotPerformed
p1489
aVreasonNotPerformed
p1490
aVbodySite
p1491
aVreasonCodeableConcept
p1492
aVreasonReference
p1493
aVperformer
p1494
aVperformedDateTime
p1495
aVperformedPeriod
p1496
aVencounter
p1497
aVlocation
p1498
aVoutcome
p1499
aVreport
p1500
aVcomplication
p1501
aVfollowUp
p1502
aVrequest
p1503
aVnotes
p1504
aVfocalDevice
p1505
aVused
p1506
asVOrderResponse
p1507
(lp1508
Vid
p1509
aVmeta
p1510
aVimplicitRules
p1511
aVlanguage
p1512
aVtext
p1513
aVcontained
p1514
aVextension
p1515
aVmodifierExtension
p1516
aVidentifier
p1517
aVrequest
p1518
aVdate
p1519
aVwho
p1520
aVorderStatus
p1521
aVdescription
p1522
aVfulfillment
p1523
asVClaim
p1524
(lp1525
Vid
p1526
aVmeta
p1527
aVimplicitRules
p1528
aVlanguage
p1529
aVtext
p1530
aVcontained
p1531
aVextension
p1532
aVmodifierExtension
p1533
aVtype
p1534
aVidentifier
p1535
aVruleset
p1536
aVoriginalRuleset
p1537
aVcreated
p1538
aVtarget
p1539
aVprovider
p1540
aVorganization
p1541
aVuse
p1542
aVpriority
p1543
aVfundsReserve
p1544
aVenterer
p1545
aVfacility
p1546
aVprescription
p1547
aVoriginalPrescription
p1548
aVpayee
p1549
aVreferral
p1550
aVdiagnosis
p1551
aVcondition
p1552
aVpatient
p1553
aVcoverage
p1554
aVexception
p1555
aVschool
p1556
aVaccident
p1557
aVaccidentType
p1558
aVinterventionException
p1559
aVitem
p1560
aVadditionalMaterials
p1561
aVmissingTeeth
p1562
asVOperationDefinition
p1563
(lp1564
Vid
p1565
aVmeta
p1566
aVimplicitRules
p1567
aVlanguage
p1568
aVtext
p1569
aVcontained
p1570
aVextension
p1571
aVmodifierExtension
p1572
aVurl
p1573
aVversion
p1574
aVname
p1575
aVstatus
p1576
aVkind
p1577
aVexperimental
p1578
aVpublisher
p1579
aVcontact
p1580
aVdate
p1581
aVdescription
p1582
aVrequirements
p1583
aVidempotent
p1584
aVcode
p1585
aVnotes
p1586
aVbase
p1587
aVsystem
p1588
aVtype
p1589
aVinstance
p1590
aVparameter
p1591
asVDiagnosticReport
p1592
(lp1593
Vid
p1594
aVmeta
p1595
aVimplicitRules
p1596
aVlanguage
p1597
aVtext
p1598
aVcontained
p1599
aVextension
p1600
aVmodifierExtension
p1601
aVidentifier
p1602
aVstatus
p1603
aVcategory
p1604
aVcode
p1605
aVsubject
p1606
aVencounter
p1607
aVeffectiveDateTime
p1608
aVeffectivePeriod
p1609
aVissued
p1610
aVperformer
p1611
aVrequest
p1612
aVspecimen
p1613
aVresult
p1614
aVimagingStudy
p1615
aVimage
p1616
aVconclusion
p1617
aVcodedDiagnosis
p1618
aVpresentedForm
p1619
asVLibrary
p1620
(lp1621
Vid
p1622
aVmeta
p1623
aVimplicitRules
p1624
aVlanguage
p1625
aVtext
p1626
aVcontained
p1627
aVextension
p1628
aVmodifierExtension
p1629
aVidentifier
p1630
aVversion
p1631
aVmoduleMetadata
p1632
aVmoduleDefinition
p1633
aVdocument
p1634
asVStructureDefinition
p1635
(lp1636
Vid
p1637
aVmeta
p1638
aVimplicitRules
p1639
aVlanguage
p1640
aVtext
p1641
aVcontained
p1642
aVextension
p1643
aVmodifierExtension
p1644
aVurl
p1645
aVidentifier
p1646
aVversion
p1647
aVname
p1648
aVdisplay
p1649
aVstatus
p1650
aVexperimental
p1651
aVpublisher
p1652
aVcontact
p1653
aVdate
p1654
aVdescription
p1655
aVuseContext
p1656
aVrequirements
p1657
aVcopyright
p1658
aVcode
p1659
aVfhirVersion
p1660
aVmapping
p1661
aVkind
p1662
aVconstrainedType
p1663
aVabstract
p1664
aVcontextType
p1665
aVcontext
p1666
aVbase
p1667
aVsnapshot
p1668
aVdifferential
p1669
asVDeviceUseRequest
p1670
(lp1671
Vid
p1672
aVmeta
p1673
aVimplicitRules
p1674
aVlanguage
p1675
aVtext
p1676
aVcontained
p1677
aVextension
p1678
aVmodifierExtension
p1679
aVbodySiteCodeableConcept
p1680
aVbodySiteReference
p1681
aVstatus
p1682
aVdevice
p1683
aVencounter
p1684
aVidentifier
p1685
aVindication
p1686
aVnotes
p1687
aVprnReason
p1688
aVorderedOn
p1689
aVrecordedOn
p1690
aVsubject
p1691
aVtimingTiming
p1692
aVtimingPeriod
p1693
aVtimingDateTime
p1694
aVpriority
p1695
asVMeasure
p1696
(lp1697
Vid
p1698
aVmeta
p1699
aVimplicitRules
p1700
aVlanguage
p1701
aVtext
p1702
aVcontained
p1703
aVextension
p1704
aVmodifierExtension
p1705
aVidentifier
p1706
aVversion
p1707
aVmoduleMetadata
p1708
aVlibrary
p1709
aVpopulation
p1710
aVstratifier
p1711
aVsupplementalData
p1712
asVDecisionSupportServiceModule
p1713
(lp1714
Vid
p1715
aVmeta
p1716
aVimplicitRules
p1717
aVlanguage
p1718
aVtext
p1719
aVcontained
p1720
aVextension
p1721
aVmodifierExtension
p1722
aVidentifier
p1723
aVversion
p1724
aVmoduleMetadata
p1725
aVmoduleDefinition
p1726
asVQuestionnaire
p1727
(lp1728
Vid
p1729
aVmeta
p1730
aVimplicitRules
p1731
aVlanguage
p1732
aVtext
p1733
aVcontained
p1734
aVextension
p1735
aVmodifierExtension
p1736
aVidentifier
p1737
aVversion
p1738
aVstatus
p1739
aVdate
p1740
aVpublisher
p1741
aVtelecom
p1742
aVtitle
p1743
aVconcept
p1744
aVsubjectType
p1745
aVitem
p1746
asVConceptMap
p1747
(lp1748
Vid
p1749
aVmeta
p1750
aVimplicitRules
p1751
aVlanguage
p1752
aVtext
p1753
aVcontained
p1754
aVextension
p1755
aVmodifierExtension
p1756
aVurl
p1757
aVidentifier
p1758
aVversion
p1759
aVname
p1760
aVstatus
p1761
aVexperimental
p1762
aVpublisher
p1763
aVcontact
p1764
aVdate
p1765
aVdescription
p1766
aVuseContext
p1767
aVrequirements
p1768
aVcopyright
p1769
aVsourceUri
p1770
aVsourceReference
p1771
aVsourceReference
p1772
aVtargetUri
p1773
aVtargetReference
p1774
aVtargetReference
p1775
aVelement
p1776
asVLocation
p1777
(lp1778
Vid
p1779
aVmeta
p1780
aVimplicitRules
p1781
aVlanguage
p1782
aVtext
p1783
aVcontained
p1784
aVextension
p1785
aVmodifierExtension
p1786
aVidentifier
p1787
aVstatus
p1788
aVname
p1789
aVdescription
p1790
aVmode
p1791
aVtype
p1792
aVtelecom
p1793
aVaddress
p1794
aVphysicalType
p1795
aVposition
p1796
aVmanagingOrganization
p1797
aVpartOf
p1798
asVSlot
p1799
(lp1800
Vid
p1801
aVmeta
p1802
aVimplicitRules
p1803
aVlanguage
p1804
aVtext
p1805
aVcontained
p1806
aVextension
p1807
aVmodifierExtension
p1808
aVidentifier
p1809
aVtype
p1810
aVschedule
p1811
aVfreeBusyType
p1812
aVstart
p1813
aVend
p1814
aVoverbooked
p1815
aVcomment
p1816
asVCarePlan
p1817
(lp1818
Vid
p1819
aVmeta
p1820
aVimplicitRules
p1821
aVlanguage
p1822
aVtext
p1823
aVcontained
p1824
aVextension
p1825
aVmodifierExtension
p1826
aVidentifier
p1827
aVsubject
p1828
aVstatus
p1829
aVcontext
p1830
aVperiod
p1831
aVauthor
p1832
aVmodified
p1833
aVcategory
p1834
aVdescription
p1835
aVaddresses
p1836
aVsupport
p1837
aVrelatedPlan
p1838
aVparticipant
p1839
aVgoal
p1840
aVactivity
p1841
aVnote
p1842
asVMedia
p1843
(lp1844
Vid
p1845
aVmeta
p1846
aVimplicitRules
p1847
aVlanguage
p1848
aVtext
p1849
aVcontained
p1850
aVextension
p1851
aVmodifierExtension
p1852
aVtype
p1853
aVsubtype
p1854
aVidentifier
p1855
aVsubject
p1856
aVoperator
p1857
aVview
p1858
aVdeviceName
p1859
aVheight
p1860
aVwidth
p1861
aVframes
p1862
aVduration
p1863
aVcontent
p1864
asVHealthcareService
p1865
(lp1866
Vid
p1867
aVmeta
p1868
aVimplicitRules
p1869
aVlanguage
p1870
aVtext
p1871
aVcontained
p1872
aVextension
p1873
aVmodifierExtension
p1874
aVidentifier
p1875
aVprovidedBy
p1876
aVserviceCategory
p1877
aVserviceType
p1878
aVlocation
p1879
aVserviceName
p1880
aVcomment
p1881
aVextraDetails
p1882
aVphoto
p1883
aVtelecom
p1884
aVcoverageArea
p1885
aVserviceProvisionCode
p1886
aVeligibility
p1887
aVeligibilityNote
p1888
aVprogramName
p1889
aVcharacteristic
p1890
aVreferralMethod
p1891
aVpublicKey
p1892
aVappointmentRequired
p1893
aVavailableTime
p1894
aVnotAvailable
p1895
aVavailabilityExceptions
p1896
asVVisionPrescription
p1897
(lp1898
Vid
p1899
aVmeta
p1900
aVimplicitRules
p1901
aVlanguage
p1902
aVtext
p1903
aVcontained
p1904
aVextension
p1905
aVmodifierExtension
p1906
aVidentifier
p1907
aVdateWritten
p1908
aVpatient
p1909
aVprescriber
p1910
aVencounter
p1911
aVreasonCodeableConcept
p1912
aVreasonReference
p1913
aVdispense
p1914
asVAllergyIntolerance
p1915
(lp1916
Vid
p1917
aVmeta
p1918
aVimplicitRules
p1919
aVlanguage
p1920
aVtext
p1921
aVcontained
p1922
aVextension
p1923
aVmodifierExtension
p1924
aVidentifier
p1925
aVonset
p1926
aVrecordedDate
p1927
aVrecorder
p1928
aVpatient
p1929
aVreporter
p1930
aVsubstance
p1931
aVstatus
p1932
aVcriticality
p1933
aVtype
p1934
aVcategory
p1935
aVlastOccurence
p1936
aVnote
p1937
aVreaction
p1938
asVDomainResource
p1939
(lp1940
Vid
p1941
aVmeta
p1942
aVimplicitRules
p1943
aVlanguage
p1944
aVtext
p1945
aVcontained
p1946
aVextension
p1947
aVmodifierExtension
p1948
asVEnrollmentRequest
p1949
(lp1950
Vid
p1951
aVmeta
p1952
aVimplicitRules
p1953
aVlanguage
p1954
aVtext
p1955
aVcontained
p1956
aVextension
p1957
aVmodifierExtension
p1958
aVidentifier
p1959
aVruleset
p1960
aVoriginalRuleset
p1961
aVcreated
p1962
aVtarget
p1963
aVprovider
p1964
aVorganization
p1965
aVsubject
p1966
aVcoverage
p1967
aVrelationship
p1968
asVComposition
p1969
(lp1970
Vid
p1971
aVmeta
p1972
aVimplicitRules
p1973
aVlanguage
p1974
aVtext
p1975
aVcontained
p1976
aVextension
p1977
aVmodifierExtension
p1978
aVidentifier
p1979
aVdate
p1980
aVtype
p1981
aVclass
p1982
aVtitle
p1983
aVstatus
p1984
aVconfidentiality
p1985
aVsubject
p1986
aVauthor
p1987
aVattester
p1988
aVcustodian
p1989
aVevent
p1990
aVencounter
p1991
aVsection
p1992
asVRelatedPerson
p1993
(lp1994
Vid
p1995
aVmeta
p1996
aVimplicitRules
p1997
aVlanguage
p1998
aVtext
p1999
aVcontained
p2000
aVextension
p2001
aVmodifierExtension
p2002
aVidentifier
p2003
aVpatient
p2004
aVrelationship
p2005
aVname
p2006
aVtelecom
p2007
aVgender
p2008
aVbirthDate
p2009
aVaddress
p2010
aVphoto
p2011
aVperiod
p2012
asVProcessRequest
p2013
(lp2014
Vid
p2015
aVmeta
p2016
aVimplicitRules
p2017
aVlanguage
p2018
aVtext
p2019
aVcontained
p2020
aVextension
p2021
aVmodifierExtension
p2022
aVaction
p2023
aVidentifier
p2024
aVruleset
p2025
aVoriginalRuleset
p2026
aVcreated
p2027
aVtarget
p2028
aVprovider
p2029
aVorganization
p2030
aVrequest
p2031
aVresponse
p2032
aVnullify
p2033
aVreference
p2034
aVitem
p2035
aVinclude
p2036
aVexclude
p2037
aVperiod
p2038
asVSpecimen
p2039
(lp2040
Vid
p2041
aVmeta
p2042
aVimplicitRules
p2043
aVlanguage
p2044
aVtext
p2045
aVcontained
p2046
aVextension
p2047
aVmodifierExtension
p2048
aVidentifier
p2049
aVstatus
p2050
aVtype
p2051
aVparent
p2052
aVsubject
p2053
aVaccessionIdentifier
p2054
aVreceivedTime
p2055
aVcollection
p2056
aVtreatment
p2057
aVcontainer
p2058
asVSearchParameter
p2059
(lp2060
Vid
p2061
aVmeta
p2062
aVimplicitRules
p2063
aVlanguage
p2064
aVtext
p2065
aVcontained
p2066
aVextension
p2067
aVmodifierExtension
p2068
aVurl
p2069
aVname
p2070
aVstatus
p2071
aVexperimental
p2072
aVpublisher
p2073
aVcontact
p2074
aVdate
p2075
aVrequirements
p2076
aVcode
p2077
aVbase
p2078
aVtype
p2079
aVdescription
p2080
aVxpath
p2081
aVxpathUsage
p2082
aVtarget
p2083
asVAppointmentResponse
p2084
(lp2085
Vid
p2086
aVmeta
p2087
aVimplicitRules
p2088
aVlanguage
p2089
aVtext
p2090
aVcontained
p2091
aVextension
p2092
aVmodifierExtension
p2093
aVidentifier
p2094
aVappointment
p2095
aVstart
p2096
aVend
p2097
aVparticipantType
p2098
aVactor
p2099
aVparticipantStatus
p2100
aVcomment
p2101
asVClaimResponse
p2102
(lp2103
Vid
p2104
aVmeta
p2105
aVimplicitRules
p2106
aVlanguage
p2107
aVtext
p2108
aVcontained
p2109
aVextension
p2110
aVmodifierExtension
p2111
aVidentifier
p2112
aVrequest
p2113
aVruleset
p2114
aVoriginalRuleset
p2115
aVcreated
p2116
aVorganization
p2117
aVrequestProvider
p2118
aVrequestOrganization
p2119
aVoutcome
p2120
aVdisposition
p2121
aVpayeeType
p2122
aVitem
p2123
aVaddItem
p2124
aVerror
p2125
aVtotalCost
p2126
aVunallocDeductable
p2127
aVtotalBenefit
p2128
aVpaymentAdjustment
p2129
aVpaymentAdjustmentReason
p2130
aVpaymentDate
p2131
aVpaymentAmount
p2132
aVpaymentRef
p2133
aVreserved
p2134
aVform
p2135
aVnote
p2136
aVcoverage
p2137
asVEpisodeOfCare
p2138
(lp2139
Vid
p2140
aVmeta
p2141
aVimplicitRules
p2142
aVlanguage
p2143
aVtext
p2144
aVcontained
p2145
aVextension
p2146
aVmodifierExtension
p2147
aVidentifier
p2148
aVstatus
p2149
aVstatusHistory
p2150
aVtype
p2151
aVcondition
p2152
aVpatient
p2153
aVmanagingOrganization
p2154
aVperiod
p2155
aVreferralRequest
p2156
aVcareManager
p2157
aVcareTeam
p2158
asVResource
p2159
(lp2160
Vid
p2161
aVmeta
p2162
aVimplicitRules
p2163
aVlanguage
p2164
asVDeviceMetric
p2165
(lp2166
Vid
p2167
aVmeta
p2168
aVimplicitRules
p2169
aVlanguage
p2170
aVtext
p2171
aVcontained
p2172
aVextension
p2173
aVmodifierExtension
p2174
aVtype
p2175
aVidentifier
p2176
aVunit
p2177
aVsource
p2178
aVparent
p2179
aVoperationalStatus
p2180
aVcolor
p2181
aVcategory
p2182
aVmeasurementPeriod
p2183
aVcalibration
p2184
asVList
p2185
(lp2186
Vid
p2187
aVmeta
p2188
aVimplicitRules
p2189
aVlanguage
p2190
aVtext
p2191
aVcontained
p2192
aVextension
p2193
aVmodifierExtension
p2194
aVidentifier
p2195
aVtitle
p2196
aVcode
p2197
aVsubject
p2198
aVsource
p2199
aVencounter
p2200
aVstatus
p2201
aVdate
p2202
aVorderedBy
p2203
aVmode
p2204
aVnote
p2205
aVentry
p2206
aVemptyReason
p2207
asVAuditEvent
p2208
(lp2209
Vid
p2210
aVmeta
p2211
aVimplicitRules
p2212
aVlanguage
p2213
aVtext
p2214
aVcontained
p2215
aVextension
p2216
aVmodifierExtension
p2217
aVevent
p2218
aVparticipant
p2219
aVsource
p2220
aVobject
p2221
asVOrder
p2222
(lp2223
Vid
p2224
aVmeta
p2225
aVimplicitRules
p2226
aVlanguage
p2227
aVtext
p2228
aVcontained
p2229
aVextension
p2230
aVmodifierExtension
p2231
aVidentifier
p2232
aVdate
p2233
aVsubject
p2234
aVsource
p2235
aVtarget
p2236
aVreasonCodeableConcept
p2237
aVreasonReference
p2238
aVwhen
p2239
aVdetail
p2240
asVOrderSet
p2241
(lp2242
Vid
p2243
aVmeta
p2244
aVimplicitRules
p2245
aVlanguage
p2246
aVtext
p2247
aVcontained
p2248
aVextension
p2249
aVmodifierExtension
p2250
aVidentifier
p2251
aVversion
p2252
aVmoduleMetadata
p2253
aVlibrary
p2254
aVitem
p2255
asVDocumentReference
p2256
(lp2257
Vid
p2258
aVmeta
p2259
aVimplicitRules
p2260
aVlanguage
p2261
aVtext
p2262
aVcontained
p2263
aVextension
p2264
aVmodifierExtension
p2265
aVmasterIdentifier
p2266
aVidentifier
p2267
aVsubject
p2268
aVtype
p2269
aVclass
p2270
aVauthor
p2271
aVcustodian
p2272
aVauthenticator
p2273
aVcreated
p2274
aVindexed
p2275
aVstatus
p2276
aVdocStatus
p2277
aVrelatesTo
p2278
aVdescription
p2279
aVsecurityLabel
p2280
aVcontent
p2281
aVcontext
p2282
asVEnrollmentResponse
p2283
(lp2284
Vid
p2285
aVmeta
p2286
aVimplicitRules
p2287
aVlanguage
p2288
aVtext
p2289
aVcontained
p2290
aVextension
p2291
aVmodifierExtension
p2292
aVidentifier
p2293
aVrequest
p2294
aVoutcome
p2295
aVdisposition
p2296
aVruleset
p2297
aVoriginalRuleset
p2298
aVcreated
p2299
aVorganization
p2300
aVrequestProvider
p2301
aVrequestOrganization
p2302
asVDataElement
p2303
(lp2304
Vid
p2305
aVmeta
p2306
aVimplicitRules
p2307
aVlanguage
p2308
aVtext
p2309
aVcontained
p2310
aVextension
p2311
aVmodifierExtension
p2312
aVurl
p2313
aVidentifier
p2314
aVversion
p2315
aVname
p2316
aVstatus
p2317
aVexperimental
p2318
aVpublisher
p2319
aVcontact
p2320
aVdate
p2321
aVuseContext
p2322
aVcopyright
p2323
aVstringency
p2324
aVmapping
p2325
aVelement
p2326
asVNutritionOrder
p2327
(lp2328
Vid
p2329
aVmeta
p2330
aVimplicitRules
p2331
aVlanguage
p2332
aVtext
p2333
aVcontained
p2334
aVextension
p2335
aVmodifierExtension
p2336
aVpatient
p2337
aVorderer
p2338
aVidentifier
p2339
aVencounter
p2340
aVdateTime
p2341
aVstatus
p2342
aVallergyIntolerance
p2343
aVfoodPreferenceModifier
p2344
aVexcludeFoodModifier
p2345
aVoralDiet
p2346
aVsupplement
p2347
aVenteralFormula
p2348
asVSupplyDelivery
p2349
(lp2350
Vid
p2351
aVmeta
p2352
aVimplicitRules
p2353
aVlanguage
p2354
aVtext
p2355
aVcontained
p2356
aVextension
p2357
aVmodifierExtension
p2358
aVidentifier
p2359
aVstatus
p2360
aVpatient
p2361
aVtype
p2362
aVquantity
p2363
aVsuppliedItem
p2364
aVsupplier
p2365
aVwhenPrepared
p2366
aVtime
p2367
aVdestination
p2368
aVreceiver
p2369
as.