ccollections
defaultdict
p0
(c__builtin__
list
p1
tp2
Rp3
VNamingSystem
p4
(lp5
Vid
p6
aVmeta
p7
aVimplicitRules
p8
aVlanguage
p9
aVtext
p10
aVcontained
p11
aVextension
p12
aVmodifierExtension
p13
aVname
p14
aVstatus
p15
aVkind
p16
aVdate
p17
aVpublisher
p18
aVcontact
p19
aVresponsible
p20
aVtype
p21
aVdescription
p22
aVuseContext
p23
aVusage
p24
aVuniqueId
p25
aVreplacedBy
p26
asVGoal
p27
(lp28
Vid
p29
aVmeta
p30
aVimplicitRules
p31
aVlanguage
p32
aVtext
p33
aVcontained
p34
aVextension
p35
aVmodifierExtension
p36
aVidentifier
p37
aVsubject
p38
aVstartDate
p39
aVstartCodeableConcept
p40
aVtargetDate
p41
aVtargetDuration
p42
aVcategory
p43
aVdescription
p44
aVstatus
p45
aVstatusDate
p46
aVstatusReason
p47
aVexpressedBy
p48
aVpriority
p49
aVaddresses
p50
aVnote
p51
aVoutcome
p52
asVImmunizationRecommendation
p53
(lp54
Vid
p55
aVmeta
p56
aVimplicitRules
p57
aVlanguage
p58
aVtext
p59
aVcontained
p60
aVextension
p61
aVmodifierExtension
p62
aVidentifier
p63
aVpatient
p64
aVrecommendation
p65
asVMessageHeader
p66
(lp67
Vid
p68
aVmeta
p69
aVimplicitRules
p70
aVlanguage
p71
aVtext
p72
aVcontained
p73
aVextension
p74
aVmodifierExtension
p75
aVtimestamp
p76
aVevent
p77
aVresponse
p78
aVsource
p79
aVdestination
p80
aVenterer
p81
aVauthor
p82
aVreceiver
p83
aVresponsible
p84
aVreason
p85
aVdata
p86
asVActivityDefinition
p87
(lp88
Vid
p89
aVmeta
p90
aVimplicitRules
p91
aVlanguage
p92
aVtext
p93
aVcontained
p94
aVextension
p95
aVmodifierExtension
p96
aVurl
p97
aVidentifier
p98
aVversion
p99
aVname
p100
aVtitle
p101
aVstatus
p102
aVexperimental
p103
aVdescription
p104
aVpurpose
p105
aVusage
p106
aVpublicationDate
p107
aVlastReviewDate
p108
aVeffectivePeriod
p109
aVcoverage
p110
aVtopic
p111
aVcontributor
p112
aVpublisher
p113
aVcontact
p114
aVcopyright
p115
aVrelatedResource
p116
aVlibrary
p117
aVcategory
p118
aVcode
p119
aVtimingCodeableConcept
p120
aVtimingTiming
p121
aVlocation
p122
aVparticipantType
p123
aVproductReference
p124
aVproductReference
p125
aVproductCodeableConcept
p126
aVquantity
p127
aVtransform
p128
aVdynamicValue
p129
asVPractitioner
p130
(lp131
Vid
p132
aVmeta
p133
aVimplicitRules
p134
aVlanguage
p135
aVtext
p136
aVcontained
p137
aVextension
p138
aVmodifierExtension
p139
aVidentifier
p140
aVactive
p141
aVname
p142
aVtelecom
p143
aVaddress
p144
aVgender
p145
aVbirthDate
p146
aVphoto
p147
aVrole
p148
aVqualification
p149
aVcommunication
p150
asVSchedule
p151
(lp152
Vid
p153
aVmeta
p154
aVimplicitRules
p155
aVlanguage
p156
aVtext
p157
aVcontained
p158
aVextension
p159
aVmodifierExtension
p160
aVidentifier
p161
aVactive
p162
aVserviceCategory
p163
aVserviceType
p164
aVspecialty
p165
aVactor
p166
aVplanningHorizon
p167
aVcomment
p168
asVDocumentManifest
p169
(lp170
Vid
p171
aVmeta
p172
aVimplicitRules
p173
aVlanguage
p174
aVtext
p175
aVcontained
p176
aVextension
p177
aVmodifierExtension
p178
aVmasterIdentifier
p179
aVidentifier
p180
aVsubject
p181
aVrecipient
p182
aVtype
p183
aVauthor
p184
aVcreated
p185
aVsource
p186
aVstatus
p187
aVdescription
p188
aVcontent
p189
aVrelated
p190
asVImplementationGuide
p191
(lp192
Vid
p193
aVmeta
p194
aVimplicitRules
p195
aVlanguage
p196
aVtext
p197
aVcontained
p198
aVextension
p199
aVmodifierExtension
p200
aVurl
p201
aVversion
p202
aVname
p203
aVstatus
p204
aVexperimental
p205
aVpublisher
p206
aVcontact
p207
aVdate
p208
aVdescription
p209
aVuseContext
p210
aVcopyright
p211
aVfhirVersion
p212
aVdependency
p213
aVpackage
p214
aVglobal
p215
aVbinary
p216
aVpage
p217
asVPlanDefinition
p218
(lp219
Vid
p220
aVmeta
p221
aVimplicitRules
p222
aVlanguage
p223
aVtext
p224
aVcontained
p225
aVextension
p226
aVmodifierExtension
p227
aVurl
p228
aVidentifier
p229
aVversion
p230
aVname
p231
aVtitle
p232
aVtype
p233
aVstatus
p234
aVexperimental
p235
aVdescription
p236
aVpurpose
p237
aVusage
p238
aVpublicationDate
p239
aVlastReviewDate
p240
aVeffectivePeriod
p241
aVcoverage
p242
aVtopic
p243
aVcontributor
p244
aVpublisher
p245
aVcontact
p246
aVcopyright
p247
aVrelatedResource
p248
aVlibrary
p249
aVactionDefinition
p250
asVEncounter
p251
(lp252
Vid
p253
aVmeta
p254
aVimplicitRules
p255
aVlanguage
p256
aVtext
p257
aVcontained
p258
aVextension
p259
aVmodifierExtension
p260
aVidentifier
p261
aVstatus
p262
aVstatusHistory
p263
aVclass
p264
aVtype
p265
aVpriority
p266
aVpatient
p267
aVepisodeOfCare
p268
aVincomingReferral
p269
aVparticipant
p270
aVappointment
p271
aVperiod
p272
aVlength
p273
aVreason
p274
aVindication
p275
aVaccount
p276
aVhospitalization
p277
aVlocation
p278
aVserviceProvider
p279
aVpartOf
p280
asVAccount
p281
(lp282
Vid
p283
aVmeta
p284
aVimplicitRules
p285
aVlanguage
p286
aVtext
p287
aVcontained
p288
aVextension
p289
aVmodifierExtension
p290
aVidentifier
p291
aVname
p292
aVtype
p293
aVstatus
p294
aVactive
p295
aVcurrency
p296
aVbalance
p297
aVcoverage
p298
aVcoveragePeriod
p299
aVsubject
p300
aVowner
p301
aVdescription
p302
asVTask
p303
(lp304
Vid
p305
aVmeta
p306
aVimplicitRules
p307
aVlanguage
p308
aVtext
p309
aVcontained
p310
aVextension
p311
aVmodifierExtension
p312
aVidentifier
p313
aVbasedOn
p314
aVrequisition
p315
aVparent
p316
aVstatus
p317
aVstatusReason
p318
aVbusinessStatus
p319
aVstage
p320
aVcode
p321
aVpriority
p322
aVdescription
p323
aVfocus
p324
aVfor
p325
aVcontext
p326
aVcreated
p327
aVlastModified
p328
aVrequester
p329
aVowner
p330
aVperformerType
p331
aVreason
p332
aVnote
p333
aVfulfillment
p334
aVdefinition
p335
aVinput
p336
aVoutput
p337
asVCodeSystem
p338
(lp339
Vid
p340
aVmeta
p341
aVimplicitRules
p342
aVlanguage
p343
aVtext
p344
aVcontained
p345
aVextension
p346
aVmodifierExtension
p347
aVurl
p348
aVidentifier
p349
aVversion
p350
aVname
p351
aVstatus
p352
aVexperimental
p353
aVpublisher
p354
aVcontact
p355
aVdate
p356
aVdescription
p357
aVuseContext
p358
aVrequirements
p359
aVcopyright
p360
aVcaseSensitive
p361
aVvalueSet
p362
aVhierarchyMeaning
p363
aVcompositional
p364
aVversionNeeded
p365
aVcontent
p366
aVcount
p367
aVfilter
p368
aVproperty
p369
aVconcept
p370
asVMeasureReport
p371
(lp372
Vid
p373
aVmeta
p374
aVimplicitRules
p375
aVlanguage
p376
aVtext
p377
aVcontained
p378
aVextension
p379
aVmodifierExtension
p380
aVmeasure
p381
aVtype
p382
aVpatient
p383
aVperiod
p384
aVstatus
p385
aVdate
p386
aVreportingOrganization
p387
aVgroup
p388
aVevaluatedResources
p389
asVOrganization
p390
(lp391
Vid
p392
aVmeta
p393
aVimplicitRules
p394
aVlanguage
p395
aVtext
p396
aVcontained
p397
aVextension
p398
aVmodifierExtension
p399
aVidentifier
p400
aVactive
p401
aVtype
p402
aVname
p403
aValias
p404
aVtelecom
p405
aVaddress
p406
aVpartOf
p407
aVcontact
p408
aVendpoint
p409
asVMedicationStatement
p410
(lp411
Vid
p412
aVmeta
p413
aVimplicitRules
p414
aVlanguage
p415
aVtext
p416
aVcontained
p417
aVextension
p418
aVmodifierExtension
p419
aVidentifier
p420
aVstatus
p421
aVmedicationCodeableConcept
p422
aVmedicationReference
p423
aVpatient
p424
aVeffectiveDateTime
p425
aVeffectivePeriod
p426
aVinformationSource
p427
aVsupportingInformation
p428
aVdateAsserted
p429
aVnotTaken
p430
aVreasonNotTaken
p431
aVreasonForUseCode
p432
aVreasonForUseReference
p433
aVnote
p434
aVcategory
p435
aVdosage
p436
asVMedicationDispense
p437
(lp438
Vid
p439
aVmeta
p440
aVimplicitRules
p441
aVlanguage
p442
aVtext
p443
aVcontained
p444
aVextension
p445
aVmodifierExtension
p446
aVidentifier
p447
aVstatus
p448
aVmedicationCodeableConcept
p449
aVmedicationReference
p450
aVpatient
p451
aVdispenser
p452
aVdispensingOrganization
p453
aVauthorizingPrescription
p454
aVtype
p455
aVquantity
p456
aVdaysSupply
p457
aVwhenPrepared
p458
aVwhenHandedOver
p459
aVdestination
p460
aVreceiver
p461
aVnote
p462
aVdosageInstruction
p463
aVsubstitution
p464
aVeventHistory
p465
asVSupplyRequest
p466
(lp467
Vid
p468
aVmeta
p469
aVimplicitRules
p470
aVlanguage
p471
aVtext
p472
aVcontained
p473
aVextension
p474
aVmodifierExtension
p475
aVpatient
p476
aVsource
p477
aVdate
p478
aVidentifier
p479
aVstatus
p480
aVkind
p481
aVorderedItemCodeableConcept
p482
aVorderedItemReference
p483
aVorderedItemReference
p484
aVorderedItemReference
p485
aVsupplier
p486
aVreasonCodeableConcept
p487
aVreasonReference
p488
aVwhen
p489
asVQuestionnaireResponse
p490
(lp491
Vid
p492
aVmeta
p493
aVimplicitRules
p494
aVlanguage
p495
aVtext
p496
aVcontained
p497
aVextension
p498
aVmodifierExtension
p499
aVidentifier
p500
aVbasedOn
p501
aVparent
p502
aVquestionnaire
p503
aVstatus
p504
aVsubject
p505
aVcontext
p506
aVauthor
p507
aVauthored
p508
aVsource
p509
aVitem
p510
asVParameters
p511
(lp512
Vid
p513
aVmeta
p514
aVimplicitRules
p515
aVlanguage
p516
aVparameter
p517
asVProvenance
p518
(lp519
Vid
p520
aVmeta
p521
aVimplicitRules
p522
aVlanguage
p523
aVtext
p524
aVcontained
p525
aVextension
p526
aVmodifierExtension
p527
aVtarget
p528
aVperiod
p529
aVrecorded
p530
aVreason
p531
aVactivity
p532
aVlocation
p533
aVpolicy
p534
aVagent
p535
aVentity
p536
aVsignature
p537
asVSubstance
p538
(lp539
Vid
p540
aVmeta
p541
aVimplicitRules
p542
aVlanguage
p543
aVtext
p544
aVcontained
p545
aVextension
p546
aVmodifierExtension
p547
aVidentifier
p548
aVcategory
p549
aVcode
p550
aVdescription
p551
aVinstance
p552
aVingredient
p553
asVLocation
p554
(lp555
Vid
p556
aVmeta
p557
aVimplicitRules
p558
aVlanguage
p559
aVtext
p560
aVcontained
p561
aVextension
p562
aVmodifierExtension
p563
aVidentifier
p564
aVstatus
p565
aVname
p566
aValias
p567
aVdescription
p568
aVmode
p569
aVtype
p570
aVtelecom
p571
aVaddress
p572
aVphysicalType
p573
aVposition
p574
aVmanagingOrganization
p575
aVpartOf
p576
aVendpoint
p577
asVCareTeam
p578
(lp579
Vid
p580
aVmeta
p581
aVimplicitRules
p582
aVlanguage
p583
aVtext
p584
aVcontained
p585
aVextension
p586
aVmodifierExtension
p587
aVidentifier
p588
aVstatus
p589
aVtype
p590
aVname
p591
aVsubject
p592
aVperiod
p593
aVparticipant
p594
aVmanagingOrganization
p595
asVExpansionProfile
p596
(lp597
Vid
p598
aVmeta
p599
aVimplicitRules
p600
aVlanguage
p601
aVtext
p602
aVcontained
p603
aVextension
p604
aVmodifierExtension
p605
aVurl
p606
aVidentifier
p607
aVversion
p608
aVname
p609
aVstatus
p610
aVexperimental
p611
aVpublisher
p612
aVcontact
p613
aVdate
p614
aVdescription
p615
aVcodeSystem
p616
aVincludeDesignations
p617
aVdesignation
p618
aVincludeDefinition
p619
aVincludeInactive
p620
aVexcludeNested
p621
aVexcludeNotForUI
p622
aVexcludePostCoordinated
p623
aVdisplayLanguage
p624
aVlimitedExpansion
p625
asVPatient
p626
(lp627
Vid
p628
aVmeta
p629
aVimplicitRules
p630
aVlanguage
p631
aVtext
p632
aVcontained
p633
aVextension
p634
aVmodifierExtension
p635
aVidentifier
p636
aVactive
p637
aVname
p638
aVtelecom
p639
aVgender
p640
aVbirthDate
p641
aVdeceasedBoolean
p642
aVdeceasedDateTime
p643
aVaddress
p644
aVmaritalStatus
p645
aVmultipleBirthBoolean
p646
aVmultipleBirthInteger
p647
aVphoto
p648
aVcontact
p649
aVanimal
p650
aVcommunication
p651
aVgeneralPractitioner
p652
aVmanagingOrganization
p653
aVlink
p654
asVPaymentNotice
p655
(lp656
Vid
p657
aVmeta
p658
aVimplicitRules
p659
aVlanguage
p660
aVtext
p661
aVcontained
p662
aVextension
p663
aVmodifierExtension
p664
aVidentifier
p665
aVstatus
p666
aVruleset
p667
aVoriginalRuleset
p668
aVcreated
p669
aVtargetIdentifier
p670
aVtargetReference
p671
aVproviderIdentifier
p672
aVproviderReference
p673
aVorganizationIdentifier
p674
aVorganizationReference
p675
aVrequestIdentifier
p676
aVrequestReference
p677
aVresponseIdentifier
p678
aVresponseReference
p679
aVpaymentStatus
p680
aVstatusDate
p681
asVClinicalImpression
p682
(lp683
Vid
p684
aVmeta
p685
aVimplicitRules
p686
aVlanguage
p687
aVtext
p688
aVcontained
p689
aVextension
p690
aVmodifierExtension
p691
aVidentifier
p692
aVstatus
p693
aVcode
p694
aVdescription
p695
aVsubject
p696
aVassessor
p697
aVdate
p698
aVeffectiveDateTime
p699
aVeffectivePeriod
p700
aVcontext
p701
aVprevious
p702
aVproblem
p703
aVinvestigations
p704
aVprotocol
p705
aVsummary
p706
aVfinding
p707
aVprognosisCodeableConcept
p708
aVprognosisReference
p709
aVplan
p710
aVaction
p711
aVnote
p712
asVFlag
p713
(lp714
Vid
p715
aVmeta
p716
aVimplicitRules
p717
aVlanguage
p718
aVtext
p719
aVcontained
p720
aVextension
p721
aVmodifierExtension
p722
aVidentifier
p723
aVcategory
p724
aVstatus
p725
aVperiod
p726
aVsubject
p727
aVencounter
p728
aVauthor
p729
aVcode
p730
asVExplanationOfBenefit
p731
(lp732
Vid
p733
aVmeta
p734
aVimplicitRules
p735
aVlanguage
p736
aVtext
p737
aVcontained
p738
aVextension
p739
aVmodifierExtension
p740
aVidentifier
p741
aVstatus
p742
aVauthorIdentifier
p743
aVauthorReference
p744
aVclaimIdentifier
p745
aVclaimReference
p746
aVclaimResponseIdentifier
p747
aVclaimResponseReference
p748
aVtype
p749
aVsubType
p750
aVruleset
p751
aVoriginalRuleset
p752
aVcreated
p753
aVbillablePeriod
p754
aVoutcome
p755
aVdisposition
p756
aVproviderIdentifier
p757
aVproviderReference
p758
aVorganizationIdentifier
p759
aVorganizationReference
p760
aVfacilityIdentifier
p761
aVfacilityReference
p762
aVrelated
p763
aVprescriptionIdentifier
p764
aVprescriptionReference
p765
aVprescriptionReference
p766
aVoriginalPrescriptionIdentifier
p767
aVoriginalPrescriptionReference
p768
aVpayee
p769
aVreferralIdentifier
p770
aVreferralReference
p771
aVinformation
p772
aVdiagnosis
p773
aVprocedure
p774
aVpatientIdentifier
p775
aVpatientReference
p776
aVprecedence
p777
aVcoverage
p778
aVaccident
p779
aVemploymentImpacted
p780
aVhospitalization
p781
aVitem
p782
aVaddItem
p783
aVmissingTeeth
p784
aVtotalCost
p785
aVunallocDeductable
p786
aVtotalBenefit
p787
aVpayment
p788
aVform
p789
aVnote
p790
aVbenefitBalance
p791
asVBodySite
p792
(lp793
Vid
p794
aVmeta
p795
aVimplicitRules
p796
aVlanguage
p797
aVtext
p798
aVcontained
p799
aVextension
p800
aVmodifierExtension
p801
aVpatient
p802
aVidentifier
p803
aVcode
p804
aVmodifier
p805
aVdescription
p806
aVimage
p807
asVLinkage
p808
(lp809
Vid
p810
aVmeta
p811
aVimplicitRules
p812
aVlanguage
p813
aVtext
p814
aVcontained
p815
aVextension
p816
aVmodifierExtension
p817
aVauthor
p818
aVitem
p819
asVSubscription
p820
(lp821
Vid
p822
aVmeta
p823
aVimplicitRules
p824
aVlanguage
p825
aVtext
p826
aVcontained
p827
aVextension
p828
aVmodifierExtension
p829
aVcriteria
p830
aVcontact
p831
aVreason
p832
aVstatus
p833
aVerror
p834
aVchannel
p835
aVend
p836
aVtag
p837
asVMedicationAdministration
p838
(lp839
Vid
p840
aVmeta
p841
aVimplicitRules
p842
aVlanguage
p843
aVtext
p844
aVcontained
p845
aVextension
p846
aVmodifierExtension
p847
aVidentifier
p848
aVstatus
p849
aVmedicationCodeableConcept
p850
aVmedicationReference
p851
aVpatient
p852
aVencounter
p853
aVeffectiveTimeDateTime
p854
aVeffectiveTimePeriod
p855
aVperformer
p856
aVprescription
p857
aVwasNotGiven
p858
aVreasonNotGiven
p859
aVreasonGiven
p860
aVdevice
p861
aVnote
p862
aVdosage
p863
aVeventHistory
p864
asVObservation
p865
(lp866
Vid
p867
aVmeta
p868
aVimplicitRules
p869
aVlanguage
p870
aVtext
p871
aVcontained
p872
aVextension
p873
aVmodifierExtension
p874
aVidentifier
p875
aVstatus
p876
aVcategory
p877
aVcode
p878
aVsubject
p879
aVencounter
p880
aVeffectiveDateTime
p881
aVeffectivePeriod
p882
aVissued
p883
aVperformer
p884
aVvalueQuantity
p885
aVvalueCodeableConcept
p886
aVvalueString
p887
aVvalueRange
p888
aVvalueRatio
p889
aVvalueSampledData
p890
aVvalueAttachment
p891
aVvalueTime
p892
aVvalueDateTime
p893
aVvaluePeriod
p894
aVdataAbsentReason
p895
aVinterpretation
p896
aVcomment
p897
aVbodySite
p898
aVmethod
p899
aVspecimen
p900
aVdevice
p901
aVreferenceRange
p902
aVrelated
p903
aVcomponent
p904
asVPaymentReconciliation
p905
(lp906
Vid
p907
aVmeta
p908
aVimplicitRules
p909
aVlanguage
p910
aVtext
p911
aVcontained
p912
aVextension
p913
aVmodifierExtension
p914
aVidentifier
p915
aVstatus
p916
aVrequestIdentifier
p917
aVrequestReference
p918
aVoutcome
p919
aVdisposition
p920
aVruleset
p921
aVoriginalRuleset
p922
aVcreated
p923
aVperiod
p924
aVorganizationIdentifier
p925
aVorganizationReference
p926
aVrequestProviderIdentifier
p927
aVrequestProviderReference
p928
aVrequestOrganizationIdentifier
p929
aVrequestOrganizationReference
p930
aVdetail
p931
aVform
p932
aVtotal
p933
aVnote
p934
asVStructureMap
p935
(lp936
Vid
p937
aVmeta
p938
aVimplicitRules
p939
aVlanguage
p940
aVtext
p941
aVcontained
p942
aVextension
p943
aVmodifierExtension
p944
aVurl
p945
aVidentifier
p946
aVversion
p947
aVname
p948
aVstatus
p949
aVexperimental
p950
aVpublisher
p951
aVcontact
p952
aVdate
p953
aVdescription
p954
aVuseContext
p955
aVrequirements
p956
aVcopyright
p957
aVstructure
p958
aVimport
p959
aVgroup
p960
asVTestScript
p961
(lp962
Vid
p963
aVmeta
p964
aVimplicitRules
p965
aVlanguage
p966
aVtext
p967
aVcontained
p968
aVextension
p969
aVmodifierExtension
p970
aVurl
p971
aVversion
p972
aVname
p973
aVstatus
p974
aVidentifier
p975
aVexperimental
p976
aVpublisher
p977
aVcontact
p978
aVdate
p979
aVdescription
p980
aVuseContext
p981
aVrequirements
p982
aVcopyright
p983
aVorigin
p984
aVdestination
p985
aVmetadata
p986
aVfixture
p987
aVprofile
p988
aVvariable
p989
aVrule
p990
aVruleset
p991
aVsetup
p992
aVtest
p993
aVteardown
p994
asVImmunization
p995
(lp996
Vid
p997
aVmeta
p998
aVimplicitRules
p999
aVlanguage
p1000
aVtext
p1001
aVcontained
p1002
aVextension
p1003
aVmodifierExtension
p1004
aVidentifier
p1005
aVstatus
p1006
aVdate
p1007
aVvaccineCode
p1008
aVpatient
p1009
aVwasNotGiven
p1010
aVreported
p1011
aVperformer
p1012
aVrequester
p1013
aVencounter
p1014
aVmanufacturer
p1015
aVlocation
p1016
aVlotNumber
p1017
aVexpirationDate
p1018
aVsite
p1019
aVroute
p1020
aVdoseQuantity
p1021
aVnote
p1022
aVexplanation
p1023
aVreaction
p1024
aVvaccinationProtocol
p1025
asVCommunicationRequest
p1026
(lp1027
Vid
p1028
aVmeta
p1029
aVimplicitRules
p1030
aVlanguage
p1031
aVtext
p1032
aVcontained
p1033
aVextension
p1034
aVmodifierExtension
p1035
aVidentifier
p1036
aVcategory
p1037
aVsender
p1038
aVrecipient
p1039
aVpayload
p1040
aVmedium
p1041
aVrequester
p1042
aVstatus
p1043
aVencounter
p1044
aVscheduledDateTime
p1045
aVscheduledPeriod
p1046
aVreason
p1047
aVrequestedOn
p1048
aVsubject
p1049
aVpriority
p1050
asVSequence
p1051
(lp1052
Vid
p1053
aVmeta
p1054
aVimplicitRules
p1055
aVlanguage
p1056
aVtext
p1057
aVcontained
p1058
aVextension
p1059
aVmodifierExtension
p1060
aVidentifier
p1061
aVtype
p1062
aVcoordinateSystem
p1063
aVpatient
p1064
aVspecimen
p1065
aVdevice
p1066
aVquantity
p1067
aVreferenceSeq
p1068
aVvariant
p1069
aVobservedSeq
p1070
aVquality
p1071
aVreadCoverage
p1072
aVrepository
p1073
aVpointer
p1074
aVstructureVariant
p1075
asVOperationOutcome
p1076
(lp1077
Vid
p1078
aVmeta
p1079
aVimplicitRules
p1080
aVlanguage
p1081
aVtext
p1082
aVcontained
p1083
aVextension
p1084
aVmodifierExtension
p1085
aVissue
p1086
asVMedication
p1087
(lp1088
Vid
p1089
aVmeta
p1090
aVimplicitRules
p1091
aVlanguage
p1092
aVtext
p1093
aVcontained
p1094
aVextension
p1095
aVmodifierExtension
p1096
aVcode
p1097
aVisBrand
p1098
aVmanufacturer
p1099
aVproduct
p1100
aVpackage
p1101
asVPractitionerRole
p1102
(lp1103
Vid
p1104
aVmeta
p1105
aVimplicitRules
p1106
aVlanguage
p1107
aVtext
p1108
aVcontained
p1109
aVextension
p1110
aVmodifierExtension
p1111
aVidentifier
p1112
aVactive
p1113
aVpractitioner
p1114
aVorganization
p1115
aVcode
p1116
aVspecialty
p1117
aVlocation
p1118
aVhealthcareService
p1119
aVtelecom
p1120
aVperiod
p1121
aVavailableTime
p1122
aVnotAvailable
p1123
aVavailabilityExceptions
p1124
aVendpoint
p1125
asVCommunication
p1126
(lp1127
Vid
p1128
aVmeta
p1129
aVimplicitRules
p1130
aVlanguage
p1131
aVtext
p1132
aVcontained
p1133
aVextension
p1134
aVmodifierExtension
p1135
aVidentifier
p1136
aVbasedOn
p1137
aVparent
p1138
aVstatus
p1139
aVcategory
p1140
aVmedium
p1141
aVsubject
p1142
aVtopic
p1143
aVcontext
p1144
aVsent
p1145
aVreceived
p1146
aVsender
p1147
aVrecipient
p1148
aVreason
p1149
aVpayload
p1150
aVnote
p1151
asVImagingManifest
p1152
(lp1153
Vid
p1154
aVmeta
p1155
aVimplicitRules
p1156
aVlanguage
p1157
aVtext
p1158
aVcontained
p1159
aVextension
p1160
aVmodifierExtension
p1161
aVuid
p1162
aVpatient
p1163
aVauthoringTime
p1164
aVauthor
p1165
aVtitle
p1166
aVdescription
p1167
aVstudy
p1168
asVProcessResponse
p1169
(lp1170
Vid
p1171
aVmeta
p1172
aVimplicitRules
p1173
aVlanguage
p1174
aVtext
p1175
aVcontained
p1176
aVextension
p1177
aVmodifierExtension
p1178
aVidentifier
p1179
aVstatus
p1180
aVrequestIdentifier
p1181
aVrequestReference
p1182
aVoutcome
p1183
aVdisposition
p1184
aVruleset
p1185
aVoriginalRuleset
p1186
aVcreated
p1187
aVorganizationIdentifier
p1188
aVorganizationReference
p1189
aVrequestProviderIdentifier
p1190
aVrequestProviderReference
p1191
aVrequestOrganizationIdentifier
p1192
aVrequestOrganizationReference
p1193
aVform
p1194
aVnotes
p1195
aVerror
p1196
asVMedicationOrder
p1197
(lp1198
Vid
p1199
aVmeta
p1200
aVimplicitRules
p1201
aVlanguage
p1202
aVtext
p1203
aVcontained
p1204
aVextension
p1205
aVmodifierExtension
p1206
aVidentifier
p1207
aVstatus
p1208
aVmedicationCodeableConcept
p1209
aVmedicationReference
p1210
aVpatient
p1211
aVencounter
p1212
aVdateWritten
p1213
aVprescriber
p1214
aVreasonCode
p1215
aVreasonReference
p1216
aVnote
p1217
aVcategory
p1218
aVdosageInstruction
p1219
aVdispenseRequest
p1220
aVsubstitution
p1221
aVpriorPrescription
p1222
aVeventHistory
p1223
asVFamilyMemberHistory
p1224
(lp1225
Vid
p1226
aVmeta
p1227
aVimplicitRules
p1228
aVlanguage
p1229
aVtext
p1230
aVcontained
p1231
aVextension
p1232
aVmodifierExtension
p1233
aVidentifier
p1234
aVpatient
p1235
aVdate
p1236
aVstatus
p1237
aVname
p1238
aVrelationship
p1239
aVgender
p1240
aVbornPeriod
p1241
aVbornDate
p1242
aVbornString
p1243
aVageAge
p1244
aVageRange
p1245
aVageString
p1246
aVestimatedAge
p1247
aVdeceasedBoolean
p1248
aVdeceasedAge
p1249
aVdeceasedRange
p1250
aVdeceasedDate
p1251
aVdeceasedString
p1252
aVnote
p1253
aVcondition
p1254
asVBinary
p1255
(lp1256
Vid
p1257
aVmeta
p1258
aVimplicitRules
p1259
aVlanguage
p1260
aVcontentType
p1261
aVcontent
p1262
asVGroup
p1263
(lp1264
Vid
p1265
aVmeta
p1266
aVimplicitRules
p1267
aVlanguage
p1268
aVtext
p1269
aVcontained
p1270
aVextension
p1271
aVmodifierExtension
p1272
aVidentifier
p1273
aVtype
p1274
aVactual
p1275
aVactive
p1276
aVcode
p1277
aVname
p1278
aVquantity
p1279
aVcharacteristic
p1280
aVmember
p1281
asVRiskAssessment
p1282
(lp1283
Vid
p1284
aVmeta
p1285
aVimplicitRules
p1286
aVlanguage
p1287
aVtext
p1288
aVcontained
p1289
aVextension
p1290
aVmodifierExtension
p1291
aVidentifier
p1292
aVbasedOn
p1293
aVparent
p1294
aVstatus
p1295
aVcode
p1296
aVsubject
p1297
aVcontext
p1298
aVoccurrenceDateTime
p1299
aVoccurrencePeriod
p1300
aVcondition
p1301
aVperformer
p1302
aVreasonCodeableConcept
p1303
aVreasonReference
p1304
aVmethod
p1305
aVbasis
p1306
aVprediction
p1307
aVmitigation
p1308
aVnote
p1309
asVImagingStudy
p1310
(lp1311
Vid
p1312
aVmeta
p1313
aVimplicitRules
p1314
aVlanguage
p1315
aVtext
p1316
aVcontained
p1317
aVextension
p1318
aVmodifierExtension
p1319
aVuid
p1320
aVaccession
p1321
aVidentifier
p1322
aVavailability
p1323
aVmodalityList
p1324
aVpatient
p1325
aVcontext
p1326
aVstarted
p1327
aVbasedOn
p1328
aVreferrer
p1329
aVinterpreter
p1330
aVbaseLocation
p1331
aVnumberOfSeries
p1332
aVnumberOfInstances
p1333
aVprocedure
p1334
aVreason
p1335
aVdescription
p1336
aVseries
p1337
asVGuidanceResponse
p1338
(lp1339
Vid
p1340
aVmeta
p1341
aVimplicitRules
p1342
aVlanguage
p1343
aVtext
p1344
aVcontained
p1345
aVextension
p1346
aVmodifierExtension
p1347
aVrequestId
p1348
aVidentifier
p1349
aVmodule
p1350
aVstatus
p1351
aVsubject
p1352
aVcontext
p1353
aVoccurrenceDateTime
p1354
aVperformer
p1355
aVreasonCodeableConcept
p1356
aVreasonReference
p1357
aVnote
p1358
aVevaluationMessage
p1359
aVoutputParameters
p1360
aVaction
p1361
aVdataRequirement
p1362
asVBasic
p1363
(lp1364
Vid
p1365
aVmeta
p1366
aVimplicitRules
p1367
aVlanguage
p1368
aVtext
p1369
aVcontained
p1370
aVextension
p1371
aVmodifierExtension
p1372
aVidentifier
p1373
aVcode
p1374
aVsubject
p1375
aVcreated
p1376
aVauthor
p1377
asVConformance
p1378
(lp1379
Vid
p1380
aVmeta
p1381
aVimplicitRules
p1382
aVlanguage
p1383
aVtext
p1384
aVcontained
p1385
aVextension
p1386
aVmodifierExtension
p1387
aVurl
p1388
aVversion
p1389
aVname
p1390
aVstatus
p1391
aVexperimental
p1392
aVdate
p1393
aVpublisher
p1394
aVcontact
p1395
aVdescription
p1396
aVuseContext
p1397
aVrequirements
p1398
aVcopyright
p1399
aVkind
p1400
aVinstantiates
p1401
aVsoftware
p1402
aVimplementation
p1403
aVfhirVersion
p1404
aVacceptUnknown
p1405
aVformat
p1406
aVprofile
p1407
aVrest
p1408
aVmessaging
p1409
aVdocument
p1410
asVAppointment
p1411
(lp1412
Vid
p1413
aVmeta
p1414
aVimplicitRules
p1415
aVlanguage
p1416
aVtext
p1417
aVcontained
p1418
aVextension
p1419
aVmodifierExtension
p1420
aVidentifier
p1421
aVstatus
p1422
aVserviceCategory
p1423
aVserviceType
p1424
aVspecialty
p1425
aVappointmentType
p1426
aVreason
p1427
aVpriority
p1428
aVdescription
p1429
aVstart
p1430
aVend
p1431
aVminutesDuration
p1432
aVslot
p1433
aVcreated
p1434
aVcomment
p1435
aVparticipant
p1436
asVValueSet
p1437
(lp1438
Vid
p1439
aVmeta
p1440
aVimplicitRules
p1441
aVlanguage
p1442
aVtext
p1443
aVcontained
p1444
aVextension
p1445
aVmodifierExtension
p1446
aVurl
p1447
aVidentifier
p1448
aVversion
p1449
aVname
p1450
aVstatus
p1451
aVexperimental
p1452
aVpublisher
p1453
aVcontact
p1454
aVdate
p1455
aVlockedDate
p1456
aVdescription
p1457
aVuseContext
p1458
aVimmutable
p1459
aVrequirements
p1460
aVcopyright
p1461
aVextensible
p1462
aVcompose
p1463
aVexpansion
p1464
asVProcedureRequest
p1465
(lp1466
Vid
p1467
aVmeta
p1468
aVimplicitRules
p1469
aVlanguage
p1470
aVtext
p1471
aVcontained
p1472
aVextension
p1473
aVmodifierExtension
p1474
aVidentifier
p1475
aVsubject
p1476
aVcode
p1477
aVbodySite
p1478
aVreasonCodeableConcept
p1479
aVreasonReference
p1480
aVscheduledDateTime
p1481
aVscheduledPeriod
p1482
aVscheduledTiming
p1483
aVencounter
p1484
aVperformer
p1485
aVstatus
p1486
aVnotes
p1487
aVasNeededBoolean
p1488
aVasNeededCodeableConcept
p1489
aVorderedOn
p1490
aVorderer
p1491
aVpriority
p1492
asVBundle
p1493
(lp1494
Vid
p1495
aVmeta
p1496
aVimplicitRules
p1497
aVlanguage
p1498
aVtype
p1499
aVtotal
p1500
aVlink
p1501
aVentry
p1502
aVsignature
p1503
asVCoverage
p1504
(lp1505
Vid
p1506
aVmeta
p1507
aVimplicitRules
p1508
aVlanguage
p1509
aVtext
p1510
aVcontained
p1511
aVextension
p1512
aVmodifierExtension
p1513
aVstatus
p1514
aVissuerIdentifier
p1515
aVissuerReference
p1516
aVissuerReference
p1517
aVissuerReference
p1518
aVisAgreement
p1519
aVbin
p1520
aVperiod
p1521
aVtype
p1522
aVplanholderIdentifier
p1523
aVplanholderReference
p1524
aVplanholderReference
p1525
aVbeneficiaryIdentifier
p1526
aVbeneficiaryReference
p1527
aVrelationship
p1528
aVidentifier
p1529
aVgroup
p1530
aVsubGroup
p1531
aVplan
p1532
aVsubPlan
p1533
aVclass
p1534
aVdependent
p1535
aVsequence
p1536
aVnetwork
p1537
aVcontract
p1538
asVDevice
p1539
(lp1540
Vid
p1541
aVmeta
p1542
aVimplicitRules
p1543
aVlanguage
p1544
aVtext
p1545
aVcontained
p1546
aVextension
p1547
aVmodifierExtension
p1548
aVidentifier
p1549
aVudiCarrier
p1550
aVstatus
p1551
aVtype
p1552
aVlotNumber
p1553
aVmanufacturer
p1554
aVmanufactureDate
p1555
aVexpirationDate
p1556
aVmodel
p1557
aVversion
p1558
aVpatient
p1559
aVowner
p1560
aVcontact
p1561
aVlocation
p1562
aVurl
p1563
aVnote
p1564
asVCondition
p1565
(lp1566
Vid
p1567
aVmeta
p1568
aVimplicitRules
p1569
aVlanguage
p1570
aVtext
p1571
aVcontained
p1572
aVextension
p1573
aVmodifierExtension
p1574
aVidentifier
p1575
aVclinicalStatus
p1576
aVverificationStatus
p1577
aVcategory
p1578
aVseverity
p1579
aVcode
p1580
aVbodySite
p1581
aVsubject
p1582
aVcontext
p1583
aVonsetDateTime
p1584
aVonsetAge
p1585
aVonsetPeriod
p1586
aVonsetRange
p1587
aVonsetString
p1588
aVabatementDateTime
p1589
aVabatementAge
p1590
aVabatementBoolean
p1591
aVabatementPeriod
p1592
aVabatementRange
p1593
aVabatementString
p1594
aVdateRecorded
p1595
aVasserter
p1596
aVstage
p1597
aVevidence
p1598
aVnote
p1599
asVEligibilityRequest
p1600
(lp1601
Vid
p1602
aVmeta
p1603
aVimplicitRules
p1604
aVlanguage
p1605
aVtext
p1606
aVcontained
p1607
aVextension
p1608
aVmodifierExtension
p1609
aVidentifier
p1610
aVstatus
p1611
aVruleset
p1612
aVoriginalRuleset
p1613
aVcreated
p1614
aVinsurerIdentifier
p1615
aVinsurerReference
p1616
aVproviderIdentifier
p1617
aVproviderReference
p1618
aVorganizationIdentifier
p1619
aVorganizationReference
p1620
aVpriority
p1621
aVentererIdentifier
p1622
aVentererReference
p1623
aVfacilityIdentifier
p1624
aVfacilityReference
p1625
aVpatientIdentifier
p1626
aVpatientReference
p1627
aVcoverageIdentifier
p1628
aVcoverageReference
p1629
aVbusinessArrangement
p1630
aVservicedDate
p1631
aVservicedPeriod
p1632
aVbenefitCategory
p1633
aVbenefitSubCategory
p1634
asVDeviceUseStatement
p1635
(lp1636
Vid
p1637
aVmeta
p1638
aVimplicitRules
p1639
aVlanguage
p1640
aVtext
p1641
aVcontained
p1642
aVextension
p1643
aVmodifierExtension
p1644
aVbodySiteCodeableConcept
p1645
aVbodySiteReference
p1646
aVwhenUsed
p1647
aVdevice
p1648
aVidentifier
p1649
aVindication
p1650
aVnotes
p1651
aVrecordedOn
p1652
aVsubject
p1653
aVtimingTiming
p1654
aVtimingPeriod
p1655
aVtimingDateTime
p1656
asVDetectedIssue
p1657
(lp1658
Vid
p1659
aVmeta
p1660
aVimplicitRules
p1661
aVlanguage
p1662
aVtext
p1663
aVcontained
p1664
aVextension
p1665
aVmodifierExtension
p1666
aVpatient
p1667
aVcategory
p1668
aVseverity
p1669
aVimplicated
p1670
aVdetail
p1671
aVdate
p1672
aVauthor
p1673
aVidentifier
p1674
aVreference
p1675
aVmitigation
p1676
asVContract
p1677
(lp1678
Vid
p1679
aVmeta
p1680
aVimplicitRules
p1681
aVlanguage
p1682
aVtext
p1683
aVcontained
p1684
aVextension
p1685
aVmodifierExtension
p1686
aVidentifier
p1687
aVissued
p1688
aVapplies
p1689
aVsubject
p1690
aVtopic
p1691
aVauthority
p1692
aVdomain
p1693
aVtype
p1694
aVsubType
p1695
aVaction
p1696
aVactionReason
p1697
aVagent
p1698
aVsigner
p1699
aVvaluedItem
p1700
aVterm
p1701
aVbindingAttachment
p1702
aVbindingReference
p1703
aVbindingReference
p1704
aVbindingReference
p1705
aVfriendly
p1706
aVlegal
p1707
aVrule
p1708
asVPerson
p1709
(lp1710
Vid
p1711
aVmeta
p1712
aVimplicitRules
p1713
aVlanguage
p1714
aVtext
p1715
aVcontained
p1716
aVextension
p1717
aVmodifierExtension
p1718
aVidentifier
p1719
aVname
p1720
aVtelecom
p1721
aVgender
p1722
aVbirthDate
p1723
aVaddress
p1724
aVphoto
p1725
aVmanagingOrganization
p1726
aVactive
p1727
aVlink
p1728
asVReferralRequest
p1729
(lp1730
Vid
p1731
aVmeta
p1732
aVimplicitRules
p1733
aVlanguage
p1734
aVtext
p1735
aVcontained
p1736
aVextension
p1737
aVmodifierExtension
p1738
aVidentifier
p1739
aVbasedOn
p1740
aVparent
p1741
aVstatus
p1742
aVcategory
p1743
aVtype
p1744
aVpriority
p1745
aVpatient
p1746
aVcontext
p1747
aVfulfillmentTime
p1748
aVauthored
p1749
aVrequester
p1750
aVspecialty
p1751
aVrecipient
p1752
aVreason
p1753
aVdescription
p1754
aVserviceRequested
p1755
aVsupportingInformation
p1756
asVDeviceComponent
p1757
(lp1758
Vid
p1759
aVmeta
p1760
aVimplicitRules
p1761
aVlanguage
p1762
aVtext
p1763
aVcontained
p1764
aVextension
p1765
aVmodifierExtension
p1766
aVtype
p1767
aVidentifier
p1768
aVlastSystemChange
p1769
aVsource
p1770
aVparent
p1771
aVoperationalStatus
p1772
aVparameterGroup
p1773
aVmeasurementPrinciple
p1774
aVproductionSpecification
p1775
aVlanguageCode
p1776
asVProcedure
p1777
(lp1778
Vid
p1779
aVmeta
p1780
aVimplicitRules
p1781
aVlanguage
p1782
aVtext
p1783
aVcontained
p1784
aVextension
p1785
aVmodifierExtension
p1786
aVidentifier
p1787
aVsubject
p1788
aVstatus
p1789
aVcategory
p1790
aVcode
p1791
aVnotPerformed
p1792
aVreasonNotPerformed
p1793
aVbodySite
p1794
aVreasonReference
p1795
aVreasonCode
p1796
aVperformer
p1797
aVperformedDateTime
p1798
aVperformedPeriod
p1799
aVencounter
p1800
aVlocation
p1801
aVoutcome
p1802
aVreport
p1803
aVcomplication
p1804
aVfollowUp
p1805
aVrequest
p1806
aVnotes
p1807
aVfocalDevice
p1808
aVusedReference
p1809
aVusedCode
p1810
aVcomponent
p1811
asVClaim
p1812
(lp1813
Vid
p1814
aVmeta
p1815
aVimplicitRules
p1816
aVlanguage
p1817
aVtext
p1818
aVcontained
p1819
aVextension
p1820
aVmodifierExtension
p1821
aVidentifier
p1822
aVstatus
p1823
aVtype
p1824
aVsubType
p1825
aVruleset
p1826
aVoriginalRuleset
p1827
aVcreated
p1828
aVbillablePeriod
p1829
aVinsurerIdentifier
p1830
aVinsurerReference
p1831
aVproviderIdentifier
p1832
aVproviderReference
p1833
aVorganizationIdentifier
p1834
aVorganizationReference
p1835
aVuse
p1836
aVpriority
p1837
aVfundsReserve
p1838
aVentererIdentifier
p1839
aVentererReference
p1840
aVfacilityIdentifier
p1841
aVfacilityReference
p1842
aVrelated
p1843
aVprescriptionIdentifier
p1844
aVprescriptionReference
p1845
aVprescriptionReference
p1846
aVoriginalPrescriptionIdentifier
p1847
aVoriginalPrescriptionReference
p1848
aVpayee
p1849
aVreferralIdentifier
p1850
aVreferralReference
p1851
aVinformation
p1852
aVdiagnosis
p1853
aVprocedure
p1854
aVpatientIdentifier
p1855
aVpatientReference
p1856
aVcoverage
p1857
aVaccident
p1858
aVemploymentImpacted
p1859
aVhospitalization
p1860
aVitem
p1861
aVtotal
p1862
aVmissingTeeth
p1863
asVOperationDefinition
p1864
(lp1865
Vid
p1866
aVmeta
p1867
aVimplicitRules
p1868
aVlanguage
p1869
aVtext
p1870
aVcontained
p1871
aVextension
p1872
aVmodifierExtension
p1873
aVurl
p1874
aVversion
p1875
aVname
p1876
aVstatus
p1877
aVkind
p1878
aVexperimental
p1879
aVdate
p1880
aVpublisher
p1881
aVcontact
p1882
aVdescription
p1883
aVuseContext
p1884
aVrequirements
p1885
aVidempotent
p1886
aVcode
p1887
aVcomment
p1888
aVbase
p1889
aVsystem
p1890
aVtype
p1891
aVinstance
p1892
aVparameter
p1893
asVDiagnosticReport
p1894
(lp1895
Vid
p1896
aVmeta
p1897
aVimplicitRules
p1898
aVlanguage
p1899
aVtext
p1900
aVcontained
p1901
aVextension
p1902
aVmodifierExtension
p1903
aVidentifier
p1904
aVstatus
p1905
aVcategory
p1906
aVcode
p1907
aVsubject
p1908
aVencounter
p1909
aVeffectiveDateTime
p1910
aVeffectivePeriod
p1911
aVissued
p1912
aVperformer
p1913
aVrequest
p1914
aVspecimen
p1915
aVresult
p1916
aVimagingStudy
p1917
aVimage
p1918
aVconclusion
p1919
aVcodedDiagnosis
p1920
aVpresentedForm
p1921
asVLibrary
p1922
(lp1923
Vid
p1924
aVmeta
p1925
aVimplicitRules
p1926
aVlanguage
p1927
aVtext
p1928
aVcontained
p1929
aVextension
p1930
aVmodifierExtension
p1931
aVurl
p1932
aVidentifier
p1933
aVversion
p1934
aVname
p1935
aVtitle
p1936
aVtype
p1937
aVstatus
p1938
aVexperimental
p1939
aVdescription
p1940
aVpurpose
p1941
aVusage
p1942
aVpublicationDate
p1943
aVlastReviewDate
p1944
aVeffectivePeriod
p1945
aVcoverage
p1946
aVtopic
p1947
aVcontributor
p1948
aVpublisher
p1949
aVcontact
p1950
aVcopyright
p1951
aVrelatedResource
p1952
aVparameter
p1953
aVdataRequirement
p1954
aVcontent
p1955
asVStructureDefinition
p1956
(lp1957
Vid
p1958
aVmeta
p1959
aVimplicitRules
p1960
aVlanguage
p1961
aVtext
p1962
aVcontained
p1963
aVextension
p1964
aVmodifierExtension
p1965
aVurl
p1966
aVidentifier
p1967
aVversion
p1968
aVname
p1969
aVdisplay
p1970
aVstatus
p1971
aVexperimental
p1972
aVpublisher
p1973
aVcontact
p1974
aVdate
p1975
aVdescription
p1976
aVuseContext
p1977
aVrequirements
p1978
aVcopyright
p1979
aVcode
p1980
aVfhirVersion
p1981
aVmapping
p1982
aVkind
p1983
aVabstract
p1984
aVcontextType
p1985
aVcontext
p1986
aVtype
p1987
aVbaseDefinition
p1988
aVderivation
p1989
aVsnapshot
p1990
aVdifferential
p1991
asVDeviceUseRequest
p1992
(lp1993
Vid
p1994
aVmeta
p1995
aVimplicitRules
p1996
aVlanguage
p1997
aVtext
p1998
aVcontained
p1999
aVextension
p2000
aVmodifierExtension
p2001
aVidentifier
p2002
aVdefinition
p2003
aVbasedOn
p2004
aVreplaces
p2005
aVrequisition
p2006
aVstatus
p2007
aVstage
p2008
aVdeviceReference
p2009
aVdeviceCodeableConcept
p2010
aVsubject
p2011
aVcontext
p2012
aVoccurrenceDateTime
p2013
aVoccurrencePeriod
p2014
aVoccurrenceTiming
p2015
aVauthored
p2016
aVrequester
p2017
aVperformerType
p2018
aVperformer
p2019
aVreasonCode
p2020
aVreasonReference
p2021
aVsupportingInfo
p2022
aVnote
p2023
aVrelevantHistory
p2024
asVMeasure
p2025
(lp2026
Vid
p2027
aVmeta
p2028
aVimplicitRules
p2029
aVlanguage
p2030
aVtext
p2031
aVcontained
p2032
aVextension
p2033
aVmodifierExtension
p2034
aVurl
p2035
aVidentifier
p2036
aVversion
p2037
aVname
p2038
aVtitle
p2039
aVstatus
p2040
aVexperimental
p2041
aVdescription
p2042
aVpurpose
p2043
aVusage
p2044
aVpublicationDate
p2045
aVlastReviewDate
p2046
aVeffectivePeriod
p2047
aVcoverage
p2048
aVtopic
p2049
aVcontributor
p2050
aVpublisher
p2051
aVcontact
p2052
aVcopyright
p2053
aVrelatedResource
p2054
aVlibrary
p2055
aVdisclaimer
p2056
aVscoring
p2057
aVtype
p2058
aVriskAdjustment
p2059
aVrateAggregation
p2060
aVrationale
p2061
aVclinicalRecommendationStatement
p2062
aVimprovementNotation
p2063
aVdefinition
p2064
aVguidance
p2065
aVset
p2066
aVgroup
p2067
aVsupplementalData
p2068
asVDecisionSupportServiceModule
p2069
(lp2070
Vid
p2071
aVmeta
p2072
aVimplicitRules
p2073
aVlanguage
p2074
aVtext
p2075
aVcontained
p2076
aVextension
p2077
aVmodifierExtension
p2078
aVurl
p2079
aVidentifier
p2080
aVversion
p2081
aVname
p2082
aVtitle
p2083
aVstatus
p2084
aVexperimental
p2085
aVdescription
p2086
aVpurpose
p2087
aVusage
p2088
aVpublicationDate
p2089
aVlastReviewDate
p2090
aVeffectivePeriod
p2091
aVcoverage
p2092
aVtopic
p2093
aVcontributor
p2094
aVpublisher
p2095
aVcontact
p2096
aVcopyright
p2097
aVrelatedResource
p2098
aVtrigger
p2099
aVparameter
p2100
aVdataRequirement
p2101
asVQuestionnaire
p2102
(lp2103
Vid
p2104
aVmeta
p2105
aVimplicitRules
p2106
aVlanguage
p2107
aVtext
p2108
aVcontained
p2109
aVextension
p2110
aVmodifierExtension
p2111
aVurl
p2112
aVidentifier
p2113
aVversion
p2114
aVstatus
p2115
aVdate
p2116
aVpublisher
p2117
aVtelecom
p2118
aVuseContext
p2119
aVtitle
p2120
aVconcept
p2121
aVsubjectType
p2122
aVitem
p2123
asVConceptMap
p2124
(lp2125
Vid
p2126
aVmeta
p2127
aVimplicitRules
p2128
aVlanguage
p2129
aVtext
p2130
aVcontained
p2131
aVextension
p2132
aVmodifierExtension
p2133
aVurl
p2134
aVidentifier
p2135
aVversion
p2136
aVname
p2137
aVstatus
p2138
aVexperimental
p2139
aVpublisher
p2140
aVcontact
p2141
aVdate
p2142
aVdescription
p2143
aVuseContext
p2144
aVrequirements
p2145
aVcopyright
p2146
aVsourceUri
p2147
aVsourceReference
p2148
aVsourceReference
p2149
aVtargetUri
p2150
aVtargetReference
p2151
aVtargetReference
p2152
aVgroup
p2153
asVEligibilityResponse
p2154
(lp2155
Vid
p2156
aVmeta
p2157
aVimplicitRules
p2158
aVlanguage
p2159
aVtext
p2160
aVcontained
p2161
aVextension
p2162
aVmodifierExtension
p2163
aVidentifier
p2164
aVstatus
p2165
aVrequestIdentifier
p2166
aVrequestReference
p2167
aVoutcome
p2168
aVdisposition
p2169
aVruleset
p2170
aVoriginalRuleset
p2171
aVcreated
p2172
aVorganizationIdentifier
p2173
aVorganizationReference
p2174
aVrequestProviderIdentifier
p2175
aVrequestProviderReference
p2176
aVrequestOrganizationIdentifier
p2177
aVrequestOrganizationReference
p2178
aVinforce
p2179
aVcontract
p2180
aVform
p2181
aVbenefitBalance
p2182
aVerror
p2183
asVSlot
p2184
(lp2185
Vid
p2186
aVmeta
p2187
aVimplicitRules
p2188
aVlanguage
p2189
aVtext
p2190
aVcontained
p2191
aVextension
p2192
aVmodifierExtension
p2193
aVidentifier
p2194
aVserviceCategory
p2195
aVserviceType
p2196
aVspecialty
p2197
aVappointmentType
p2198
aVschedule
p2199
aVstatus
p2200
aVstart
p2201
aVend
p2202
aVoverbooked
p2203
aVcomment
p2204
asVCarePlan
p2205
(lp2206
Vid
p2207
aVmeta
p2208
aVimplicitRules
p2209
aVlanguage
p2210
aVtext
p2211
aVcontained
p2212
aVextension
p2213
aVmodifierExtension
p2214
aVidentifier
p2215
aVsubject
p2216
aVstatus
p2217
aVcontext
p2218
aVperiod
p2219
aVauthor
p2220
aVmodified
p2221
aVcategory
p2222
aVdescription
p2223
aVaddresses
p2224
aVsupport
p2225
aVrelatedPlan
p2226
aVcareTeam
p2227
aVgoal
p2228
aVactivity
p2229
aVnote
p2230
asVMedia
p2231
(lp2232
Vid
p2233
aVmeta
p2234
aVimplicitRules
p2235
aVlanguage
p2236
aVtext
p2237
aVcontained
p2238
aVextension
p2239
aVmodifierExtension
p2240
aVidentifier
p2241
aVtype
p2242
aVsubtype
p2243
aVview
p2244
aVsubject
p2245
aVoperator
p2246
aVdeviceName
p2247
aVheight
p2248
aVwidth
p2249
aVframes
p2250
aVduration
p2251
aVcontent
p2252
asVEnrollmentResponse
p2253
(lp2254
Vid
p2255
aVmeta
p2256
aVimplicitRules
p2257
aVlanguage
p2258
aVtext
p2259
aVcontained
p2260
aVextension
p2261
aVmodifierExtension
p2262
aVidentifier
p2263
aVstatus
p2264
aVrequestIdentifier
p2265
aVrequestReference
p2266
aVoutcome
p2267
aVdisposition
p2268
aVruleset
p2269
aVoriginalRuleset
p2270
aVcreated
p2271
aVorganizationIdentifier
p2272
aVorganizationReference
p2273
aVrequestProviderIdentifier
p2274
aVrequestProviderReference
p2275
aVrequestOrganizationIdentifier
p2276
aVrequestOrganizationReference
p2277
asVHealthcareService
p2278
(lp2279
Vid
p2280
aVmeta
p2281
aVimplicitRules
p2282
aVlanguage
p2283
aVtext
p2284
aVcontained
p2285
aVextension
p2286
aVmodifierExtension
p2287
aVidentifier
p2288
aVactive
p2289
aVprovidedBy
p2290
aVserviceCategory
p2291
aVserviceType
p2292
aVspecialty
p2293
aVlocation
p2294
aVserviceName
p2295
aVcomment
p2296
aVextraDetails
p2297
aVphoto
p2298
aVtelecom
p2299
aVcoverageArea
p2300
aVserviceProvisionCode
p2301
aVeligibility
p2302
aVeligibilityNote
p2303
aVprogramName
p2304
aVcharacteristic
p2305
aVreferralMethod
p2306
aVpublicKey
p2307
aVappointmentRequired
p2308
aVavailableTime
p2309
aVnotAvailable
p2310
aVavailabilityExceptions
p2311
asVVisionPrescription
p2312
(lp2313
Vid
p2314
aVmeta
p2315
aVimplicitRules
p2316
aVlanguage
p2317
aVtext
p2318
aVcontained
p2319
aVextension
p2320
aVmodifierExtension
p2321
aVidentifier
p2322
aVdateWritten
p2323
aVpatient
p2324
aVprescriber
p2325
aVencounter
p2326
aVreasonCodeableConcept
p2327
aVreasonReference
p2328
aVdispense
p2329
asVAllergyIntolerance
p2330
(lp2331
Vid
p2332
aVmeta
p2333
aVimplicitRules
p2334
aVlanguage
p2335
aVtext
p2336
aVcontained
p2337
aVextension
p2338
aVmodifierExtension
p2339
aVidentifier
p2340
aVstatus
p2341
aVtype
p2342
aVcategory
p2343
aVcriticality
p2344
aVcode
p2345
aVpatient
p2346
aVattestedDate
p2347
aVrecorder
p2348
aVreporter
p2349
aVonset
p2350
aVlastOccurrence
p2351
aVnote
p2352
aVreaction
p2353
asVDomainResource
p2354
(lp2355
Vid
p2356
aVmeta
p2357
aVimplicitRules
p2358
aVlanguage
p2359
aVtext
p2360
aVcontained
p2361
aVextension
p2362
aVmodifierExtension
p2363
asVEnrollmentRequest
p2364
(lp2365
Vid
p2366
aVmeta
p2367
aVimplicitRules
p2368
aVlanguage
p2369
aVtext
p2370
aVcontained
p2371
aVextension
p2372
aVmodifierExtension
p2373
aVidentifier
p2374
aVstatus
p2375
aVruleset
p2376
aVoriginalRuleset
p2377
aVcreated
p2378
aVinsurerIdentifier
p2379
aVinsurerReference
p2380
aVproviderIdentifier
p2381
aVproviderReference
p2382
aVorganizationIdentifier
p2383
aVorganizationReference
p2384
aVsubjectIdentifier
p2385
aVsubjectReference
p2386
aVcoverage
p2387
asVComposition
p2388
(lp2389
Vid
p2390
aVmeta
p2391
aVimplicitRules
p2392
aVlanguage
p2393
aVtext
p2394
aVcontained
p2395
aVextension
p2396
aVmodifierExtension
p2397
aVidentifier
p2398
aVdate
p2399
aVtype
p2400
aVclass
p2401
aVtitle
p2402
aVstatus
p2403
aVconfidentiality
p2404
aVsubject
p2405
aVauthor
p2406
aVattester
p2407
aVcustodian
p2408
aVevent
p2409
aVencounter
p2410
aVsection
p2411
asVRelatedPerson
p2412
(lp2413
Vid
p2414
aVmeta
p2415
aVimplicitRules
p2416
aVlanguage
p2417
aVtext
p2418
aVcontained
p2419
aVextension
p2420
aVmodifierExtension
p2421
aVidentifier
p2422
aVactive
p2423
aVpatient
p2424
aVrelationship
p2425
aVname
p2426
aVtelecom
p2427
aVgender
p2428
aVbirthDate
p2429
aVaddress
p2430
aVphoto
p2431
aVperiod
p2432
asVProcessRequest
p2433
(lp2434
Vid
p2435
aVmeta
p2436
aVimplicitRules
p2437
aVlanguage
p2438
aVtext
p2439
aVcontained
p2440
aVextension
p2441
aVmodifierExtension
p2442
aVidentifier
p2443
aVstatus
p2444
aVruleset
p2445
aVoriginalRuleset
p2446
aVaction
p2447
aVcreated
p2448
aVtargetIdentifier
p2449
aVtargetReference
p2450
aVproviderIdentifier
p2451
aVproviderReference
p2452
aVorganizationIdentifier
p2453
aVorganizationReference
p2454
aVrequestIdentifier
p2455
aVrequestReference
p2456
aVresponseIdentifier
p2457
aVresponseReference
p2458
aVnullify
p2459
aVreference
p2460
aVitem
p2461
aVinclude
p2462
aVexclude
p2463
aVperiod
p2464
asVSpecimen
p2465
(lp2466
Vid
p2467
aVmeta
p2468
aVimplicitRules
p2469
aVlanguage
p2470
aVtext
p2471
aVcontained
p2472
aVextension
p2473
aVmodifierExtension
p2474
aVidentifier
p2475
aVaccessionIdentifier
p2476
aVstatus
p2477
aVtype
p2478
aVsubject
p2479
aVreceivedTime
p2480
aVparent
p2481
aVrequest
p2482
aVcollection
p2483
aVtreatment
p2484
aVcontainer
p2485
aVnote
p2486
asVConsent
p2487
(lp2488
Vid
p2489
aVmeta
p2490
aVimplicitRules
p2491
aVlanguage
p2492
aVtext
p2493
aVcontained
p2494
aVextension
p2495
aVmodifierExtension
p2496
aVidentifier
p2497
aVstatus
p2498
aVcategory
p2499
aVdateTime
p2500
aVperiod
p2501
aVpatient
p2502
aVconsentor
p2503
aVorganization
p2504
aVsourceAttachment
p2505
aVsourceIdentifier
p2506
aVsourceReference
p2507
aVsourceReference
p2508
aVsourceReference
p2509
aVsourceReference
p2510
aVpolicy
p2511
aVrecipient
p2512
aVpurpose
p2513
aVexcept
p2514
asVSearchParameter
p2515
(lp2516
Vid
p2517
aVmeta
p2518
aVimplicitRules
p2519
aVlanguage
p2520
aVtext
p2521
aVcontained
p2522
aVextension
p2523
aVmodifierExtension
p2524
aVurl
p2525
aVname
p2526
aVstatus
p2527
aVexperimental
p2528
aVdate
p2529
aVpublisher
p2530
aVcontact
p2531
aVuseContext
p2532
aVrequirements
p2533
aVcode
p2534
aVbase
p2535
aVtype
p2536
aVdescription
p2537
aVexpression
p2538
aVxpath
p2539
aVxpathUsage
p2540
aVtarget
p2541
aVcomponent
p2542
asVAppointmentResponse
p2543
(lp2544
Vid
p2545
aVmeta
p2546
aVimplicitRules
p2547
aVlanguage
p2548
aVtext
p2549
aVcontained
p2550
aVextension
p2551
aVmodifierExtension
p2552
aVidentifier
p2553
aVappointment
p2554
aVstart
p2555
aVend
p2556
aVparticipantType
p2557
aVactor
p2558
aVparticipantStatus
p2559
aVcomment
p2560
asVClaimResponse
p2561
(lp2562
Vid
p2563
aVmeta
p2564
aVimplicitRules
p2565
aVlanguage
p2566
aVtext
p2567
aVcontained
p2568
aVextension
p2569
aVmodifierExtension
p2570
aVidentifier
p2571
aVstatus
p2572
aVrequestIdentifier
p2573
aVrequestReference
p2574
aVruleset
p2575
aVoriginalRuleset
p2576
aVcreated
p2577
aVorganizationIdentifier
p2578
aVorganizationReference
p2579
aVrequestProviderIdentifier
p2580
aVrequestProviderReference
p2581
aVrequestOrganizationIdentifier
p2582
aVrequestOrganizationReference
p2583
aVoutcome
p2584
aVdisposition
p2585
aVpayeeType
p2586
aVitem
p2587
aVaddItem
p2588
aVerror
p2589
aVtotalCost
p2590
aVunallocDeductable
p2591
aVtotalBenefit
p2592
aVpayment
p2593
aVreserved
p2594
aVform
p2595
aVnote
p2596
aVcoverage
p2597
asVEpisodeOfCare
p2598
(lp2599
Vid
p2600
aVmeta
p2601
aVimplicitRules
p2602
aVlanguage
p2603
aVtext
p2604
aVcontained
p2605
aVextension
p2606
aVmodifierExtension
p2607
aVidentifier
p2608
aVstatus
p2609
aVstatusHistory
p2610
aVtype
p2611
aVcondition
p2612
aVpatient
p2613
aVmanagingOrganization
p2614
aVperiod
p2615
aVreferralRequest
p2616
aVcareManager
p2617
aVteam
p2618
aVaccount
p2619
asVEndpoint
p2620
(lp2621
Vid
p2622
aVmeta
p2623
aVimplicitRules
p2624
aVlanguage
p2625
aVtext
p2626
aVcontained
p2627
aVextension
p2628
aVmodifierExtension
p2629
aVidentifier
p2630
aVstatus
p2631
aVname
p2632
aVmanagingOrganization
p2633
aVcontact
p2634
aVconnectionType
p2635
aVmethod
p2636
aVperiod
p2637
aVaddress
p2638
aVpayloadFormat
p2639
aVpayloadType
p2640
aVheader
p2641
aVpublicKey
p2642
asVResource
p2643
(lp2644
Vid
p2645
aVmeta
p2646
aVimplicitRules
p2647
aVlanguage
p2648
asVDeviceMetric
p2649
(lp2650
Vid
p2651
aVmeta
p2652
aVimplicitRules
p2653
aVlanguage
p2654
aVtext
p2655
aVcontained
p2656
aVextension
p2657
aVmodifierExtension
p2658
aVtype
p2659
aVidentifier
p2660
aVunit
p2661
aVsource
p2662
aVparent
p2663
aVoperationalStatus
p2664
aVcolor
p2665
aVcategory
p2666
aVmeasurementPeriod
p2667
aVcalibration
p2668
asVList
p2669
(lp2670
Vid
p2671
aVmeta
p2672
aVimplicitRules
p2673
aVlanguage
p2674
aVtext
p2675
aVcontained
p2676
aVextension
p2677
aVmodifierExtension
p2678
aVidentifier
p2679
aVstatus
p2680
aVmode
p2681
aVtitle
p2682
aVcode
p2683
aVsubject
p2684
aVencounter
p2685
aVdate
p2686
aVsource
p2687
aVorderedBy
p2688
aVnote
p2689
aVentry
p2690
aVemptyReason
p2691
asVNutritionRequest
p2692
(lp2693
Vid
p2694
aVmeta
p2695
aVimplicitRules
p2696
aVlanguage
p2697
aVtext
p2698
aVcontained
p2699
aVextension
p2700
aVmodifierExtension
p2701
aVidentifier
p2702
aVstatus
p2703
aVpatient
p2704
aVencounter
p2705
aVdateTime
p2706
aVorderer
p2707
aVallergyIntolerance
p2708
aVfoodPreferenceModifier
p2709
aVexcludeFoodModifier
p2710
aVoralDiet
p2711
aVsupplement
p2712
aVenteralFormula
p2713
asVAuditEvent
p2714
(lp2715
Vid
p2716
aVmeta
p2717
aVimplicitRules
p2718
aVlanguage
p2719
aVtext
p2720
aVcontained
p2721
aVextension
p2722
aVmodifierExtension
p2723
aVtype
p2724
aVsubtype
p2725
aVaction
p2726
aVrecorded
p2727
aVoutcome
p2728
aVoutcomeDesc
p2729
aVpurposeOfEvent
p2730
aVagent
p2731
aVsource
p2732
aVentity
p2733
asVDocumentReference
p2734
(lp2735
Vid
p2736
aVmeta
p2737
aVimplicitRules
p2738
aVlanguage
p2739
aVtext
p2740
aVcontained
p2741
aVextension
p2742
aVmodifierExtension
p2743
aVmasterIdentifier
p2744
aVidentifier
p2745
aVsubject
p2746
aVtype
p2747
aVclass
p2748
aVauthor
p2749
aVcustodian
p2750
aVauthenticator
p2751
aVcreated
p2752
aVindexed
p2753
aVstatus
p2754
aVdocStatus
p2755
aVrelatesTo
p2756
aVdescription
p2757
aVsecurityLabel
p2758
aVcontent
p2759
aVcontext
p2760
asVDiagnosticRequest
p2761
(lp2762
Vid
p2763
aVmeta
p2764
aVimplicitRules
p2765
aVlanguage
p2766
aVtext
p2767
aVcontained
p2768
aVextension
p2769
aVmodifierExtension
p2770
aVidentifier
p2771
aVdefinition
p2772
aVbasedOn
p2773
aVreplaces
p2774
aVrequisition
p2775
aVstatus
p2776
aVstage
p2777
aVcode
p2778
aVsubject
p2779
aVcontext
p2780
aVoccurrenceDateTime
p2781
aVoccurrencePeriod
p2782
aVoccurrenceTiming
p2783
aVauthored
p2784
aVrequester
p2785
aVperformerType
p2786
aVperformer
p2787
aVreason
p2788
aVsupportingInformation
p2789
aVnote
p2790
aVrelevantHistory
p2791
asVDataElement
p2792
(lp2793
Vid
p2794
aVmeta
p2795
aVimplicitRules
p2796
aVlanguage
p2797
aVtext
p2798
aVcontained
p2799
aVextension
p2800
aVmodifierExtension
p2801
aVurl
p2802
aVidentifier
p2803
aVversion
p2804
aVstatus
p2805
aVexperimental
p2806
aVpublisher
p2807
aVdate
p2808
aVname
p2809
aVcontact
p2810
aVuseContext
p2811
aVcopyright
p2812
aVstringency
p2813
aVmapping
p2814
aVelement
p2815
asVCompartmentDefinition
p2816
(lp2817
Vid
p2818
aVmeta
p2819
aVimplicitRules
p2820
aVlanguage
p2821
aVtext
p2822
aVcontained
p2823
aVextension
p2824
aVmodifierExtension
p2825
aVurl
p2826
aVname
p2827
aVstatus
p2828
aVexperimental
p2829
aVpublisher
p2830
aVcontact
p2831
aVdate
p2832
aVdescription
p2833
aVrequirements
p2834
aVcode
p2835
aVsearch
p2836
aVresource
p2837
asVSupplyDelivery
p2838
(lp2839
Vid
p2840
aVmeta
p2841
aVimplicitRules
p2842
aVlanguage
p2843
aVtext
p2844
aVcontained
p2845
aVextension
p2846
aVmodifierExtension
p2847
aVidentifier
p2848
aVstatus
p2849
aVpatient
p2850
aVtype
p2851
aVquantity
p2852
aVsuppliedItemCodeableConcept
p2853
aVsuppliedItemReference
p2854
aVsuppliedItemReference
p2855
aVsuppliedItemReference
p2856
aVsupplier
p2857
aVwhenPrepared
p2858
aVtime
p2859
aVdestination
p2860
aVreceiver
p2861
as.