ccollections
defaultdict
p0
(c__builtin__
list
p1
tp2
Rp3
VNamingSystem
p4
(lp5
Vid
p6
aVmeta
p7
aVimplicitRules
p8
aVlanguage
p9
aVtext
p10
aVcontained
p11
aVextension
p12
aVmodifierExtension
p13
aVname
p14
aVstatus
p15
aVkind
p16
aVdate
p17
aVpublisher
p18
aVcontact
p19
aVresponsible
p20
aVtype
p21
aVdescription
p22
aVuseContext
p23
aVjurisdiction
p24
aVusage
p25
aVuniqueId
p26
asVGoal
p27
(lp28
Vid
p29
aVmeta
p30
aVimplicitRules
p31
aVlanguage
p32
aVtext
p33
aVcontained
p34
aVextension
p35
aVmodifierExtension
p36
aVidentifier
p37
aVstatus
p38
aVcategory
p39
aVpriority
p40
aVdescription
p41
aVsubject
p42
aVstartDate
p43
aVstartCodeableConcept
p44
aVtarget
p45
aVstatusDate
p46
aVstatusReason
p47
aVexpressedBy
p48
aVaddresses
p49
aVnote
p50
aVoutcomeCode
p51
aVoutcomeReference
p52
asVImmunizationRecommendation
p53
(lp54
Vid
p55
aVmeta
p56
aVimplicitRules
p57
aVlanguage
p58
aVtext
p59
aVcontained
p60
aVextension
p61
aVmodifierExtension
p62
aVidentifier
p63
aVpatient
p64
aVdate
p65
aVauthority
p66
aVrecommendation
p67
asVMessageHeader
p68
(lp69
Vid
p70
aVmeta
p71
aVimplicitRules
p72
aVlanguage
p73
aVtext
p74
aVcontained
p75
aVextension
p76
aVmodifierExtension
p77
aVevent
p78
aVdestination
p79
aVsender
p80
aVenterer
p81
aVauthor
p82
aVsource
p83
aVresponsible
p84
aVreason
p85
aVresponse
p86
aVfocus
p87
aVdefinition
p88
asVActivityDefinition
p89
(lp90
Vid
p91
aVmeta
p92
aVimplicitRules
p93
aVlanguage
p94
aVtext
p95
aVcontained
p96
aVextension
p97
aVmodifierExtension
p98
aVurl
p99
aVidentifier
p100
aVversion
p101
aVname
p102
aVtitle
p103
aVstatus
p104
aVexperimental
p105
aVdate
p106
aVpublisher
p107
aVdescription
p108
aVpurpose
p109
aVusage
p110
aVapprovalDate
p111
aVlastReviewDate
p112
aVeffectivePeriod
p113
aVuseContext
p114
aVjurisdiction
p115
aVtopic
p116
aVcontributor
p117
aVcontact
p118
aVcopyright
p119
aVrelatedArtifact
p120
aVlibrary
p121
aVkind
p122
aVcode
p123
aVdoNotPerform
p124
aVtimingTiming
p125
aVtimingDateTime
p126
aVtimingAge
p127
aVtimingPeriod
p128
aVtimingRange
p129
aVtimingDuration
p130
aVlocation
p131
aVparticipant
p132
aVproductReference
p133
aVproductReference
p134
aVproductCodeableConcept
p135
aVquantity
p136
aVdosage
p137
aVbodySite
p138
aVspecimenRequirement
p139
aVtransform
p140
aVdynamicValue
p141
asVObservationDefinition
p142
(lp143
Vid
p144
aVmeta
p145
aVimplicitRules
p146
aVlanguage
p147
aVtext
p148
aVcontained
p149
aVextension
p150
aVmodifierExtension
p151
aVcategory
p152
aVcode
p153
aVpermittedDataType
p154
aVmultipleResultsAllowed
p155
aVmethod
p156
aVpreferredReportName
p157
aVquantitativeDetails
p158
aVqualifiedInterval
p159
aVvalidCodedValueSet
p160
aVnormalCodedValueSet
p161
aVabnormalCodedValueSet
p162
aVcriticalCodedValueSet
p163
asVPractitioner
p164
(lp165
Vid
p166
aVmeta
p167
aVimplicitRules
p168
aVlanguage
p169
aVtext
p170
aVcontained
p171
aVextension
p172
aVmodifierExtension
p173
aVidentifier
p174
aVactive
p175
aVname
p176
aVtelecom
p177
aVaddress
p178
aVgender
p179
aVbirthDate
p180
aVphoto
p181
aVqualification
p182
aVcommunication
p183
asVSchedule
p184
(lp185
Vid
p186
aVmeta
p187
aVimplicitRules
p188
aVlanguage
p189
aVtext
p190
aVcontained
p191
aVextension
p192
aVmodifierExtension
p193
aVidentifier
p194
aVactive
p195
aVserviceCategory
p196
aVserviceType
p197
aVspecialty
p198
aVactor
p199
aVplanningHorizon
p200
aVcomment
p201
asVResearchSubject
p202
(lp203
Vid
p204
aVmeta
p205
aVimplicitRules
p206
aVlanguage
p207
aVtext
p208
aVcontained
p209
aVextension
p210
aVmodifierExtension
p211
aVidentifier
p212
aVstatus
p213
aVperiod
p214
aVstudy
p215
aVindividual
p216
aVassignedArm
p217
aVactualArm
p218
aVconsent
p219
asVMedicationRequest
p220
(lp221
Vid
p222
aVmeta
p223
aVimplicitRules
p224
aVlanguage
p225
aVtext
p226
aVcontained
p227
aVextension
p228
aVmodifierExtension
p229
aVidentifier
p230
aVstatus
p231
aVintent
p232
aVcategory
p233
aVpriority
p234
aVmedicationCodeableConcept
p235
aVmedicationReference
p236
aVsubject
p237
aVcontext
p238
aVsupportingInformation
p239
aVauthoredOn
p240
aVrequester
p241
aVperformer
p242
aVperformerType
p243
aVrecorder
p244
aVreasonCode
p245
aVreasonReference
p246
aVinstantiates
p247
aVbasedOn
p248
aVgroupIdentifier
p249
aVstatusReason
p250
aVinsurance
p251
aVnote
p252
aVdosageInstruction
p253
aVdispenseRequest
p254
aVsubstitution
p255
aVpriorPrescription
p256
aVdetectedIssue
p257
aVeventHistory
p258
asVDocumentManifest
p259
(lp260
Vid
p261
aVmeta
p262
aVimplicitRules
p263
aVlanguage
p264
aVtext
p265
aVcontained
p266
aVextension
p267
aVmodifierExtension
p268
aVmasterIdentifier
p269
aVidentifier
p270
aVstatus
p271
aVtype
p272
aVsubject
p273
aVcreated
p274
aVagent
p275
aVrecipient
p276
aVsource
p277
aVdescription
p278
aVcontent
p279
aVrelated
p280
asVImplementationGuide
p281
(lp282
Vid
p283
aVmeta
p284
aVimplicitRules
p285
aVlanguage
p286
aVtext
p287
aVcontained
p288
aVextension
p289
aVmodifierExtension
p290
aVurl
p291
aVversion
p292
aVname
p293
aVstatus
p294
aVexperimental
p295
aVdate
p296
aVpublisher
p297
aVcontact
p298
aVdescription
p299
aVuseContext
p300
aVjurisdiction
p301
aVcopyright
p302
aVfhirVersion
p303
aVdependency
p304
aVpackage
p305
aVglobal
p306
aVbinary
p307
aVpage
p308
asVPlanDefinition
p309
(lp310
Vid
p311
aVmeta
p312
aVimplicitRules
p313
aVlanguage
p314
aVtext
p315
aVcontained
p316
aVextension
p317
aVmodifierExtension
p318
aVurl
p319
aVidentifier
p320
aVversion
p321
aVname
p322
aVtitle
p323
aVtype
p324
aVstatus
p325
aVexperimental
p326
aVdate
p327
aVpublisher
p328
aVdescription
p329
aVpurpose
p330
aVusage
p331
aVapprovalDate
p332
aVlastReviewDate
p333
aVeffectivePeriod
p334
aVuseContext
p335
aVjurisdiction
p336
aVtopic
p337
aVcontributor
p338
aVcontact
p339
aVcopyright
p340
aVrelatedArtifact
p341
aVlibrary
p342
aVgoal
p343
aVaction
p344
asVEncounter
p345
(lp346
Vid
p347
aVmeta
p348
aVimplicitRules
p349
aVlanguage
p350
aVtext
p351
aVcontained
p352
aVextension
p353
aVmodifierExtension
p354
aVidentifier
p355
aVstatus
p356
aVstatusHistory
p357
aVclass
p358
aVclassHistory
p359
aVtype
p360
aVserviceType
p361
aVpriority
p362
aVsubject
p363
aVepisodeOfCare
p364
aVincomingReferral
p365
aVparticipant
p366
aVappointment
p367
aVperiod
p368
aVlength
p369
aVreason
p370
aVdiagnosis
p371
aVaccount
p372
aVhospitalization
p373
aVlocation
p374
aVserviceProvider
p375
aVpartOf
p376
asVAccount
p377
(lp378
Vid
p379
aVmeta
p380
aVimplicitRules
p381
aVlanguage
p382
aVtext
p383
aVcontained
p384
aVextension
p385
aVmodifierExtension
p386
aVidentifier
p387
aVstatus
p388
aVtype
p389
aVname
p390
aVsubject
p391
aVperiod
p392
aVactive
p393
aVcoverage
p394
aVowner
p395
aVdescription
p396
aVguarantor
p397
aVpartOf
p398
asVTask
p399
(lp400
Vid
p401
aVmeta
p402
aVimplicitRules
p403
aVlanguage
p404
aVtext
p405
aVcontained
p406
aVextension
p407
aVmodifierExtension
p408
aVidentifier
p409
aVinstantiatesUri
p410
aVinstantiatesReference
p411
aVbasedOn
p412
aVgroupIdentifier
p413
aVpartOf
p414
aVstatus
p415
aVstatusReason
p416
aVbusinessStatus
p417
aVintent
p418
aVpriority
p419
aVcode
p420
aVdescription
p421
aVfocus
p422
aVfor
p423
aVcontext
p424
aVexecutionPeriod
p425
aVauthoredOn
p426
aVlastModified
p427
aVrequester
p428
aVperformerType
p429
aVowner
p430
aVreasonCode
p431
aVreasonReference
p432
aVnote
p433
aVrelevantHistory
p434
aVrestriction
p435
aVinput
p436
aVoutput
p437
asVMedicinalProductAuthorization
p438
(lp439
Vid
p440
aVmeta
p441
aVimplicitRules
p442
aVlanguage
p443
aVtext
p444
aVcontained
p445
aVextension
p446
aVmodifierExtension
p447
aVidentifier
p448
aVcountry
p449
aVlegalStatusOfSupply
p450
aVstatus
p451
aVstatusDate
p452
aVrestoreDate
p453
aVvalidityPeriod
p454
aVdataExclusivityPeriod
p455
aVdateOfFirstAuthorization
p456
aVinternationalBirthDate
p457
aVjurisdictionalAuthorization
p458
aVholder
p459
aVregulator
p460
aVprocedure
p461
aVmarketingStatus
p462
asVMetadataResource
p463
(lp464
Vid
p465
aVmeta
p466
aVimplicitRules
p467
aVlanguage
p468
aVtext
p469
aVcontained
p470
aVextension
p471
aVmodifierExtension
p472
aVurl
p473
aVversion
p474
aVname
p475
aVtitle
p476
aVstatus
p477
aVexperimental
p478
aVdate
p479
aVpublisher
p480
aVcontact
p481
aVuseContext
p482
aVjurisdiction
p483
aVdescription
p484
asVCodeSystem
p485
(lp486
Vid
p487
aVmeta
p488
aVimplicitRules
p489
aVlanguage
p490
aVtext
p491
aVcontained
p492
aVextension
p493
aVmodifierExtension
p494
aVurl
p495
aVidentifier
p496
aVversion
p497
aVname
p498
aVtitle
p499
aVstatus
p500
aVexperimental
p501
aVdate
p502
aVpublisher
p503
aVcontact
p504
aVdescription
p505
aVuseContext
p506
aVjurisdiction
p507
aVpurpose
p508
aVcopyright
p509
aVcaseSensitive
p510
aVvalueSet
p511
aVhierarchyMeaning
p512
aVcompositional
p513
aVversionNeeded
p514
aVcontent
p515
aVsupplements
p516
aVcount
p517
aVfilter
p518
aVproperty
p519
aVconcept
p520
asVEntryDefinition
p521
(lp522
Vid
p523
aVmeta
p524
aVimplicitRules
p525
aVlanguage
p526
aVtext
p527
aVcontained
p528
aVextension
p529
aVmodifierExtension
p530
aVtype
p531
aVpurpose
p532
aVreferencedItem
p533
aVidentifier
p534
aVadditionalIdentifier
p535
aVclassification
p536
aVstatus
p537
aVvalidityPeriod
p538
aVlastUpdated
p539
aVadditionalCharacteristic
p540
aVadditionalClassification
p541
aVrelatedEntry
p542
asVMeasureReport
p543
(lp544
Vid
p545
aVmeta
p546
aVimplicitRules
p547
aVlanguage
p548
aVtext
p549
aVcontained
p550
aVextension
p551
aVmodifierExtension
p552
aVidentifier
p553
aVstatus
p554
aVtype
p555
aVmeasure
p556
aVsubject
p557
aVdate
p558
aVreportingOrganization
p559
aVperiod
p560
aVgroup
p561
aVevaluatedResources
p562
asVOrganization
p563
(lp564
Vid
p565
aVmeta
p566
aVimplicitRules
p567
aVlanguage
p568
aVtext
p569
aVcontained
p570
aVextension
p571
aVmodifierExtension
p572
aVidentifier
p573
aVactive
p574
aVtype
p575
aVname
p576
aValias
p577
aVtelecom
p578
aVaddress
p579
aVpartOf
p580
aVcontact
p581
aVendpoint
p582
asVImplementationGuideInput
p583
(lp584
Vid
p585
aVmeta
p586
aVimplicitRules
p587
aVlanguage
p588
aVtext
p589
aVcontained
p590
aVextension
p591
aVmodifierExtension
p592
aVurl
p593
aVversion
p594
aVname
p595
aVstatus
p596
aVexperimental
p597
aVdate
p598
aVpublisher
p599
aVcontact
p600
aVdescription
p601
aVuseContext
p602
aVjurisdiction
p603
aVcopyright
p604
aVfhirVersion
p605
aVdependency
p606
aVpackage
p607
aVglobal
p608
aVpage
p609
asVMedicationStatement
p610
(lp611
Vid
p612
aVmeta
p613
aVimplicitRules
p614
aVlanguage
p615
aVtext
p616
aVcontained
p617
aVextension
p618
aVmodifierExtension
p619
aVidentifier
p620
aVbasedOn
p621
aVpartOf
p622
aVstatus
p623
aVstatusReason
p624
aVcategory
p625
aVmedicationCodeableConcept
p626
aVmedicationReference
p627
aVsubject
p628
aVcontext
p629
aVeffectiveDateTime
p630
aVeffectivePeriod
p631
aVdateAsserted
p632
aVinformationSource
p633
aVderivedFrom
p634
aVreasonCode
p635
aVreasonReference
p636
aVnote
p637
aVdosage
p638
asVMedicationDispense
p639
(lp640
Vid
p641
aVmeta
p642
aVimplicitRules
p643
aVlanguage
p644
aVtext
p645
aVcontained
p646
aVextension
p647
aVmodifierExtension
p648
aVidentifier
p649
aVpartOf
p650
aVstatus
p651
aVcategory
p652
aVmedicationCodeableConcept
p653
aVmedicationReference
p654
aVsubject
p655
aVcontext
p656
aVsupportingInformation
p657
aVperformer
p658
aVlocation
p659
aVauthorizingPrescription
p660
aVtype
p661
aVquantity
p662
aVdaysSupply
p663
aVwhenPrepared
p664
aVwhenHandedOver
p665
aVdestination
p666
aVreceiver
p667
aVnote
p668
aVdosageInstruction
p669
aVsubstitution
p670
aVdetectedIssue
p671
aVstatusReasonCodeableConcept
p672
aVstatusReasonReference
p673
aVeventHistory
p674
asVSupplyRequest
p675
(lp676
Vid
p677
aVmeta
p678
aVimplicitRules
p679
aVlanguage
p680
aVtext
p681
aVcontained
p682
aVextension
p683
aVmodifierExtension
p684
aVidentifier
p685
aVstatus
p686
aVcategory
p687
aVpriority
p688
aVitemCodeableConcept
p689
aVitemReference
p690
aVitemReference
p691
aVitemReference
p692
aVquantity
p693
aVparameter
p694
aVoccurrenceDateTime
p695
aVoccurrencePeriod
p696
aVoccurrenceTiming
p697
aVauthoredOn
p698
aVrequester
p699
aVsupplier
p700
aVreasonCode
p701
aVreasonReference
p702
aVdeliverFrom
p703
aVdeliverTo
p704
asVProductPlan
p705
(lp706
Vid
p707
aVmeta
p708
aVimplicitRules
p709
aVlanguage
p710
aVtext
p711
aVcontained
p712
aVextension
p713
aVmodifierExtension
p714
aVidentifier
p715
aVstatus
p716
aVtype
p717
aVname
p718
aValias
p719
aVperiod
p720
aVownedBy
p721
aVadministeredBy
p722
aVaddress
p723
aVcoverageArea
p724
aVcontact
p725
aVcoverage
p726
aVplan
p727
aVendpoint
p728
asVServiceDefinition
p729
(lp730
Vid
p731
aVmeta
p732
aVimplicitRules
p733
aVlanguage
p734
aVtext
p735
aVcontained
p736
aVextension
p737
aVmodifierExtension
p738
aVurl
p739
aVidentifier
p740
aVversion
p741
aVname
p742
aVtitle
p743
aVstatus
p744
aVexperimental
p745
aVdate
p746
aVpublisher
p747
aVdescription
p748
aVpurpose
p749
aVusage
p750
aVapprovalDate
p751
aVlastReviewDate
p752
aVeffectivePeriod
p753
aVuseContext
p754
aVjurisdiction
p755
aVtopic
p756
aVcontributor
p757
aVcontact
p758
aVcopyright
p759
aVrelatedArtifact
p760
aVtrigger
p761
aVdataRequirement
p762
aVoperationDefinition
p763
asVQuestionnaireResponse
p764
(lp765
Vid
p766
aVmeta
p767
aVimplicitRules
p768
aVlanguage
p769
aVtext
p770
aVcontained
p771
aVextension
p772
aVmodifierExtension
p773
aVidentifier
p774
aVbasedOn
p775
aVpartOf
p776
aVquestionnaire
p777
aVstatus
p778
aVsubject
p779
aVcontext
p780
aVauthored
p781
aVauthor
p782
aVsource
p783
aVitem
p784
asVMedicinalProductDeviceSpec
p785
(lp786
Vid
p787
aVmeta
p788
aVimplicitRules
p789
aVlanguage
p790
aVtext
p791
aVcontained
p792
aVextension
p793
aVmodifierExtension
p794
aVidentifier
p795
aVtype
p796
aVtradeName
p797
aVquantity
p798
aVlistingNumber
p799
aVmodelNumber
p800
aVsterilityIndicator
p801
aVsterilisationRequirement
p802
aVusage
p803
aVnomenclature
p804
aVshelfLife
p805
aVphysicalCharacteristics
p806
aVotherCharacteristics
p807
aVbatchIdentifier
p808
aVmanufacturer
p809
aVmaterial
p810
asVProcessResponse
p811
(lp812
Vid
p813
aVmeta
p814
aVimplicitRules
p815
aVlanguage
p816
aVtext
p817
aVcontained
p818
aVextension
p819
aVmodifierExtension
p820
aVidentifier
p821
aVstatus
p822
aVcreated
p823
aVorganization
p824
aVrequest
p825
aVoutcome
p826
aVdisposition
p827
aVrequestProvider
p828
aVrequestOrganization
p829
aVform
p830
aVprocessNote
p831
aVerror
p832
aVcommunicationRequest
p833
asVParameters
p834
(lp835
Vid
p836
aVmeta
p837
aVimplicitRules
p838
aVlanguage
p839
aVparameter
p840
asVProvenance
p841
(lp842
Vid
p843
aVmeta
p844
aVimplicitRules
p845
aVlanguage
p846
aVtext
p847
aVcontained
p848
aVextension
p849
aVmodifierExtension
p850
aVtarget
p851
aVoccurredPeriod
p852
aVoccurredDateTime
p853
aVrecorded
p854
aVpolicy
p855
aVlocation
p856
aVreason
p857
aVactivity
p858
aVagent
p859
aVentity
p860
aVsignature
p861
asVEventDefinition
p862
(lp863
Vid
p864
aVmeta
p865
aVimplicitRules
p866
aVlanguage
p867
aVtext
p868
aVcontained
p869
aVextension
p870
aVmodifierExtension
p871
aVurl
p872
aVidentifier
p873
aVversion
p874
aVname
p875
aVtitle
p876
aVstatus
p877
aVexperimental
p878
aVdate
p879
aVpublisher
p880
aVdescription
p881
aVpurpose
p882
aVusage
p883
aVapprovalDate
p884
aVlastReviewDate
p885
aVeffectivePeriod
p886
aVuseContext
p887
aVjurisdiction
p888
aVtopic
p889
aVcontributor
p890
aVcontact
p891
aVcopyright
p892
aVrelatedArtifact
p893
aVtrigger
p894
asVSubstance
p895
(lp896
Vid
p897
aVmeta
p898
aVimplicitRules
p899
aVlanguage
p900
aVtext
p901
aVcontained
p902
aVextension
p903
aVmodifierExtension
p904
aVidentifier
p905
aVstatus
p906
aVcategory
p907
aVcode
p908
aVdescription
p909
aVinstance
p910
aVingredient
p911
asVLocation
p912
(lp913
Vid
p914
aVmeta
p915
aVimplicitRules
p916
aVlanguage
p917
aVtext
p918
aVcontained
p919
aVextension
p920
aVmodifierExtension
p921
aVidentifier
p922
aVstatus
p923
aVoperationalStatus
p924
aVname
p925
aValias
p926
aVdescription
p927
aVmode
p928
aVtype
p929
aVtelecom
p930
aVaddress
p931
aVphysicalType
p932
aVposition
p933
aVmanagingOrganization
p934
aVpartOf
p935
aVhoursOfOperation
p936
aVavailabilityExceptions
p937
aVendpoint
p938
asVCareTeam
p939
(lp940
Vid
p941
aVmeta
p942
aVimplicitRules
p943
aVlanguage
p944
aVtext
p945
aVcontained
p946
aVextension
p947
aVmodifierExtension
p948
aVidentifier
p949
aVstatus
p950
aVcategory
p951
aVname
p952
aVsubject
p953
aVcontext
p954
aVperiod
p955
aVparticipant
p956
aVreasonCode
p957
aVreasonReference
p958
aVmanagingOrganization
p959
aVtelecom
p960
aVnote
p961
asVExpansionProfile
p962
(lp963
Vid
p964
aVmeta
p965
aVimplicitRules
p966
aVlanguage
p967
aVtext
p968
aVcontained
p969
aVextension
p970
aVmodifierExtension
p971
aVurl
p972
aVidentifier
p973
aVversion
p974
aVname
p975
aVstatus
p976
aVexperimental
p977
aVdate
p978
aVpublisher
p979
aVcontact
p980
aVdescription
p981
aVuseContext
p982
aVjurisdiction
p983
aVfixedVersion
p984
aVexcludedSystem
p985
aVincludeDesignations
p986
aVdesignation
p987
aVincludeDefinition
p988
aVactiveOnly
p989
aVexcludeNested
p990
aVexcludeNotForUI
p991
aVexcludePostCoordinated
p992
aVdisplayLanguage
p993
aVlimitedExpansion
p994
asVGraphDefinition
p995
(lp996
Vid
p997
aVmeta
p998
aVimplicitRules
p999
aVlanguage
p1000
aVtext
p1001
aVcontained
p1002
aVextension
p1003
aVmodifierExtension
p1004
aVurl
p1005
aVversion
p1006
aVname
p1007
aVstatus
p1008
aVexperimental
p1009
aVdate
p1010
aVpublisher
p1011
aVcontact
p1012
aVdescription
p1013
aVuseContext
p1014
aVjurisdiction
p1015
aVpurpose
p1016
aVstart
p1017
aVprofile
p1018
aVlink
p1019
asVPatient
p1020
(lp1021
Vid
p1022
aVmeta
p1023
aVimplicitRules
p1024
aVlanguage
p1025
aVtext
p1026
aVcontained
p1027
aVextension
p1028
aVmodifierExtension
p1029
aVidentifier
p1030
aVactive
p1031
aVname
p1032
aVtelecom
p1033
aVgender
p1034
aVbirthDate
p1035
aVdeceasedBoolean
p1036
aVdeceasedDateTime
p1037
aVaddress
p1038
aVmaritalStatus
p1039
aVmultipleBirthBoolean
p1040
aVmultipleBirthInteger
p1041
aVphoto
p1042
aVcontact
p1043
aVanimal
p1044
aVcommunication
p1045
aVgeneralPractitioner
p1046
aVmanagingOrganization
p1047
aVlink
p1048
asVPaymentNotice
p1049
(lp1050
Vid
p1051
aVmeta
p1052
aVimplicitRules
p1053
aVlanguage
p1054
aVtext
p1055
aVcontained
p1056
aVextension
p1057
aVmodifierExtension
p1058
aVidentifier
p1059
aVstatus
p1060
aVrequest
p1061
aVresponse
p1062
aVstatusDate
p1063
aVcreated
p1064
aVtarget
p1065
aVprovider
p1066
aVorganization
p1067
aVpaymentStatus
p1068
asVClinicalImpression
p1069
(lp1070
Vid
p1071
aVmeta
p1072
aVimplicitRules
p1073
aVlanguage
p1074
aVtext
p1075
aVcontained
p1076
aVextension
p1077
aVmodifierExtension
p1078
aVidentifier
p1079
aVstatus
p1080
aVcode
p1081
aVdescription
p1082
aVsubject
p1083
aVcontext
p1084
aVeffectiveDateTime
p1085
aVeffectivePeriod
p1086
aVdate
p1087
aVassessor
p1088
aVprevious
p1089
aVproblem
p1090
aVinvestigation
p1091
aVprotocol
p1092
aVsummary
p1093
aVfinding
p1094
aVprognosisCodeableConcept
p1095
aVprognosisReference
p1096
aVaction
p1097
aVnote
p1098
asVMedicinalProductClinicals
p1099
(lp1100
Vid
p1101
aVmeta
p1102
aVimplicitRules
p1103
aVlanguage
p1104
aVtext
p1105
aVcontained
p1106
aVextension
p1107
aVmodifierExtension
p1108
aVundesirableEffects
p1109
aVtherapeuticIndication
p1110
aVcontraindication
p1111
aVinteractions
p1112
asVFlag
p1113
(lp1114
Vid
p1115
aVmeta
p1116
aVimplicitRules
p1117
aVlanguage
p1118
aVtext
p1119
aVcontained
p1120
aVextension
p1121
aVmodifierExtension
p1122
aVidentifier
p1123
aVstatus
p1124
aVcategory
p1125
aVcode
p1126
aVsubject
p1127
aVperiod
p1128
aVencounter
p1129
aVauthor
p1130
asVExplanationOfBenefit
p1131
(lp1132
Vid
p1133
aVmeta
p1134
aVimplicitRules
p1135
aVlanguage
p1136
aVtext
p1137
aVcontained
p1138
aVextension
p1139
aVmodifierExtension
p1140
aVidentifier
p1141
aVstatus
p1142
aVtype
p1143
aVsubType
p1144
aVpatient
p1145
aVbillablePeriod
p1146
aVcreated
p1147
aVenterer
p1148
aVinsurer
p1149
aVprovider
p1150
aVorganization
p1151
aVreferral
p1152
aVfacility
p1153
aVclaim
p1154
aVclaimResponse
p1155
aVoutcome
p1156
aVdisposition
p1157
aVrelated
p1158
aVprescription
p1159
aVoriginalPrescription
p1160
aVpayee
p1161
aVinformation
p1162
aVcareTeam
p1163
aVdiagnosis
p1164
aVprocedure
p1165
aVprecedence
p1166
aVinsurance
p1167
aVaccident
p1168
aVemploymentImpacted
p1169
aVhospitalization
p1170
aVitem
p1171
aVaddItem
p1172
aVtotalCost
p1173
aVunallocDeductable
p1174
aVtotalBenefit
p1175
aVpayment
p1176
aVform
p1177
aVprocessNote
p1178
aVbenefitBalance
p1179
asVMedicinalProductPharmaceutical
p1180
(lp1181
Vid
p1182
aVmeta
p1183
aVimplicitRules
p1184
aVlanguage
p1185
aVtext
p1186
aVcontained
p1187
aVextension
p1188
aVmodifierExtension
p1189
aVidentifier
p1190
aVadministrableDoseForm
p1191
aVunitOfPresentation
p1192
aVrouteOfAdministration
p1193
aVingredient
p1194
aVdevice
p1195
aVcharacteristics
p1196
asVLinkage
p1197
(lp1198
Vid
p1199
aVmeta
p1200
aVimplicitRules
p1201
aVlanguage
p1202
aVtext
p1203
aVcontained
p1204
aVextension
p1205
aVmodifierExtension
p1206
aVactive
p1207
aVauthor
p1208
aVitem
p1209
asVSubscription
p1210
(lp1211
Vid
p1212
aVmeta
p1213
aVimplicitRules
p1214
aVlanguage
p1215
aVtext
p1216
aVcontained
p1217
aVextension
p1218
aVmodifierExtension
p1219
aVstatus
p1220
aVcontact
p1221
aVend
p1222
aVreason
p1223
aVcriteria
p1224
aVerror
p1225
aVchannel
p1226
aVtag
p1227
asVMedicationAdministration
p1228
(lp1229
Vid
p1230
aVmeta
p1231
aVimplicitRules
p1232
aVlanguage
p1233
aVtext
p1234
aVcontained
p1235
aVextension
p1236
aVmodifierExtension
p1237
aVidentifier
p1238
aVinstantiates
p1239
aVpartOf
p1240
aVstatus
p1241
aVcategory
p1242
aVmedicationCodeableConcept
p1243
aVmedicationReference
p1244
aVsubject
p1245
aVcontext
p1246
aVsupportingInformation
p1247
aVeffectiveDateTime
p1248
aVeffectivePeriod
p1249
aVperformer
p1250
aVstatusReason
p1251
aVreasonCode
p1252
aVreasonReference
p1253
aVrequest
p1254
aVdevice
p1255
aVnote
p1256
aVdosage
p1257
aVeventHistory
p1258
asVVerificationResult
p1259
(lp1260
Vid
p1261
aVmeta
p1262
aVimplicitRules
p1263
aVlanguage
p1264
aVtext
p1265
aVcontained
p1266
aVextension
p1267
aVmodifierExtension
p1268
aVtarget
p1269
aVtargetLocation
p1270
aVneed
p1271
aVstatus
p1272
aVstatusDate
p1273
aVvalidationType
p1274
aVvalidationProcess
p1275
aVfrequency
p1276
aVlastPerformed
p1277
aVnextScheduled
p1278
aVfailureAction
p1279
aVprimarySource
p1280
aVattestation
p1281
aVvalidator
p1282
asVObservation
p1283
(lp1284
Vid
p1285
aVmeta
p1286
aVimplicitRules
p1287
aVlanguage
p1288
aVtext
p1289
aVcontained
p1290
aVextension
p1291
aVmodifierExtension
p1292
aVidentifier
p1293
aVbasedOn
p1294
aVpartOf
p1295
aVstatus
p1296
aVcategory
p1297
aVcode
p1298
aVsubject
p1299
aVcontext
p1300
aVeffectiveDateTime
p1301
aVeffectivePeriod
p1302
aVeffectiveTiming
p1303
aVissued
p1304
aVperformer
p1305
aVvalueQuantity
p1306
aVvalueCodeableConcept
p1307
aVvalueString
p1308
aVvalueBoolean
p1309
aVvalueInteger
p1310
aVvalueRange
p1311
aVvalueRatio
p1312
aVvalueSampledData
p1313
aVvalueTime
p1314
aVvalueDateTime
p1315
aVvaluePeriod
p1316
aVdataAbsentReason
p1317
aVinterpretation
p1318
aVcomment
p1319
aVbodySite
p1320
aVmethod
p1321
aVspecimen
p1322
aVdevice
p1323
aVreferenceRange
p1324
aVhasMember
p1325
aVderivedFrom
p1326
aVcomponent
p1327
asVSpecimenDefinition
p1328
(lp1329
Vid
p1330
aVmeta
p1331
aVimplicitRules
p1332
aVlanguage
p1333
aVtext
p1334
aVcontained
p1335
aVextension
p1336
aVmodifierExtension
p1337
aVidentifier
p1338
aVtypeCollected
p1339
aVpatientPreparation
p1340
aVtimeAspect
p1341
aVcollection
p1342
aVspecimenToLab
p1343
asVPaymentReconciliation
p1344
(lp1345
Vid
p1346
aVmeta
p1347
aVimplicitRules
p1348
aVlanguage
p1349
aVtext
p1350
aVcontained
p1351
aVextension
p1352
aVmodifierExtension
p1353
aVidentifier
p1354
aVstatus
p1355
aVperiod
p1356
aVcreated
p1357
aVorganization
p1358
aVrequest
p1359
aVoutcome
p1360
aVdisposition
p1361
aVrequestProvider
p1362
aVrequestOrganization
p1363
aVdetail
p1364
aVform
p1365
aVtotal
p1366
aVprocessNote
p1367
asVStructureMap
p1368
(lp1369
Vid
p1370
aVmeta
p1371
aVimplicitRules
p1372
aVlanguage
p1373
aVtext
p1374
aVcontained
p1375
aVextension
p1376
aVmodifierExtension
p1377
aVurl
p1378
aVidentifier
p1379
aVversion
p1380
aVname
p1381
aVtitle
p1382
aVstatus
p1383
aVexperimental
p1384
aVdate
p1385
aVpublisher
p1386
aVcontact
p1387
aVdescription
p1388
aVuseContext
p1389
aVjurisdiction
p1390
aVpurpose
p1391
aVcopyright
p1392
aVstructure
p1393
aVimport
p1394
aVgroup
p1395
asVTestScript
p1396
(lp1397
Vid
p1398
aVmeta
p1399
aVimplicitRules
p1400
aVlanguage
p1401
aVtext
p1402
aVcontained
p1403
aVextension
p1404
aVmodifierExtension
p1405
aVurl
p1406
aVidentifier
p1407
aVversion
p1408
aVname
p1409
aVtitle
p1410
aVstatus
p1411
aVexperimental
p1412
aVdate
p1413
aVpublisher
p1414
aVcontact
p1415
aVdescription
p1416
aVuseContext
p1417
aVjurisdiction
p1418
aVpurpose
p1419
aVcopyright
p1420
aVorigin
p1421
aVdestination
p1422
aVmetadata
p1423
aVfixture
p1424
aVprofile
p1425
aVvariable
p1426
aVrule
p1427
aVruleset
p1428
aVsetup
p1429
aVtest
p1430
aVteardown
p1431
asVImmunization
p1432
(lp1433
Vid
p1434
aVmeta
p1435
aVimplicitRules
p1436
aVlanguage
p1437
aVtext
p1438
aVcontained
p1439
aVextension
p1440
aVmodifierExtension
p1441
aVidentifier
p1442
aVstatus
p1443
aVvaccineCode
p1444
aVpatient
p1445
aVencounter
p1446
aVdate
p1447
aVprimarySource
p1448
aVreportOrigin
p1449
aVlocation
p1450
aVmanufacturer
p1451
aVlotNumber
p1452
aVexpirationDate
p1453
aVsite
p1454
aVroute
p1455
aVdoseQuantity
p1456
aVpractitioner
p1457
aVnote
p1458
aVreason
p1459
aVeducation
p1460
aVprogramEligibility
p1461
aVfundingSource
p1462
asVCommunicationRequest
p1463
(lp1464
Vid
p1465
aVmeta
p1466
aVimplicitRules
p1467
aVlanguage
p1468
aVtext
p1469
aVcontained
p1470
aVextension
p1471
aVmodifierExtension
p1472
aVidentifier
p1473
aVbasedOn
p1474
aVreplaces
p1475
aVgroupIdentifier
p1476
aVstatus
p1477
aVcategory
p1478
aVpriority
p1479
aVmedium
p1480
aVsubject
p1481
aVrecipient
p1482
aVabout
p1483
aVcontext
p1484
aVpayload
p1485
aVoccurrenceDateTime
p1486
aVoccurrencePeriod
p1487
aVauthoredOn
p1488
aVrequester
p1489
aVsender
p1490
aVreasonCode
p1491
aVreasonReference
p1492
aVnote
p1493
asVRequestGroup
p1494
(lp1495
Vid
p1496
aVmeta
p1497
aVimplicitRules
p1498
aVlanguage
p1499
aVtext
p1500
aVcontained
p1501
aVextension
p1502
aVmodifierExtension
p1503
aVidentifier
p1504
aVdefinition
p1505
aVbasedOn
p1506
aVreplaces
p1507
aVgroupIdentifier
p1508
aVstatus
p1509
aVintent
p1510
aVpriority
p1511
aVcode
p1512
aVsubject
p1513
aVcontext
p1514
aVauthoredOn
p1515
aVauthor
p1516
aVreasonCode
p1517
aVreasonReference
p1518
aVnote
p1519
aVaction
p1520
asVSequence
p1521
(lp1522
Vid
p1523
aVmeta
p1524
aVimplicitRules
p1525
aVlanguage
p1526
aVtext
p1527
aVcontained
p1528
aVextension
p1529
aVmodifierExtension
p1530
aVidentifier
p1531
aVtype
p1532
aVcoordinateSystem
p1533
aVpatient
p1534
aVspecimen
p1535
aVdevice
p1536
aVperformer
p1537
aVquantity
p1538
aVreferenceSeq
p1539
aVvariant
p1540
aVobservedSeq
p1541
aVquality
p1542
aVreadCoverage
p1543
aVrepository
p1544
aVpointer
p1545
aVstructureVariant
p1546
asVValueSet
p1547
(lp1548
Vid
p1549
aVmeta
p1550
aVimplicitRules
p1551
aVlanguage
p1552
aVtext
p1553
aVcontained
p1554
aVextension
p1555
aVmodifierExtension
p1556
aVurl
p1557
aVidentifier
p1558
aVversion
p1559
aVname
p1560
aVtitle
p1561
aVstatus
p1562
aVexperimental
p1563
aVdate
p1564
aVpublisher
p1565
aVcontact
p1566
aVdescription
p1567
aVuseContext
p1568
aVjurisdiction
p1569
aVimmutable
p1570
aVpurpose
p1571
aVcopyright
p1572
aVextensible
p1573
aVcompose
p1574
aVexpansion
p1575
asVMedication
p1576
(lp1577
Vid
p1578
aVmeta
p1579
aVimplicitRules
p1580
aVlanguage
p1581
aVtext
p1582
aVcontained
p1583
aVextension
p1584
aVmodifierExtension
p1585
aVcode
p1586
aVstatus
p1587
aVmanufacturer
p1588
aVform
p1589
aVamount
p1590
aVingredient
p1591
aVbatch
p1592
asVAdverseEvent
p1593
(lp1594
Vid
p1595
aVmeta
p1596
aVimplicitRules
p1597
aVlanguage
p1598
aVtext
p1599
aVcontained
p1600
aVextension
p1601
aVmodifierExtension
p1602
aVidentifier
p1603
aVactuality
p1604
aVcategory
p1605
aVevent
p1606
aVsubject
p1607
aVdate
p1608
aVresultingCondition
p1609
aVlocation
p1610
aVseriousness
p1611
aVseverity
p1612
aVoutcome
p1613
aVrecorder
p1614
aVeventParticipant
p1615
aVdescription
p1616
aVsuspectEntity
p1617
aVsubjectMedicalHistory
p1618
aVreferenceDocument
p1619
aVstudy
p1620
asVPractitionerRole
p1621
(lp1622
Vid
p1623
aVmeta
p1624
aVimplicitRules
p1625
aVlanguage
p1626
aVtext
p1627
aVcontained
p1628
aVextension
p1629
aVmodifierExtension
p1630
aVidentifier
p1631
aVactive
p1632
aVperiod
p1633
aVpractitioner
p1634
aVorganization
p1635
aVcode
p1636
aVspecialty
p1637
aVlocation
p1638
aVhealthcareService
p1639
aVtelecom
p1640
aVavailableTime
p1641
aVnotAvailable
p1642
aVavailabilityExceptions
p1643
aVendpoint
p1644
asVCommunication
p1645
(lp1646
Vid
p1647
aVmeta
p1648
aVimplicitRules
p1649
aVlanguage
p1650
aVtext
p1651
aVcontained
p1652
aVextension
p1653
aVmodifierExtension
p1654
aVidentifier
p1655
aVinstantiates
p1656
aVbasedOn
p1657
aVpartOf
p1658
aVinResponseTo
p1659
aVstatus
p1660
aVstatusReason
p1661
aVcategory
p1662
aVpriority
p1663
aVmedium
p1664
aVsubject
p1665
aVrecipient
p1666
aVtopic
p1667
aVabout
p1668
aVcontext
p1669
aVsent
p1670
aVreceived
p1671
aVsender
p1672
aVreasonCode
p1673
aVreasonReference
p1674
aVpayload
p1675
aVnote
p1676
asVCapabilityStatement
p1677
(lp1678
Vid
p1679
aVmeta
p1680
aVimplicitRules
p1681
aVlanguage
p1682
aVtext
p1683
aVcontained
p1684
aVextension
p1685
aVmodifierExtension
p1686
aVurl
p1687
aVversion
p1688
aVname
p1689
aVtitle
p1690
aVstatus
p1691
aVexperimental
p1692
aVdate
p1693
aVpublisher
p1694
aVcontact
p1695
aVdescription
p1696
aVuseContext
p1697
aVjurisdiction
p1698
aVpurpose
p1699
aVcopyright
p1700
aVkind
p1701
aVinstantiates
p1702
aVsoftware
p1703
aVimplementation
p1704
aVfhirVersion
p1705
aVacceptUnknown
p1706
aVformat
p1707
aVpatchFormat
p1708
aVimplementationGuide
p1709
aVrest
p1710
aVmessaging
p1711
aVdocument
p1712
asVProcessRequest
p1713
(lp1714
Vid
p1715
aVmeta
p1716
aVimplicitRules
p1717
aVlanguage
p1718
aVtext
p1719
aVcontained
p1720
aVextension
p1721
aVmodifierExtension
p1722
aVidentifier
p1723
aVstatus
p1724
aVaction
p1725
aVtarget
p1726
aVcreated
p1727
aVprovider
p1728
aVorganization
p1729
aVrequest
p1730
aVresponse
p1731
aVnullify
p1732
aVreference
p1733
aVitem
p1734
aVinclude
p1735
aVexclude
p1736
aVperiod
p1737
asVSubstancePolymer
p1738
(lp1739
Vid
p1740
aVmeta
p1741
aVimplicitRules
p1742
aVlanguage
p1743
aVtext
p1744
aVcontained
p1745
aVextension
p1746
aVmodifierExtension
p1747
aVclass
p1748
aVgeometry
p1749
aVcopolymerConnectivity
p1750
aVmodification
p1751
aVmonomerSet
p1752
aVrepeat
p1753
asVFamilyMemberHistory
p1754
(lp1755
Vid
p1756
aVmeta
p1757
aVimplicitRules
p1758
aVlanguage
p1759
aVtext
p1760
aVcontained
p1761
aVextension
p1762
aVmodifierExtension
p1763
aVidentifier
p1764
aVinstantiates
p1765
aVstatus
p1766
aVdataAbsentReason
p1767
aVpatient
p1768
aVdate
p1769
aVname
p1770
aVrelationship
p1771
aVgender
p1772
aVbornPeriod
p1773
aVbornDate
p1774
aVbornString
p1775
aVageAge
p1776
aVageRange
p1777
aVageString
p1778
aVestimatedAge
p1779
aVdeceasedBoolean
p1780
aVdeceasedAge
p1781
aVdeceasedRange
p1782
aVdeceasedDate
p1783
aVdeceasedString
p1784
aVreasonCode
p1785
aVreasonReference
p1786
aVnote
p1787
aVcondition
p1788
asVOccupationalData
p1789
(lp1790
Vid
p1791
aVmeta
p1792
aVimplicitRules
p1793
aVlanguage
p1794
aVtext
p1795
aVcontained
p1796
aVextension
p1797
aVmodifierExtension
p1798
aVidentifier
p1799
aVstatus
p1800
aVsubject
p1801
aVdate
p1802
aVauthor
p1803
aVemploymentStatus
p1804
aVretirementStatus
p1805
aVcombatZoneHazardousDuty
p1806
aVusualOccupation
p1807
aVpastOrPresentOccupation
p1808
asVUserSession
p1809
(lp1810
Vid
p1811
aVmeta
p1812
aVimplicitRules
p1813
aVlanguage
p1814
aVtext
p1815
aVcontained
p1816
aVextension
p1817
aVmodifierExtension
p1818
aVidentifier
p1819
aVuser
p1820
aVstatus
p1821
aVworkstation
p1822
aVfocus
p1823
aVcreated
p1824
aVexpires
p1825
aVcontext
p1826
asVSubstanceSpecification
p1827
(lp1828
Vid
p1829
aVmeta
p1830
aVimplicitRules
p1831
aVlanguage
p1832
aVtext
p1833
aVcontained
p1834
aVextension
p1835
aVmodifierExtension
p1836
aVcomment
p1837
aVstoichiometric
p1838
aVidentifier
p1839
aVtype
p1840
aVreferenceSource
p1841
aVmoiety
p1842
aVproperty
p1843
aVreferenceInformation
p1844
aVstructure
p1845
aVsubstanceCode
p1846
aVsubstanceName
p1847
aVmolecularWeight
p1848
aVpolymer
p1849
asVBinary
p1850
(lp1851
Vid
p1852
aVmeta
p1853
aVimplicitRules
p1854
aVlanguage
p1855
aVcontentType
p1856
aVsecurityContext
p1857
aVcontent
p1858
asVGroup
p1859
(lp1860
Vid
p1861
aVmeta
p1862
aVimplicitRules
p1863
aVlanguage
p1864
aVtext
p1865
aVcontained
p1866
aVextension
p1867
aVmodifierExtension
p1868
aVidentifier
p1869
aVactive
p1870
aVtype
p1871
aVactual
p1872
aVcode
p1873
aVname
p1874
aVquantity
p1875
aVcharacteristic
p1876
aVmember
p1877
asVRiskAssessment
p1878
(lp1879
Vid
p1880
aVmeta
p1881
aVimplicitRules
p1882
aVlanguage
p1883
aVtext
p1884
aVcontained
p1885
aVextension
p1886
aVmodifierExtension
p1887
aVidentifier
p1888
aVbasedOn
p1889
aVparent
p1890
aVstatus
p1891
aVmethod
p1892
aVcode
p1893
aVsubject
p1894
aVcontext
p1895
aVoccurrenceDateTime
p1896
aVoccurrencePeriod
p1897
aVcondition
p1898
aVperformer
p1899
aVreasonCodeableConcept
p1900
aVreasonReference
p1901
aVbasis
p1902
aVprediction
p1903
aVmitigation
p1904
aVcomment
p1905
asVOrganizationRole
p1906
(lp1907
Vid
p1908
aVmeta
p1909
aVimplicitRules
p1910
aVlanguage
p1911
aVtext
p1912
aVcontained
p1913
aVextension
p1914
aVmodifierExtension
p1915
aVidentifier
p1916
aVactive
p1917
aVperiod
p1918
aVorganization
p1919
aVparticipatingOrganization
p1920
aVnetwork
p1921
aVcode
p1922
aVspecialty
p1923
aVlocation
p1924
aVhealthcareService
p1925
aVtelecom
p1926
aVavailableTime
p1927
aVnotAvailable
p1928
aVavailabilityExceptions
p1929
aVendpoint
p1930
asVImagingStudy
p1931
(lp1932
Vid
p1933
aVmeta
p1934
aVimplicitRules
p1935
aVlanguage
p1936
aVtext
p1937
aVcontained
p1938
aVextension
p1939
aVmodifierExtension
p1940
aVuid
p1941
aVaccession
p1942
aVidentifier
p1943
aVavailability
p1944
aVmodalityList
p1945
aVsubject
p1946
aVcontext
p1947
aVstarted
p1948
aVbasedOn
p1949
aVreferrer
p1950
aVinterpreter
p1951
aVendpoint
p1952
aVnumberOfSeries
p1953
aVnumberOfInstances
p1954
aVprocedureReference
p1955
aVprocedureCode
p1956
aVreason
p1957
aVdescription
p1958
aVseries
p1959
asVDeviceRequest
p1960
(lp1961
Vid
p1962
aVmeta
p1963
aVimplicitRules
p1964
aVlanguage
p1965
aVtext
p1966
aVcontained
p1967
aVextension
p1968
aVmodifierExtension
p1969
aVidentifier
p1970
aVinstantiates
p1971
aVbasedOn
p1972
aVpriorRequest
p1973
aVgroupIdentifier
p1974
aVstatus
p1975
aVintent
p1976
aVpriority
p1977
aVcodeReference
p1978
aVcodeCodeableConcept
p1979
aVparameter
p1980
aVsubject
p1981
aVcontext
p1982
aVoccurrenceDateTime
p1983
aVoccurrencePeriod
p1984
aVoccurrenceTiming
p1985
aVauthoredOn
p1986
aVrequester
p1987
aVperformerType
p1988
aVperformer
p1989
aVreasonCode
p1990
aVreasonReference
p1991
aVinsurance
p1992
aVsupportingInfo
p1993
aVnote
p1994
aVrelevantHistory
p1995
asVGuidanceResponse
p1996
(lp1997
Vid
p1998
aVmeta
p1999
aVimplicitRules
p2000
aVlanguage
p2001
aVtext
p2002
aVcontained
p2003
aVextension
p2004
aVmodifierExtension
p2005
aVrequestId
p2006
aVidentifier
p2007
aVmodule
p2008
aVstatus
p2009
aVsubject
p2010
aVcontext
p2011
aVoccurrenceDateTime
p2012
aVperformer
p2013
aVreasonCodeableConcept
p2014
aVreasonReference
p2015
aVnote
p2016
aVevaluationMessage
p2017
aVoutputParameters
p2018
aVresult
p2019
aVdataRequirement
p2020
asVBasic
p2021
(lp2022
Vid
p2023
aVmeta
p2024
aVimplicitRules
p2025
aVlanguage
p2026
aVtext
p2027
aVcontained
p2028
aVextension
p2029
aVmodifierExtension
p2030
aVidentifier
p2031
aVcode
p2032
aVsubject
p2033
aVcreated
p2034
aVauthor
p2035
asVBiologicallyDerivedProduct
p2036
(lp2037
Vid
p2038
aVmeta
p2039
aVimplicitRules
p2040
aVlanguage
p2041
aVtext
p2042
aVcontained
p2043
aVextension
p2044
aVmodifierExtension
p2045
aVidentifier
p2046
aVproductCategory
p2047
aVproductCode
p2048
aVstatus
p2049
aVrequest
p2050
aVquantity
p2051
aVparent
p2052
aVcollection
p2053
aVprocessing
p2054
aVmanipulation
p2055
aVstorage
p2056
asVNutritionOrder
p2057
(lp2058
Vid
p2059
aVmeta
p2060
aVimplicitRules
p2061
aVlanguage
p2062
aVtext
p2063
aVcontained
p2064
aVextension
p2065
aVmodifierExtension
p2066
aVidentifier
p2067
aVstatus
p2068
aVpatient
p2069
aVencounter
p2070
aVdateTime
p2071
aVorderer
p2072
aVallergyIntolerance
p2073
aVfoodPreferenceModifier
p2074
aVexcludeFoodModifier
p2075
aVoralDiet
p2076
aVsupplement
p2077
aVenteralFormula
p2078
aVnote
p2079
asVAppointment
p2080
(lp2081
Vid
p2082
aVmeta
p2083
aVimplicitRules
p2084
aVlanguage
p2085
aVtext
p2086
aVcontained
p2087
aVextension
p2088
aVmodifierExtension
p2089
aVidentifier
p2090
aVstatus
p2091
aVserviceCategory
p2092
aVserviceType
p2093
aVspecialty
p2094
aVappointmentType
p2095
aVreason
p2096
aVindication
p2097
aVpriority
p2098
aVdescription
p2099
aVsupportingInformation
p2100
aVstart
p2101
aVend
p2102
aVminutesDuration
p2103
aVslot
p2104
aVcreated
p2105
aVcomment
p2106
aVpatientInstruction
p2107
aVincomingReferral
p2108
aVparticipant
p2109
aVrequestedPeriod
p2110
asVOperationOutcome
p2111
(lp2112
Vid
p2113
aVmeta
p2114
aVimplicitRules
p2115
aVlanguage
p2116
aVtext
p2117
aVcontained
p2118
aVextension
p2119
aVmodifierExtension
p2120
aVissue
p2121
asVBundle
p2122
(lp2123
Vid
p2124
aVmeta
p2125
aVimplicitRules
p2126
aVlanguage
p2127
aVidentifier
p2128
aVtype
p2129
aVtimestamp
p2130
aVtotal
p2131
aVlink
p2132
aVentry
p2133
aVsignature
p2134
asVSubstanceReferenceInformation
p2135
(lp2136
Vid
p2137
aVmeta
p2138
aVimplicitRules
p2139
aVlanguage
p2140
aVtext
p2141
aVcontained
p2142
aVextension
p2143
aVmodifierExtension
p2144
aVcomment
p2145
aVgene
p2146
aVgeneElement
p2147
aVclassification
p2148
aVrelationship
p2149
aVtarget
p2150
asVCoverage
p2151
(lp2152
Vid
p2153
aVmeta
p2154
aVimplicitRules
p2155
aVlanguage
p2156
aVtext
p2157
aVcontained
p2158
aVextension
p2159
aVmodifierExtension
p2160
aVidentifier
p2161
aVstatus
p2162
aVtype
p2163
aVpolicyHolder
p2164
aVsubscriber
p2165
aVsubscriberId
p2166
aVbeneficiary
p2167
aVdependent
p2168
aVrelationship
p2169
aVperiod
p2170
aVpayor
p2171
aVclass
p2172
aVgrouping
p2173
aVsequence
p2174
aVorder
p2175
aVnetwork
p2176
aVcopay
p2177
aVcontract
p2178
asVMedicinalProductPackaged
p2179
(lp2180
Vid
p2181
aVmeta
p2182
aVimplicitRules
p2183
aVlanguage
p2184
aVtext
p2185
aVcontained
p2186
aVextension
p2187
aVmodifierExtension
p2188
aVidentifier
p2189
aVdescription
p2190
aVmarketingStatus
p2191
aVbatchIdentifier
p2192
aVpackageItem
p2193
asVImplementationGuideOutput
p2194
(lp2195
Vid
p2196
aVmeta
p2197
aVimplicitRules
p2198
aVlanguage
p2199
aVtext
p2200
aVcontained
p2201
aVextension
p2202
aVmodifierExtension
p2203
aVurl
p2204
aVversion
p2205
aVname
p2206
aVstatus
p2207
aVexperimental
p2208
aVdate
p2209
aVpublisher
p2210
aVcontact
p2211
aVdescription
p2212
aVuseContext
p2213
aVjurisdiction
p2214
aVcopyright
p2215
aVfhirVersion
p2216
aVdependency
p2217
aVresource
p2218
aVglobal
p2219
aVrendering
p2220
aVpage
p2221
aVimage
p2222
aVother
p2223
asVCondition
p2224
(lp2225
Vid
p2226
aVmeta
p2227
aVimplicitRules
p2228
aVlanguage
p2229
aVtext
p2230
aVcontained
p2231
aVextension
p2232
aVmodifierExtension
p2233
aVidentifier
p2234
aVclinicalStatus
p2235
aVverificationStatus
p2236
aVcategory
p2237
aVseverity
p2238
aVcode
p2239
aVbodySite
p2240
aVsubject
p2241
aVcontext
p2242
aVonsetDateTime
p2243
aVonsetAge
p2244
aVonsetPeriod
p2245
aVonsetRange
p2246
aVonsetString
p2247
aVabatementDateTime
p2248
aVabatementAge
p2249
aVabatementPeriod
p2250
aVabatementRange
p2251
aVabatementString
p2252
aVassertedDate
p2253
aVrecorder
p2254
aVasserter
p2255
aVstage
p2256
aVevidence
p2257
aVnote
p2258
asVEligibilityRequest
p2259
(lp2260
Vid
p2261
aVmeta
p2262
aVimplicitRules
p2263
aVlanguage
p2264
aVtext
p2265
aVcontained
p2266
aVextension
p2267
aVmodifierExtension
p2268
aVidentifier
p2269
aVstatus
p2270
aVpriority
p2271
aVpatient
p2272
aVservicedDate
p2273
aVservicedPeriod
p2274
aVcreated
p2275
aVenterer
p2276
aVprovider
p2277
aVorganization
p2278
aVinsurer
p2279
aVfacility
p2280
aVcoverage
p2281
aVbusinessArrangement
p2282
aVbenefitCategory
p2283
aVbenefitSubCategory
p2284
aVauthorization
p2285
asVMedicinalProduct
p2286
(lp2287
Vid
p2288
aVmeta
p2289
aVimplicitRules
p2290
aVlanguage
p2291
aVtext
p2292
aVcontained
p2293
aVextension
p2294
aVmodifierExtension
p2295
aVidentifier
p2296
aVtype
p2297
aVcombinedPharmaceuticalDoseForm
p2298
aVadditionalMonitoringIndicator
p2299
aVspecialMeasures
p2300
aVpaediatricUseIndicator
p2301
aVorphanDesignationStatus
p2302
aVproductClassification
p2303
aVmarketingAuthorization
p2304
aVpackagedMedicinalProduct
p2305
aVpharmaceuticalProduct
p2306
aVclinicalParticulars
p2307
aVattachedDocument
p2308
aVmasterFile
p2309
aVname
p2310
aVcrossReference
p2311
aVmanufacturingBusinessOperation
p2312
asVDeviceUseStatement
p2313
(lp2314
Vid
p2315
aVmeta
p2316
aVimplicitRules
p2317
aVlanguage
p2318
aVtext
p2319
aVcontained
p2320
aVextension
p2321
aVmodifierExtension
p2322
aVidentifier
p2323
aVbasedOn
p2324
aVstatus
p2325
aVsubject
p2326
aVderivedFrom
p2327
aVtimingTiming
p2328
aVtimingPeriod
p2329
aVtimingDateTime
p2330
aVrecordedOn
p2331
aVsource
p2332
aVdevice
p2333
aVreasonCode
p2334
aVreasonReference
p2335
aVbodySite
p2336
aVnote
p2337
asVDetectedIssue
p2338
(lp2339
Vid
p2340
aVmeta
p2341
aVimplicitRules
p2342
aVlanguage
p2343
aVtext
p2344
aVcontained
p2345
aVextension
p2346
aVmodifierExtension
p2347
aVidentifier
p2348
aVstatus
p2349
aVcategory
p2350
aVseverity
p2351
aVpatient
p2352
aVdate
p2353
aVauthor
p2354
aVimplicated
p2355
aVdetail
p2356
aVreference
p2357
aVmitigation
p2358
asVChargeItem
p2359
(lp2360
Vid
p2361
aVmeta
p2362
aVimplicitRules
p2363
aVlanguage
p2364
aVtext
p2365
aVcontained
p2366
aVextension
p2367
aVmodifierExtension
p2368
aVidentifier
p2369
aVdefinition
p2370
aVstatus
p2371
aVpartOf
p2372
aVcode
p2373
aVsubject
p2374
aVcontext
p2375
aVoccurrenceDateTime
p2376
aVoccurrencePeriod
p2377
aVoccurrenceTiming
p2378
aVparticipant
p2379
aVperformingOrganization
p2380
aVrequestingOrganization
p2381
aVquantity
p2382
aVbodysite
p2383
aVfactorOverride
p2384
aVpriceOverride
p2385
aVoverrideReason
p2386
aVenterer
p2387
aVenteredDate
p2388
aVreason
p2389
aVservice
p2390
aVaccount
p2391
aVnote
p2392
aVsupportingInformation
p2393
asVContract
p2394
(lp2395
Vid
p2396
aVmeta
p2397
aVimplicitRules
p2398
aVlanguage
p2399
aVtext
p2400
aVcontained
p2401
aVextension
p2402
aVmodifierExtension
p2403
aVidentifier
p2404
aVstatus
p2405
aVcontentDerivative
p2406
aVissued
p2407
aVapplies
p2408
aVsubject
p2409
aVauthority
p2410
aVdomain
p2411
aVtype
p2412
aVsubType
p2413
aVterm
p2414
aVsigner
p2415
aVfriendly
p2416
aVlegal
p2417
aVrule
p2418
aVlegallyBindingAttachment
p2419
aVlegallyBindingReference
p2420
aVlegallyBindingReference
p2421
aVlegallyBindingReference
p2422
aVlegallyBindingReference
p2423
asVDevice
p2424
(lp2425
Vid
p2426
aVmeta
p2427
aVimplicitRules
p2428
aVlanguage
p2429
aVtext
p2430
aVcontained
p2431
aVextension
p2432
aVmodifierExtension
p2433
aVidentifier
p2434
aVudi
p2435
aVstatus
p2436
aVtype
p2437
aVlotNumber
p2438
aVmanufacturer
p2439
aVmanufactureDate
p2440
aVexpirationDate
p2441
aVmodel
p2442
aVversion
p2443
aVpatient
p2444
aVowner
p2445
aVcontact
p2446
aVlocation
p2447
aVurl
p2448
aVnote
p2449
aVsafety
p2450
asVDocumentReference
p2451
(lp2452
Vid
p2453
aVmeta
p2454
aVimplicitRules
p2455
aVlanguage
p2456
aVtext
p2457
aVcontained
p2458
aVextension
p2459
aVmodifierExtension
p2460
aVmasterIdentifier
p2461
aVidentifier
p2462
aVstatus
p2463
aVdocStatus
p2464
aVtype
p2465
aVclass
p2466
aVsubject
p2467
aVcreated
p2468
aVdate
p2469
aVagent
p2470
aVauthenticator
p2471
aVcustodian
p2472
aVrelatesTo
p2473
aVdescription
p2474
aVsecurityLabel
p2475
aVcontent
p2476
aVcontext
p2477
asVDeviceComponent
p2478
(lp2479
Vid
p2480
aVmeta
p2481
aVimplicitRules
p2482
aVlanguage
p2483
aVtext
p2484
aVcontained
p2485
aVextension
p2486
aVmodifierExtension
p2487
aVidentifier
p2488
aVtype
p2489
aVlastSystemChange
p2490
aVsource
p2491
aVparent
p2492
aVoperationalStatus
p2493
aVparameterGroup
p2494
aVmeasurementPrinciple
p2495
aVproductionSpecification
p2496
aVlanguageCode
p2497
aVproperty
p2498
asVProcedure
p2499
(lp2500
Vid
p2501
aVmeta
p2502
aVimplicitRules
p2503
aVlanguage
p2504
aVtext
p2505
aVcontained
p2506
aVextension
p2507
aVmodifierExtension
p2508
aVidentifier
p2509
aVinstantiates
p2510
aVbasedOn
p2511
aVpartOf
p2512
aVstatus
p2513
aVstatusReason
p2514
aVcategory
p2515
aVcode
p2516
aVsubject
p2517
aVcontext
p2518
aVperformedDateTime
p2519
aVperformedPeriod
p2520
aVperformedString
p2521
aVperformedAge
p2522
aVperformedRange
p2523
aVperformer
p2524
aVlocation
p2525
aVreasonCode
p2526
aVreasonReference
p2527
aVbodySite
p2528
aVoutcome
p2529
aVreport
p2530
aVcomplication
p2531
aVcomplicationDetail
p2532
aVfollowUp
p2533
aVnote
p2534
aVfocalDevice
p2535
aVusedReference
p2536
aVusedCode
p2537
asVClaim
p2538
(lp2539
Vid
p2540
aVmeta
p2541
aVimplicitRules
p2542
aVlanguage
p2543
aVtext
p2544
aVcontained
p2545
aVextension
p2546
aVmodifierExtension
p2547
aVidentifier
p2548
aVstatus
p2549
aVtype
p2550
aVsubType
p2551
aVuse
p2552
aVpatient
p2553
aVbillablePeriod
p2554
aVcreated
p2555
aVenterer
p2556
aVinsurer
p2557
aVprovider
p2558
aVorganization
p2559
aVpriority
p2560
aVfundsReserve
p2561
aVrelated
p2562
aVprescription
p2563
aVoriginalPrescription
p2564
aVpayee
p2565
aVreferral
p2566
aVfacility
p2567
aVcareTeam
p2568
aVinformation
p2569
aVdiagnosis
p2570
aVprocedure
p2571
aVinsurance
p2572
aVaccident
p2573
aVemploymentImpacted
p2574
aVhospitalization
p2575
aVitem
p2576
aVtotal
p2577
asVOperationDefinition
p2578
(lp2579
Vid
p2580
aVmeta
p2581
aVimplicitRules
p2582
aVlanguage
p2583
aVtext
p2584
aVcontained
p2585
aVextension
p2586
aVmodifierExtension
p2587
aVurl
p2588
aVversion
p2589
aVname
p2590
aVstatus
p2591
aVkind
p2592
aVexperimental
p2593
aVdate
p2594
aVpublisher
p2595
aVcontact
p2596
aVdescription
p2597
aVuseContext
p2598
aVjurisdiction
p2599
aVpurpose
p2600
aVaffectsState
p2601
aVcode
p2602
aVcomment
p2603
aVbase
p2604
aVresource
p2605
aVsystem
p2606
aVtype
p2607
aVinstance
p2608
aVinputProfile
p2609
aVoutputProfile
p2610
aVparameter
p2611
aVoverload
p2612
asVDiagnosticReport
p2613
(lp2614
Vid
p2615
aVmeta
p2616
aVimplicitRules
p2617
aVlanguage
p2618
aVtext
p2619
aVcontained
p2620
aVextension
p2621
aVmodifierExtension
p2622
aVidentifier
p2623
aVbasedOn
p2624
aVstatus
p2625
aVcategory
p2626
aVcode
p2627
aVsubject
p2628
aVcontext
p2629
aVeffectiveDateTime
p2630
aVeffectivePeriod
p2631
aVissued
p2632
aVperformer
p2633
aVresultsInterpreter
p2634
aVspecimen
p2635
aVresult
p2636
aVimagingStudy
p2637
aVmedia
p2638
aVconclusion
p2639
aVcodedDiagnosis
p2640
aVpresentedForm
p2641
asVLibrary
p2642
(lp2643
Vid
p2644
aVmeta
p2645
aVimplicitRules
p2646
aVlanguage
p2647
aVtext
p2648
aVcontained
p2649
aVextension
p2650
aVmodifierExtension
p2651
aVurl
p2652
aVidentifier
p2653
aVversion
p2654
aVname
p2655
aVtitle
p2656
aVstatus
p2657
aVexperimental
p2658
aVtype
p2659
aVdate
p2660
aVpublisher
p2661
aVdescription
p2662
aVpurpose
p2663
aVusage
p2664
aVapprovalDate
p2665
aVlastReviewDate
p2666
aVeffectivePeriod
p2667
aVuseContext
p2668
aVjurisdiction
p2669
aVtopic
p2670
aVcontributor
p2671
aVcontact
p2672
aVcopyright
p2673
aVrelatedArtifact
p2674
aVparameter
p2675
aVdataRequirement
p2676
aVcontent
p2677
asVStructureDefinition
p2678
(lp2679
Vid
p2680
aVmeta
p2681
aVimplicitRules
p2682
aVlanguage
p2683
aVtext
p2684
aVcontained
p2685
aVextension
p2686
aVmodifierExtension
p2687
aVurl
p2688
aVidentifier
p2689
aVversion
p2690
aVname
p2691
aVtitle
p2692
aVstatus
p2693
aVexperimental
p2694
aVdate
p2695
aVpublisher
p2696
aVcontact
p2697
aVdescription
p2698
aVuseContext
p2699
aVjurisdiction
p2700
aVpurpose
p2701
aVcopyright
p2702
aVkeyword
p2703
aVfhirVersion
p2704
aVmapping
p2705
aVkind
p2706
aVabstract
p2707
aVcontextType
p2708
aVcontext
p2709
aVcontextInvariant
p2710
aVtype
p2711
aVbaseDefinition
p2712
aVderivation
p2713
aVsnapshot
p2714
aVdifferential
p2715
asVInvoice
p2716
(lp2717
Vid
p2718
aVmeta
p2719
aVimplicitRules
p2720
aVlanguage
p2721
aVtext
p2722
aVcontained
p2723
aVextension
p2724
aVmodifierExtension
p2725
aVidentifier
p2726
aVstatus
p2727
aVcancelledReason
p2728
aVtype
p2729
aVsubject
p2730
aVrecipient
p2731
aVdate
p2732
aVparticipant
p2733
aVissuer
p2734
aVaccount
p2735
aVlineItem
p2736
aVtotalPriceComponent
p2737
aVtotalNet
p2738
aVtotalGross
p2739
aVpaymentTerms
p2740
aVnote
p2741
asVMeasure
p2742
(lp2743
Vid
p2744
aVmeta
p2745
aVimplicitRules
p2746
aVlanguage
p2747
aVtext
p2748
aVcontained
p2749
aVextension
p2750
aVmodifierExtension
p2751
aVurl
p2752
aVidentifier
p2753
aVversion
p2754
aVname
p2755
aVtitle
p2756
aVstatus
p2757
aVexperimental
p2758
aVdate
p2759
aVpublisher
p2760
aVdescription
p2761
aVpurpose
p2762
aVusage
p2763
aVapprovalDate
p2764
aVlastReviewDate
p2765
aVeffectivePeriod
p2766
aVuseContext
p2767
aVjurisdiction
p2768
aVsubject
p2769
aVtopic
p2770
aVcontributor
p2771
aVcontact
p2772
aVcopyright
p2773
aVrelatedArtifact
p2774
aVlibrary
p2775
aVdisclaimer
p2776
aVscoring
p2777
aVcompositeScoring
p2778
aVtype
p2779
aVriskAdjustment
p2780
aVrateAggregation
p2781
aVrationale
p2782
aVclinicalRecommendationStatement
p2783
aVimprovementNotation
p2784
aVdefinition
p2785
aVguidance
p2786
aVset
p2787
aVgroup
p2788
aVsupplementalData
p2789
asVQuestionnaire
p2790
(lp2791
Vid
p2792
aVmeta
p2793
aVimplicitRules
p2794
aVlanguage
p2795
aVtext
p2796
aVcontained
p2797
aVextension
p2798
aVmodifierExtension
p2799
aVurl
p2800
aVidentifier
p2801
aVversion
p2802
aVname
p2803
aVtitle
p2804
aVderivedFrom
p2805
aVstatus
p2806
aVexperimental
p2807
aVsubjectType
p2808
aVdate
p2809
aVpublisher
p2810
aVcontact
p2811
aVuseContext
p2812
aVjurisdiction
p2813
aVdescription
p2814
aVpurpose
p2815
aVcopyright
p2816
aVapprovalDate
p2817
aVlastReviewDate
p2818
aVeffectivePeriod
p2819
aVcode
p2820
aVitem
p2821
asVConceptMap
p2822
(lp2823
Vid
p2824
aVmeta
p2825
aVimplicitRules
p2826
aVlanguage
p2827
aVtext
p2828
aVcontained
p2829
aVextension
p2830
aVmodifierExtension
p2831
aVurl
p2832
aVidentifier
p2833
aVversion
p2834
aVname
p2835
aVtitle
p2836
aVstatus
p2837
aVexperimental
p2838
aVdate
p2839
aVpublisher
p2840
aVcontact
p2841
aVdescription
p2842
aVuseContext
p2843
aVjurisdiction
p2844
aVpurpose
p2845
aVcopyright
p2846
aVsourceUri
p2847
aVsourceReference
p2848
aVtargetUri
p2849
aVtargetReference
p2850
aVgroup
p2851
asVEligibilityResponse
p2852
(lp2853
Vid
p2854
aVmeta
p2855
aVimplicitRules
p2856
aVlanguage
p2857
aVtext
p2858
aVcontained
p2859
aVextension
p2860
aVmodifierExtension
p2861
aVidentifier
p2862
aVstatus
p2863
aVcreated
p2864
aVrequestProvider
p2865
aVrequestOrganization
p2866
aVrequest
p2867
aVoutcome
p2868
aVdisposition
p2869
aVinsurer
p2870
aVinforce
p2871
aVinsurance
p2872
aVpreAuthRef
p2873
aVauthorization
p2874
aVform
p2875
aVerror
p2876
asVSlot
p2877
(lp2878
Vid
p2879
aVmeta
p2880
aVimplicitRules
p2881
aVlanguage
p2882
aVtext
p2883
aVcontained
p2884
aVextension
p2885
aVmodifierExtension
p2886
aVidentifier
p2887
aVserviceCategory
p2888
aVserviceType
p2889
aVspecialty
p2890
aVappointmentType
p2891
aVschedule
p2892
aVstatus
p2893
aVstart
p2894
aVend
p2895
aVoverbooked
p2896
aVcomment
p2897
asVCarePlan
p2898
(lp2899
Vid
p2900
aVmeta
p2901
aVimplicitRules
p2902
aVlanguage
p2903
aVtext
p2904
aVcontained
p2905
aVextension
p2906
aVmodifierExtension
p2907
aVidentifier
p2908
aVinstantiates
p2909
aVbasedOn
p2910
aVreplaces
p2911
aVpartOf
p2912
aVstatus
p2913
aVintent
p2914
aVcategory
p2915
aVtitle
p2916
aVdescription
p2917
aVsubject
p2918
aVcontext
p2919
aVperiod
p2920
aVauthor
p2921
aVcareTeam
p2922
aVaddresses
p2923
aVsupportingInfo
p2924
aVgoal
p2925
aVactivity
p2926
aVnote
p2927
asVItemInstance
p2928
(lp2929
Vid
p2930
aVmeta
p2931
aVimplicitRules
p2932
aVlanguage
p2933
aVtext
p2934
aVcontained
p2935
aVextension
p2936
aVmodifierExtension
p2937
aVcount
p2938
aVlocation
p2939
aVsubject
p2940
aVmanufactureDate
p2941
aVexpiryDate
p2942
aVcurrentSWVersion
p2943
aVlotNumber
p2944
aVserialNumber
p2945
aVcarrierAIDC
p2946
aVcarrierHRF
p2947
asVMedia
p2948
(lp2949
Vid
p2950
aVmeta
p2951
aVimplicitRules
p2952
aVlanguage
p2953
aVtext
p2954
aVcontained
p2955
aVextension
p2956
aVmodifierExtension
p2957
aVidentifier
p2958
aVbasedOn
p2959
aVpartOf
p2960
aVstatus
p2961
aVcategory
p2962
aVmodality
p2963
aVview
p2964
aVsubject
p2965
aVcontext
p2966
aVcreatedDateTime
p2967
aVcreatedPeriod
p2968
aVissued
p2969
aVoperator
p2970
aVreasonCode
p2971
aVbodySite
p2972
aVdeviceName
p2973
aVdevice
p2974
aVheight
p2975
aVwidth
p2976
aVframes
p2977
aVduration
p2978
aVcontent
p2979
aVnote
p2980
asVPerson
p2981
(lp2982
Vid
p2983
aVmeta
p2984
aVimplicitRules
p2985
aVlanguage
p2986
aVtext
p2987
aVcontained
p2988
aVextension
p2989
aVmodifierExtension
p2990
aVidentifier
p2991
aVname
p2992
aVtelecom
p2993
aVgender
p2994
aVbirthDate
p2995
aVaddress
p2996
aVphoto
p2997
aVmanagingOrganization
p2998
aVactive
p2999
aVlink
p3000
asVHealthcareService
p3001
(lp3002
Vid
p3003
aVmeta
p3004
aVimplicitRules
p3005
aVlanguage
p3006
aVtext
p3007
aVcontained
p3008
aVextension
p3009
aVmodifierExtension
p3010
aVidentifier
p3011
aVactive
p3012
aVprovidedBy
p3013
aVcategory
p3014
aVtype
p3015
aVspecialty
p3016
aVlocation
p3017
aVname
p3018
aVcomment
p3019
aVextraDetails
p3020
aVphoto
p3021
aVtelecom
p3022
aVcoverageArea
p3023
aVserviceProvisionCode
p3024
aVeligibility
p3025
aVeligibilityNote
p3026
aVprogramName
p3027
aVcharacteristic
p3028
aVreferralMethod
p3029
aVappointmentRequired
p3030
aVavailableTime
p3031
aVnotAvailable
p3032
aVavailabilityExceptions
p3033
aVendpoint
p3034
asVVisionPrescription
p3035
(lp3036
Vid
p3037
aVmeta
p3038
aVimplicitRules
p3039
aVlanguage
p3040
aVtext
p3041
aVcontained
p3042
aVextension
p3043
aVmodifierExtension
p3044
aVidentifier
p3045
aVstatus
p3046
aVpatient
p3047
aVencounter
p3048
aVdateWritten
p3049
aVprescriber
p3050
aVreasonCodeableConcept
p3051
aVreasonReference
p3052
aVdispense
p3053
asVAllergyIntolerance
p3054
(lp3055
Vid
p3056
aVmeta
p3057
aVimplicitRules
p3058
aVlanguage
p3059
aVtext
p3060
aVcontained
p3061
aVextension
p3062
aVmodifierExtension
p3063
aVidentifier
p3064
aVclinicalStatus
p3065
aVverificationStatus
p3066
aVtype
p3067
aVcategory
p3068
aVcriticality
p3069
aVcode
p3070
aVpatient
p3071
aVonsetDateTime
p3072
aVonsetAge
p3073
aVonsetPeriod
p3074
aVonsetRange
p3075
aVonsetString
p3076
aVassertedDate
p3077
aVrecorder
p3078
aVasserter
p3079
aVlastOccurrence
p3080
aVnote
p3081
aVreaction
p3082
asVDomainResource
p3083
(lp3084
Vid
p3085
aVmeta
p3086
aVimplicitRules
p3087
aVlanguage
p3088
aVtext
p3089
aVcontained
p3090
aVextension
p3091
aVmodifierExtension
p3092
asVEnrollmentRequest
p3093
(lp3094
Vid
p3095
aVmeta
p3096
aVimplicitRules
p3097
aVlanguage
p3098
aVtext
p3099
aVcontained
p3100
aVextension
p3101
aVmodifierExtension
p3102
aVidentifier
p3103
aVstatus
p3104
aVcreated
p3105
aVinsurer
p3106
aVprovider
p3107
aVorganization
p3108
aVcandidate
p3109
aVcoverage
p3110
asVComposition
p3111
(lp3112
Vid
p3113
aVmeta
p3114
aVimplicitRules
p3115
aVlanguage
p3116
aVtext
p3117
aVcontained
p3118
aVextension
p3119
aVmodifierExtension
p3120
aVidentifier
p3121
aVstatus
p3122
aVtype
p3123
aVclass
p3124
aVsubject
p3125
aVencounter
p3126
aVdate
p3127
aVauthor
p3128
aVtitle
p3129
aVconfidentiality
p3130
aVattester
p3131
aVcustodian
p3132
aVrelatesTo
p3133
aVevent
p3134
aVsection
p3135
asVRelatedPerson
p3136
(lp3137
Vid
p3138
aVmeta
p3139
aVimplicitRules
p3140
aVlanguage
p3141
aVtext
p3142
aVcontained
p3143
aVextension
p3144
aVmodifierExtension
p3145
aVidentifier
p3146
aVactive
p3147
aVpatient
p3148
aVrelationship
p3149
aVname
p3150
aVtelecom
p3151
aVgender
p3152
aVbirthDate
p3153
aVaddress
p3154
aVphoto
p3155
aVperiod
p3156
asVSpecimen
p3157
(lp3158
Vid
p3159
aVmeta
p3160
aVimplicitRules
p3161
aVlanguage
p3162
aVtext
p3163
aVcontained
p3164
aVextension
p3165
aVmodifierExtension
p3166
aVidentifier
p3167
aVaccessionIdentifier
p3168
aVstatus
p3169
aVtype
p3170
aVsubject
p3171
aVreceivedTime
p3172
aVparent
p3173
aVrequest
p3174
aVcollection
p3175
aVprocessing
p3176
aVcontainer
p3177
aVnote
p3178
asVConsent
p3179
(lp3180
Vid
p3181
aVmeta
p3182
aVimplicitRules
p3183
aVlanguage
p3184
aVtext
p3185
aVcontained
p3186
aVextension
p3187
aVmodifierExtension
p3188
aVidentifier
p3189
aVstatus
p3190
aVscope
p3191
aVcategory
p3192
aVpatient
p3193
aVdateTime
p3194
aVconsentingParty
p3195
aVorganization
p3196
aVsourceAttachment
p3197
aVsourceIdentifier
p3198
aVsourceReference
p3199
aVsourceReference
p3200
aVsourceReference
p3201
aVsourceReference
p3202
aVpolicy
p3203
aVpolicyRule
p3204
aVverification
p3205
aVprovision
p3206
asVSearchParameter
p3207
(lp3208
Vid
p3209
aVmeta
p3210
aVimplicitRules
p3211
aVlanguage
p3212
aVtext
p3213
aVcontained
p3214
aVextension
p3215
aVmodifierExtension
p3216
aVurl
p3217
aVversion
p3218
aVname
p3219
aVstatus
p3220
aVexperimental
p3221
aVdate
p3222
aVpublisher
p3223
aVcontact
p3224
aVuseContext
p3225
aVjurisdiction
p3226
aVpurpose
p3227
aVcode
p3228
aVbase
p3229
aVtype
p3230
aVderivedFrom
p3231
aVdescription
p3232
aVexpression
p3233
aVxpath
p3234
aVxpathUsage
p3235
aVtarget
p3236
aVcomparator
p3237
aVmodifier
p3238
aVchain
p3239
aVcomponent
p3240
asVAppointmentResponse
p3241
(lp3242
Vid
p3243
aVmeta
p3244
aVimplicitRules
p3245
aVlanguage
p3246
aVtext
p3247
aVcontained
p3248
aVextension
p3249
aVmodifierExtension
p3250
aVidentifier
p3251
aVappointment
p3252
aVstart
p3253
aVend
p3254
aVparticipantType
p3255
aVactor
p3256
aVparticipantStatus
p3257
aVcomment
p3258
asVClaimResponse
p3259
(lp3260
Vid
p3261
aVmeta
p3262
aVimplicitRules
p3263
aVlanguage
p3264
aVtext
p3265
aVcontained
p3266
aVextension
p3267
aVmodifierExtension
p3268
aVidentifier
p3269
aVstatus
p3270
aVpatient
p3271
aVcreated
p3272
aVinsurer
p3273
aVrequestProvider
p3274
aVrequestOrganization
p3275
aVrequest
p3276
aVoutcome
p3277
aVdisposition
p3278
aVpayeeType
p3279
aVitem
p3280
aVaddItem
p3281
aVerror
p3282
aVtotalCost
p3283
aVunallocDeductable
p3284
aVtotalBenefit
p3285
aVpayment
p3286
aVreserved
p3287
aVform
p3288
aVprocessNote
p3289
aVcommunicationRequest
p3290
aVinsurance
p3291
asVResearchStudy
p3292
(lp3293
Vid
p3294
aVmeta
p3295
aVimplicitRules
p3296
aVlanguage
p3297
aVtext
p3298
aVcontained
p3299
aVextension
p3300
aVmodifierExtension
p3301
aVidentifier
p3302
aVtitle
p3303
aVprotocol
p3304
aVpartOf
p3305
aVstatus
p3306
aVprimaryPurposeType
p3307
aVphase
p3308
aVcategory
p3309
aVfocus
p3310
aVcondition
p3311
aVcontact
p3312
aVrelatedArtifact
p3313
aVkeyword
p3314
aVlocation
p3315
aVdescription
p3316
aVenrollment
p3317
aVperiod
p3318
aVsponsor
p3319
aVprincipalInvestigator
p3320
aVsite
p3321
aVreasonStopped
p3322
aVnote
p3323
aVarm
p3324
aVobjective
p3325
asVEpisodeOfCare
p3326
(lp3327
Vid
p3328
aVmeta
p3329
aVimplicitRules
p3330
aVlanguage
p3331
aVtext
p3332
aVcontained
p3333
aVextension
p3334
aVmodifierExtension
p3335
aVidentifier
p3336
aVstatus
p3337
aVstatusHistory
p3338
aVtype
p3339
aVdiagnosis
p3340
aVpatient
p3341
aVmanagingOrganization
p3342
aVperiod
p3343
aVreferralRequest
p3344
aVcareManager
p3345
aVteam
p3346
aVaccount
p3347
asVServiceRequest
p3348
(lp3349
Vid
p3350
aVmeta
p3351
aVimplicitRules
p3352
aVlanguage
p3353
aVtext
p3354
aVcontained
p3355
aVextension
p3356
aVmodifierExtension
p3357
aVidentifier
p3358
aVinstantiates
p3359
aVbasedOn
p3360
aVreplaces
p3361
aVrequisition
p3362
aVstatus
p3363
aVintent
p3364
aVpriority
p3365
aVdoNotPerform
p3366
aVcategory
p3367
aVcode
p3368
aVorderDetail
p3369
aVsubject
p3370
aVcontext
p3371
aVoccurrenceDateTime
p3372
aVoccurrencePeriod
p3373
aVoccurrenceTiming
p3374
aVasNeededBoolean
p3375
aVasNeededCodeableConcept
p3376
aVauthoredOn
p3377
aVrequester
p3378
aVperformerType
p3379
aVperformer
p3380
aVreasonCode
p3381
aVreasonReference
p3382
aVinsurance
p3383
aVsupportingInfo
p3384
aVspecimen
p3385
aVbodySite
p3386
aVnote
p3387
aVpatientInstruction
p3388
aVrelevantHistory
p3389
asVTerminologyCapabilities
p3390
(lp3391
Vid
p3392
aVmeta
p3393
aVimplicitRules
p3394
aVlanguage
p3395
aVtext
p3396
aVcontained
p3397
aVextension
p3398
aVmodifierExtension
p3399
aVurl
p3400
aVversion
p3401
aVname
p3402
aVtitle
p3403
aVstatus
p3404
aVexperimental
p3405
aVdate
p3406
aVpublisher
p3407
aVcontact
p3408
aVdescription
p3409
aVuseContext
p3410
aVjurisdiction
p3411
aVpurpose
p3412
aVcopyright
p3413
aVlockedDate
p3414
aVcodeSystem
p3415
aVexpansion
p3416
aVcodeSearch
p3417
aVvalidateCode
p3418
aVtranslation
p3419
aVclosure
p3420
asVEndpoint
p3421
(lp3422
Vid
p3423
aVmeta
p3424
aVimplicitRules
p3425
aVlanguage
p3426
aVtext
p3427
aVcontained
p3428
aVextension
p3429
aVmodifierExtension
p3430
aVidentifier
p3431
aVstatus
p3432
aVconnectionType
p3433
aVname
p3434
aVmanagingOrganization
p3435
aVcontact
p3436
aVperiod
p3437
aVpayloadType
p3438
aVpayloadMimeType
p3439
aVaddress
p3440
aVheader
p3441
asVResource
p3442
(lp3443
Vid
p3444
aVmeta
p3445
aVimplicitRules
p3446
aVlanguage
p3447
asVDeviceMetric
p3448
(lp3449
Vid
p3450
aVmeta
p3451
aVimplicitRules
p3452
aVlanguage
p3453
aVtext
p3454
aVcontained
p3455
aVextension
p3456
aVmodifierExtension
p3457
aVidentifier
p3458
aVtype
p3459
aVunit
p3460
aVsource
p3461
aVparent
p3462
aVoperationalStatus
p3463
aVcolor
p3464
aVcategory
p3465
aVmeasurementPeriod
p3466
aVcalibration
p3467
asVList
p3468
(lp3469
Vid
p3470
aVmeta
p3471
aVimplicitRules
p3472
aVlanguage
p3473
aVtext
p3474
aVcontained
p3475
aVextension
p3476
aVmodifierExtension
p3477
aVidentifier
p3478
aVstatus
p3479
aVmode
p3480
aVtitle
p3481
aVcode
p3482
aVsubject
p3483
aVencounter
p3484
aVdate
p3485
aVsource
p3486
aVorderedBy
p3487
aVnote
p3488
aVentry
p3489
aVemptyReason
p3490
asVAuditEvent
p3491
(lp3492
Vid
p3493
aVmeta
p3494
aVimplicitRules
p3495
aVlanguage
p3496
aVtext
p3497
aVcontained
p3498
aVextension
p3499
aVmodifierExtension
p3500
aVtype
p3501
aVsubtype
p3502
aVaction
p3503
aVperiod
p3504
aVrecorded
p3505
aVoutcome
p3506
aVoutcomeDesc
p3507
aVpurposeOfEvent
p3508
aVagent
p3509
aVsource
p3510
aVentity
p3511
asVMedicinalProductIngredient
p3512
(lp3513
Vid
p3514
aVmeta
p3515
aVimplicitRules
p3516
aVlanguage
p3517
aVtext
p3518
aVcontained
p3519
aVextension
p3520
aVmodifierExtension
p3521
aVidentifier
p3522
aVrole
p3523
aVallergenicIndicator
p3524
aVmanufacturer
p3525
aVspecifiedSubstance
p3526
aVsubstance
p3527
asVImmunizationEvaluation
p3528
(lp3529
Vid
p3530
aVmeta
p3531
aVimplicitRules
p3532
aVlanguage
p3533
aVtext
p3534
aVcontained
p3535
aVextension
p3536
aVmodifierExtension
p3537
aVidentifier
p3538
aVstatus
p3539
aVpatient
p3540
aVdate
p3541
aVauthority
p3542
aVtargetDisease
p3543
aVimmunizationEvent
p3544
aVdoseStatus
p3545
aVdoseStatusReason
p3546
aVdescription
p3547
aVseries
p3548
aVdoseNumber
p3549
aVseriesDoses
p3550
asVMessageDefinition
p3551
(lp3552
Vid
p3553
aVmeta
p3554
aVimplicitRules
p3555
aVlanguage
p3556
aVtext
p3557
aVcontained
p3558
aVextension
p3559
aVmodifierExtension
p3560
aVurl
p3561
aVidentifier
p3562
aVversion
p3563
aVname
p3564
aVtitle
p3565
aVstatus
p3566
aVexperimental
p3567
aVdate
p3568
aVpublisher
p3569
aVcontact
p3570
aVdescription
p3571
aVuseContext
p3572
aVjurisdiction
p3573
aVpurpose
p3574
aVcopyright
p3575
aVbase
p3576
aVparent
p3577
aVreplaces
p3578
aVevent
p3579
aVcategory
p3580
aVfocus
p3581
aVresponseRequired
p3582
aVallowedResponse
p3583
asVExampleScenario
p3584
(lp3585
Vid
p3586
aVmeta
p3587
aVimplicitRules
p3588
aVlanguage
p3589
aVtext
p3590
aVcontained
p3591
aVextension
p3592
aVmodifierExtension
p3593
aVurl
p3594
aVidentifier
p3595
aVversion
p3596
aVname
p3597
aVtitle
p3598
aVstatus
p3599
aVexperimental
p3600
aVdate
p3601
aVpublisher
p3602
aVcontact
p3603
aVuseContext
p3604
aVjurisdiction
p3605
aVcopyright
p3606
aVdescription
p3607
aVpurpose
p3608
aVactor
p3609
aVinstance
p3610
aVprocess
p3611
aVworkflow
p3612
asVBodyStructure
p3613
(lp3614
Vid
p3615
aVmeta
p3616
aVimplicitRules
p3617
aVlanguage
p3618
aVtext
p3619
aVcontained
p3620
aVextension
p3621
aVmodifierExtension
p3622
aVidentifier
p3623
aVactive
p3624
aVmorphology
p3625
aVlocation
p3626
aVlocationQualifier
p3627
aVdescription
p3628
aVimage
p3629
aVpatient
p3630
asVEnrollmentResponse
p3631
(lp3632
Vid
p3633
aVmeta
p3634
aVimplicitRules
p3635
aVlanguage
p3636
aVtext
p3637
aVcontained
p3638
aVextension
p3639
aVmodifierExtension
p3640
aVidentifier
p3641
aVstatus
p3642
aVrequest
p3643
aVoutcome
p3644
aVdisposition
p3645
aVcreated
p3646
aVorganization
p3647
aVrequestProvider
p3648
aVrequestOrganization
p3649
asVCompartmentDefinition
p3650
(lp3651
Vid
p3652
aVmeta
p3653
aVimplicitRules
p3654
aVlanguage
p3655
aVtext
p3656
aVcontained
p3657
aVextension
p3658
aVmodifierExtension
p3659
aVurl
p3660
aVname
p3661
aVtitle
p3662
aVstatus
p3663
aVexperimental
p3664
aVdate
p3665
aVpublisher
p3666
aVcontact
p3667
aVdescription
p3668
aVpurpose
p3669
aVuseContext
p3670
aVjurisdiction
p3671
aVcode
p3672
aVsearch
p3673
aVresource
p3674
asVSupplyDelivery
p3675
(lp3676
Vid
p3677
aVmeta
p3678
aVimplicitRules
p3679
aVlanguage
p3680
aVtext
p3681
aVcontained
p3682
aVextension
p3683
aVmodifierExtension
p3684
aVidentifier
p3685
aVbasedOn
p3686
aVpartOf
p3687
aVstatus
p3688
aVpatient
p3689
aVtype
p3690
aVsuppliedItem
p3691
aVoccurrenceDateTime
p3692
aVoccurrencePeriod
p3693
aVoccurrenceTiming
p3694
aVsupplier
p3695
aVdestination
p3696
aVreceiver
p3697
asVTestReport
p3698
(lp3699
Vid
p3700
aVmeta
p3701
aVimplicitRules
p3702
aVlanguage
p3703
aVtext
p3704
aVcontained
p3705
aVextension
p3706
aVmodifierExtension
p3707
aVidentifier
p3708
aVname
p3709
aVstatus
p3710
aVtestScript
p3711
aVresult
p3712
aVscore
p3713
aVtester
p3714
aVissued
p3715
aVparticipant
p3716
aVsetup
p3717
aVtest
p3718
aVteardown
p3719
as.