ccollections
defaultdict
p0
(c__builtin__
list
p1
tp2
Rp3
VNamingSystem
p4
(lp5
Vid
p6
aVmeta
p7
aVimplicitRules
p8
aVlanguage
p9
aVtext
p10
aVcontained
p11
aVextension
p12
aVmodifierExtension
p13
aVname
p14
aVstatus
p15
aVkind
p16
aVdate
p17
aVpublisher
p18
aVcontact
p19
aVresponsible
p20
aVtype
p21
aVdescription
p22
aVuseContext
p23
aVusage
p24
aVuniqueId
p25
aVreplacedBy
p26
asVGoal
p27
(lp28
Vid
p29
aVmeta
p30
aVimplicitRules
p31
aVlanguage
p32
aVtext
p33
aVcontained
p34
aVextension
p35
aVmodifierExtension
p36
aVidentifier
p37
aVsubject
p38
aVstartDate
p39
aVstartCodeableConcept
p40
aVtargetDate
p41
aVtargetQuantity
p42
aVcategory
p43
aVdescription
p44
aVstatus
p45
aVstatusDate
p46
aVstatusReason
p47
aVauthor
p48
aVpriority
p49
aVaddresses
p50
aVnote
p51
aVoutcome
p52
asVModuleDefinition
p53
(lp54
Vid
p55
aVmeta
p56
aVimplicitRules
p57
aVlanguage
p58
aVtext
p59
aVcontained
p60
aVextension
p61
aVmodifierExtension
p62
aVidentifier
p63
aVversion
p64
aVmodel
p65
aVlibrary
p66
aVcodeSystem
p67
aVvalueSet
p68
aVparameter
p69
aVdata
p70
asVImmunizationRecommendation
p71
(lp72
Vid
p73
aVmeta
p74
aVimplicitRules
p75
aVlanguage
p76
aVtext
p77
aVcontained
p78
aVextension
p79
aVmodifierExtension
p80
aVidentifier
p81
aVpatient
p82
aVrecommendation
p83
asVMessageHeader
p84
(lp85
Vid
p86
aVmeta
p87
aVimplicitRules
p88
aVlanguage
p89
aVtext
p90
aVcontained
p91
aVextension
p92
aVmodifierExtension
p93
aVtimestamp
p94
aVevent
p95
aVresponse
p96
aVsource
p97
aVdestination
p98
aVenterer
p99
aVauthor
p100
aVreceiver
p101
aVresponsible
p102
aVreason
p103
aVdata
p104
asVExpansionProfile
p105
(lp106
Vid
p107
aVmeta
p108
aVimplicitRules
p109
aVlanguage
p110
aVtext
p111
aVcontained
p112
aVextension
p113
aVmodifierExtension
p114
aVurl
p115
aVidentifier
p116
aVversion
p117
aVname
p118
aVstatus
p119
aVexperimental
p120
aVpublisher
p121
aVcontact
p122
aVdate
p123
aVdescription
p124
aVcodeSystem
p125
aVincludeDesignations
p126
aVdesignation
p127
aVincludeDefinition
p128
aVincludeInactive
p129
aVexcludeNested
p130
aVexcludeNotForUI
p131
aVexcludePostCoordinated
p132
aVdisplayLanguage
p133
aVlimitedExpansion
p134
asVPractitioner
p135
(lp136
Vid
p137
aVmeta
p138
aVimplicitRules
p139
aVlanguage
p140
aVtext
p141
aVcontained
p142
aVextension
p143
aVmodifierExtension
p144
aVidentifier
p145
aVactive
p146
aVname
p147
aVtelecom
p148
aVaddress
p149
aVgender
p150
aVbirthDate
p151
aVphoto
p152
aVpractitionerRole
p153
aVqualification
p154
aVcommunication
p155
asVSchedule
p156
(lp157
Vid
p158
aVmeta
p159
aVimplicitRules
p160
aVlanguage
p161
aVtext
p162
aVcontained
p163
aVextension
p164
aVmodifierExtension
p165
aVidentifier
p166
aVserviceCategory
p167
aVserviceType
p168
aVspecialty
p169
aVactor
p170
aVplanningHorizon
p171
aVcomment
p172
asVDocumentManifest
p173
(lp174
Vid
p175
aVmeta
p176
aVimplicitRules
p177
aVlanguage
p178
aVtext
p179
aVcontained
p180
aVextension
p181
aVmodifierExtension
p182
aVmasterIdentifier
p183
aVidentifier
p184
aVsubject
p185
aVrecipient
p186
aVtype
p187
aVauthor
p188
aVcreated
p189
aVsource
p190
aVstatus
p191
aVdescription
p192
aVcontent
p193
aVrelated
p194
asVImplementationGuide
p195
(lp196
Vid
p197
aVmeta
p198
aVimplicitRules
p199
aVlanguage
p200
aVtext
p201
aVcontained
p202
aVextension
p203
aVmodifierExtension
p204
aVurl
p205
aVversion
p206
aVname
p207
aVstatus
p208
aVexperimental
p209
aVpublisher
p210
aVcontact
p211
aVdate
p212
aVdescription
p213
aVuseContext
p214
aVcopyright
p215
aVfhirVersion
p216
aVdependency
p217
aVpackage
p218
aVglobal
p219
aVbinary
p220
aVpage
p221
asVEncounter
p222
(lp223
Vid
p224
aVmeta
p225
aVimplicitRules
p226
aVlanguage
p227
aVtext
p228
aVcontained
p229
aVextension
p230
aVmodifierExtension
p231
aVidentifier
p232
aVstatus
p233
aVstatusHistory
p234
aVclass
p235
aVtype
p236
aVpriority
p237
aVpatient
p238
aVepisodeOfCare
p239
aVincomingReferral
p240
aVparticipant
p241
aVappointment
p242
aVperiod
p243
aVlength
p244
aVreason
p245
aVindication
p246
aVhospitalization
p247
aVlocation
p248
aVserviceProvider
p249
aVpartOf
p250
asVAccount
p251
(lp252
Vid
p253
aVmeta
p254
aVimplicitRules
p255
aVlanguage
p256
aVtext
p257
aVcontained
p258
aVextension
p259
aVmodifierExtension
p260
aVidentifier
p261
aVname
p262
aVtype
p263
aVstatus
p264
aVactivePeriod
p265
aVcurrency
p266
aVbalance
p267
aVcoveragePeriod
p268
aVsubject
p269
aVowner
p270
aVdescription
p271
asVTask
p272
(lp273
Vid
p274
aVmeta
p275
aVimplicitRules
p276
aVlanguage
p277
aVtext
p278
aVcontained
p279
aVextension
p280
aVmodifierExtension
p281
aVidentifier
p282
aVtype
p283
aVdescription
p284
aVperformerType
p285
aVpriority
p286
aVstatus
p287
aVfailureReason
p288
aVsubject
p289
aVfor
p290
aVdefinition
p291
aVcreated
p292
aVlastModified
p293
aVcreator
p294
aVowner
p295
aVparent
p296
aVinput
p297
aVoutput
p298
asVCodeSystem
p299
(lp300
Vid
p301
aVmeta
p302
aVimplicitRules
p303
aVlanguage
p304
aVtext
p305
aVcontained
p306
aVextension
p307
aVmodifierExtension
p308
aVurl
p309
aVidentifier
p310
aVversion
p311
aVname
p312
aVstatus
p313
aVexperimental
p314
aVpublisher
p315
aVcontact
p316
aVdate
p317
aVdescription
p318
aVuseContext
p319
aVrequirements
p320
aVcopyright
p321
aVcaseSensitive
p322
aVvalueSet
p323
aVcompositional
p324
aVversionNeeded
p325
aVcontent
p326
aVcount
p327
aVfilter
p328
aVproperty
p329
aVconcept
p330
asVImagingObjectSelection
p331
(lp332
Vid
p333
aVmeta
p334
aVimplicitRules
p335
aVlanguage
p336
aVtext
p337
aVcontained
p338
aVextension
p339
aVmodifierExtension
p340
aVuid
p341
aVpatient
p342
aVauthoringTime
p343
aVauthor
p344
aVtitle
p345
aVdescription
p346
aVstudy
p347
asVMeasureReport
p348
(lp349
Vid
p350
aVmeta
p351
aVimplicitRules
p352
aVlanguage
p353
aVtext
p354
aVcontained
p355
aVextension
p356
aVmodifierExtension
p357
aVmeasure
p358
aVtype
p359
aVpatient
p360
aVperiod
p361
aVstatus
p362
aVdate
p363
aVreportingOrganization
p364
aVgroup
p365
aVevaluatedResources
p366
asVOrganization
p367
(lp368
Vid
p369
aVmeta
p370
aVimplicitRules
p371
aVlanguage
p372
aVtext
p373
aVcontained
p374
aVextension
p375
aVmodifierExtension
p376
aVidentifier
p377
aVactive
p378
aVtype
p379
aVname
p380
aVtelecom
p381
aVaddress
p382
aVpartOf
p383
aVcontact
p384
asVMedicationStatement
p385
(lp386
Vid
p387
aVmeta
p388
aVimplicitRules
p389
aVlanguage
p390
aVtext
p391
aVcontained
p392
aVextension
p393
aVmodifierExtension
p394
aVidentifier
p395
aVstatus
p396
aVmedicationCodeableConcept
p397
aVmedicationReference
p398
aVpatient
p399
aVeffectiveDateTime
p400
aVeffectivePeriod
p401
aVinformationSource
p402
aVsupportingInformation
p403
aVdateAsserted
p404
aVwasNotTaken
p405
aVreasonNotTaken
p406
aVreasonForUseCodeableConcept
p407
aVreasonForUseReference
p408
aVnote
p409
aVdosage
p410
asVProtocol
p411
(lp412
Vid
p413
aVmeta
p414
aVimplicitRules
p415
aVlanguage
p416
aVtext
p417
aVcontained
p418
aVextension
p419
aVmodifierExtension
p420
aVidentifier
p421
aVtitle
p422
aVstatus
p423
aVtype
p424
aVsubject
p425
aVgroup
p426
aVpurpose
p427
aVauthor
p428
aVstep
p429
asVMedicationDispense
p430
(lp431
Vid
p432
aVmeta
p433
aVimplicitRules
p434
aVlanguage
p435
aVtext
p436
aVcontained
p437
aVextension
p438
aVmodifierExtension
p439
aVidentifier
p440
aVstatus
p441
aVmedicationCodeableConcept
p442
aVmedicationReference
p443
aVpatient
p444
aVdispenser
p445
aVauthorizingPrescription
p446
aVtype
p447
aVquantity
p448
aVdaysSupply
p449
aVwhenPrepared
p450
aVwhenHandedOver
p451
aVdestination
p452
aVreceiver
p453
aVnote
p454
aVdosageInstruction
p455
aVsubstitution
p456
asVSupplyRequest
p457
(lp458
Vid
p459
aVmeta
p460
aVimplicitRules
p461
aVlanguage
p462
aVtext
p463
aVcontained
p464
aVextension
p465
aVmodifierExtension
p466
aVpatient
p467
aVsource
p468
aVdate
p469
aVidentifier
p470
aVstatus
p471
aVkind
p472
aVorderedItem
p473
aVsupplier
p474
aVreasonCodeableConcept
p475
aVreasonReference
p476
aVwhen
p477
asVQuestionnaireResponse
p478
(lp479
Vid
p480
aVmeta
p481
aVimplicitRules
p482
aVlanguage
p483
aVtext
p484
aVcontained
p485
aVextension
p486
aVmodifierExtension
p487
aVidentifier
p488
aVquestionnaire
p489
aVstatus
p490
aVsubject
p491
aVauthor
p492
aVauthored
p493
aVsource
p494
aVencounter
p495
aVitem
p496
asVParameters
p497
(lp498
Vid
p499
aVmeta
p500
aVimplicitRules
p501
aVlanguage
p502
aVparameter
p503
asVProvenance
p504
(lp505
Vid
p506
aVmeta
p507
aVimplicitRules
p508
aVlanguage
p509
aVtext
p510
aVcontained
p511
aVextension
p512
aVmodifierExtension
p513
aVtarget
p514
aVperiod
p515
aVrecorded
p516
aVreason
p517
aVactivity
p518
aVlocation
p519
aVpolicy
p520
aVagent
p521
aVentity
p522
aVsignature
p523
asVSubstance
p524
(lp525
Vid
p526
aVmeta
p527
aVimplicitRules
p528
aVlanguage
p529
aVtext
p530
aVcontained
p531
aVextension
p532
aVmodifierExtension
p533
aVidentifier
p534
aVcategory
p535
aVcode
p536
aVdescription
p537
aVinstance
p538
aVingredient
p539
asVLocation
p540
(lp541
Vid
p542
aVmeta
p543
aVimplicitRules
p544
aVlanguage
p545
aVtext
p546
aVcontained
p547
aVextension
p548
aVmodifierExtension
p549
aVidentifier
p550
aVstatus
p551
aVname
p552
aVdescription
p553
aVmode
p554
aVtype
p555
aVtelecom
p556
aVaddress
p557
aVphysicalType
p558
aVposition
p559
aVmanagingOrganization
p560
aVpartOf
p561
asVCareTeam
p562
(lp563
Vid
p564
aVmeta
p565
aVimplicitRules
p566
aVlanguage
p567
aVtext
p568
aVcontained
p569
aVextension
p570
aVmodifierExtension
p571
aVidentifier
p572
aVstatus
p573
aVtype
p574
aVname
p575
aVsubject
p576
aVperiod
p577
aVparticipant
p578
aVmanagingOrganization
p579
asVPatient
p580
(lp581
Vid
p582
aVmeta
p583
aVimplicitRules
p584
aVlanguage
p585
aVtext
p586
aVcontained
p587
aVextension
p588
aVmodifierExtension
p589
aVidentifier
p590
aVactive
p591
aVname
p592
aVtelecom
p593
aVgender
p594
aVbirthDate
p595
aVdeceasedBoolean
p596
aVdeceasedDateTime
p597
aVaddress
p598
aVmaritalStatus
p599
aVmultipleBirthBoolean
p600
aVmultipleBirthInteger
p601
aVphoto
p602
aVcontact
p603
aVanimal
p604
aVcommunication
p605
aVcareProvider
p606
aVmanagingOrganization
p607
aVlink
p608
asVPaymentNotice
p609
(lp610
Vid
p611
aVmeta
p612
aVimplicitRules
p613
aVlanguage
p614
aVtext
p615
aVcontained
p616
aVextension
p617
aVmodifierExtension
p618
aVidentifier
p619
aVruleset
p620
aVoriginalRuleset
p621
aVcreated
p622
aVtargetIdentifier
p623
aVtargetReference
p624
aVproviderIdentifier
p625
aVproviderReference
p626
aVorganizationIdentifier
p627
aVorganizationReference
p628
aVrequestIdentifier
p629
aVrequestReference
p630
aVresponseIdentifier
p631
aVresponseReference
p632
aVpaymentStatus
p633
aVstatusDate
p634
asVClinicalImpression
p635
(lp636
Vid
p637
aVmeta
p638
aVimplicitRules
p639
aVlanguage
p640
aVtext
p641
aVcontained
p642
aVextension
p643
aVmodifierExtension
p644
aVpatient
p645
aVassessor
p646
aVstatus
p647
aVdate
p648
aVdescription
p649
aVprevious
p650
aVproblem
p651
aVtriggerCodeableConcept
p652
aVtriggerReference
p653
aVinvestigations
p654
aVprotocol
p655
aVsummary
p656
aVfinding
p657
aVresolved
p658
aVruledOut
p659
aVprognosis
p660
aVplan
p661
aVaction
p662
asVFlag
p663
(lp664
Vid
p665
aVmeta
p666
aVimplicitRules
p667
aVlanguage
p668
aVtext
p669
aVcontained
p670
aVextension
p671
aVmodifierExtension
p672
aVidentifier
p673
aVcategory
p674
aVstatus
p675
aVperiod
p676
aVsubject
p677
aVencounter
p678
aVauthor
p679
aVcode
p680
asVExplanationOfBenefit
p681
(lp682
Vid
p683
aVmeta
p684
aVimplicitRules
p685
aVlanguage
p686
aVtext
p687
aVcontained
p688
aVextension
p689
aVmodifierExtension
p690
aVidentifier
p691
aVclaimIdentifier
p692
aVclaimReference
p693
aVclaimResponseIdentifier
p694
aVclaimResponseReference
p695
aVsubType
p696
aVruleset
p697
aVoriginalRuleset
p698
aVcreated
p699
aVbillablePeriod
p700
aVdisposition
p701
aVproviderIdentifier
p702
aVproviderReference
p703
aVorganizationIdentifier
p704
aVorganizationReference
p705
aVfacilityIdentifier
p706
aVfacilityReference
p707
aVrelated
p708
aVprescriptionIdentifier
p709
aVprescriptionReference
p710
aVprescriptionReference
p711
aVoriginalPrescriptionIdentifier
p712
aVoriginalPrescriptionReference
p713
aVpayee
p714
aVreferralIdentifier
p715
aVreferralReference
p716
aVoccurrenceCode
p717
aVoccurenceSpanCode
p718
aVvalueCode
p719
aVdiagnosis
p720
aVprocedure
p721
aVspecialCondition
p722
aVpatientIdentifier
p723
aVpatientReference
p724
aVprecedence
p725
aVcoverage
p726
aVaccidentDate
p727
aVaccidentType
p728
aVaccidentLocationAddress
p729
aVaccidentLocationReference
p730
aVinterventionException
p731
aVonset
p732
aVemploymentImpacted
p733
aVhospitalization
p734
aVitem
p735
aVaddItem
p736
aVmissingTeeth
p737
aVtotalCost
p738
aVunallocDeductable
p739
aVtotalBenefit
p740
aVpaymentAdjustment
p741
aVpaymentAdjustmentReason
p742
aVpaymentDate
p743
aVpaymentAmount
p744
aVpaymentRef
p745
aVreserved
p746
aVform
p747
aVnote
p748
aVbenefitBalance
p749
asVBodySite
p750
(lp751
Vid
p752
aVmeta
p753
aVimplicitRules
p754
aVlanguage
p755
aVtext
p756
aVcontained
p757
aVextension
p758
aVmodifierExtension
p759
aVpatient
p760
aVidentifier
p761
aVcode
p762
aVmodifier
p763
aVdescription
p764
aVimage
p765
asVLinkage
p766
(lp767
Vid
p768
aVmeta
p769
aVimplicitRules
p770
aVlanguage
p771
aVtext
p772
aVcontained
p773
aVextension
p774
aVmodifierExtension
p775
aVauthor
p776
aVitem
p777
asVSubscription
p778
(lp779
Vid
p780
aVmeta
p781
aVimplicitRules
p782
aVlanguage
p783
aVtext
p784
aVcontained
p785
aVextension
p786
aVmodifierExtension
p787
aVcriteria
p788
aVcontact
p789
aVreason
p790
aVstatus
p791
aVerror
p792
aVchannel
p793
aVend
p794
aVtag
p795
asVMedicationAdministration
p796
(lp797
Vid
p798
aVmeta
p799
aVimplicitRules
p800
aVlanguage
p801
aVtext
p802
aVcontained
p803
aVextension
p804
aVmodifierExtension
p805
aVidentifier
p806
aVstatus
p807
aVmedicationCodeableConcept
p808
aVmedicationReference
p809
aVpatient
p810
aVencounter
p811
aVeffectiveTimeDateTime
p812
aVeffectiveTimePeriod
p813
aVpractitioner
p814
aVprescription
p815
aVwasNotGiven
p816
aVreasonNotGiven
p817
aVreasonGiven
p818
aVdevice
p819
aVnote
p820
aVdosage
p821
asVDiagnosticOrder
p822
(lp823
Vid
p824
aVmeta
p825
aVimplicitRules
p826
aVlanguage
p827
aVtext
p828
aVcontained
p829
aVextension
p830
aVmodifierExtension
p831
aVidentifier
p832
aVstatus
p833
aVpriority
p834
aVsubject
p835
aVencounter
p836
aVorderer
p837
aVreason
p838
aVsupportingInformation
p839
aVspecimen
p840
aVevent
p841
aVitem
p842
aVnote
p843
asVObservation
p844
(lp845
Vid
p846
aVmeta
p847
aVimplicitRules
p848
aVlanguage
p849
aVtext
p850
aVcontained
p851
aVextension
p852
aVmodifierExtension
p853
aVidentifier
p854
aVstatus
p855
aVcategory
p856
aVcode
p857
aVsubject
p858
aVencounter
p859
aVeffectiveDateTime
p860
aVeffectivePeriod
p861
aVissued
p862
aVperformer
p863
aVvalueQuantity
p864
aVvalueCodeableConcept
p865
aVvalueString
p866
aVvalueRange
p867
aVvalueRatio
p868
aVvalueSampledData
p869
aVvalueAttachment
p870
aVvalueTime
p871
aVvalueDateTime
p872
aVvaluePeriod
p873
aVdataAbsentReason
p874
aVinterpretation
p875
aVcomment
p876
aVbodySite
p877
aVmethod
p878
aVspecimen
p879
aVdevice
p880
aVreferenceRange
p881
aVrelated
p882
aVcomponent
p883
asVPaymentReconciliation
p884
(lp885
Vid
p886
aVmeta
p887
aVimplicitRules
p888
aVlanguage
p889
aVtext
p890
aVcontained
p891
aVextension
p892
aVmodifierExtension
p893
aVidentifier
p894
aVrequestIdentifier
p895
aVrequestReference
p896
aVoutcome
p897
aVdisposition
p898
aVruleset
p899
aVoriginalRuleset
p900
aVcreated
p901
aVperiod
p902
aVorganizationIdentifier
p903
aVorganizationReference
p904
aVrequestProviderIdentifier
p905
aVrequestProviderReference
p906
aVrequestOrganizationIdentifier
p907
aVrequestOrganizationReference
p908
aVdetail
p909
aVform
p910
aVtotal
p911
aVnote
p912
asVStructureMap
p913
(lp914
Vid
p915
aVmeta
p916
aVimplicitRules
p917
aVlanguage
p918
aVtext
p919
aVcontained
p920
aVextension
p921
aVmodifierExtension
p922
aVurl
p923
aVidentifier
p924
aVversion
p925
aVname
p926
aVstatus
p927
aVexperimental
p928
aVpublisher
p929
aVcontact
p930
aVdate
p931
aVdescription
p932
aVuseContext
p933
aVrequirements
p934
aVcopyright
p935
aVstructure
p936
aVimport
p937
aVgroup
p938
asVTestScript
p939
(lp940
Vid
p941
aVmeta
p942
aVimplicitRules
p943
aVlanguage
p944
aVtext
p945
aVcontained
p946
aVextension
p947
aVmodifierExtension
p948
aVurl
p949
aVversion
p950
aVname
p951
aVstatus
p952
aVidentifier
p953
aVexperimental
p954
aVpublisher
p955
aVcontact
p956
aVdate
p957
aVdescription
p958
aVuseContext
p959
aVrequirements
p960
aVcopyright
p961
aVorigin
p962
aVdestination
p963
aVmetadata
p964
aVfixture
p965
aVprofile
p966
aVvariable
p967
aVrule
p968
aVruleset
p969
aVsetup
p970
aVtest
p971
aVteardown
p972
asVImmunization
p973
(lp974
Vid
p975
aVmeta
p976
aVimplicitRules
p977
aVlanguage
p978
aVtext
p979
aVcontained
p980
aVextension
p981
aVmodifierExtension
p982
aVidentifier
p983
aVstatus
p984
aVdate
p985
aVvaccineCode
p986
aVpatient
p987
aVwasNotGiven
p988
aVreported
p989
aVperformer
p990
aVrequester
p991
aVencounter
p992
aVmanufacturer
p993
aVlocation
p994
aVlotNumber
p995
aVexpirationDate
p996
aVsite
p997
aVroute
p998
aVdoseQuantity
p999
aVnote
p1000
aVexplanation
p1001
aVreaction
p1002
aVvaccinationProtocol
p1003
asVCommunicationRequest
p1004
(lp1005
Vid
p1006
aVmeta
p1007
aVimplicitRules
p1008
aVlanguage
p1009
aVtext
p1010
aVcontained
p1011
aVextension
p1012
aVmodifierExtension
p1013
aVidentifier
p1014
aVcategory
p1015
aVsender
p1016
aVrecipient
p1017
aVpayload
p1018
aVmedium
p1019
aVrequester
p1020
aVstatus
p1021
aVencounter
p1022
aVscheduledDateTime
p1023
aVscheduledPeriod
p1024
aVreason
p1025
aVrequestedOn
p1026
aVsubject
p1027
aVpriority
p1028
asVSequence
p1029
(lp1030
Vid
p1031
aVmeta
p1032
aVimplicitRules
p1033
aVlanguage
p1034
aVtext
p1035
aVcontained
p1036
aVextension
p1037
aVmodifierExtension
p1038
aVtype
p1039
aVpatient
p1040
aVspecimen
p1041
aVdevice
p1042
aVquantity
p1043
aVspecies
p1044
aVreferenceSeq
p1045
aVvariation
p1046
aVquality
p1047
aVallelicState
p1048
aVallelicFrequency
p1049
aVcopyNumberEvent
p1050
aVreadCoverage
p1051
aVrepository
p1052
aVpointer
p1053
aVobservedSeq
p1054
aVobservation
p1055
aVstructureVariation
p1056
asVOperationOutcome
p1057
(lp1058
Vid
p1059
aVmeta
p1060
aVimplicitRules
p1061
aVlanguage
p1062
aVtext
p1063
aVcontained
p1064
aVextension
p1065
aVmodifierExtension
p1066
aVissue
p1067
asVMedication
p1068
(lp1069
Vid
p1070
aVmeta
p1071
aVimplicitRules
p1072
aVlanguage
p1073
aVtext
p1074
aVcontained
p1075
aVextension
p1076
aVmodifierExtension
p1077
aVcode
p1078
aVisBrand
p1079
aVmanufacturer
p1080
aVproduct
p1081
aVpackage
p1082
asVPractitionerRole
p1083
(lp1084
Vid
p1085
aVmeta
p1086
aVimplicitRules
p1087
aVlanguage
p1088
aVtext
p1089
aVcontained
p1090
aVextension
p1091
aVmodifierExtension
p1092
aVidentifier
p1093
aVactive
p1094
aVpractitioner
p1095
aVorganization
p1096
aVrole
p1097
aVspecialty
p1098
aVlocation
p1099
aVhealthcareService
p1100
aVtelecom
p1101
aVperiod
p1102
aVavailableTime
p1103
aVnotAvailable
p1104
aVavailabilityExceptions
p1105
asVCommunication
p1106
(lp1107
Vid
p1108
aVmeta
p1109
aVimplicitRules
p1110
aVlanguage
p1111
aVtext
p1112
aVcontained
p1113
aVextension
p1114
aVmodifierExtension
p1115
aVidentifier
p1116
aVcategory
p1117
aVsender
p1118
aVrecipient
p1119
aVpayload
p1120
aVmedium
p1121
aVstatus
p1122
aVencounter
p1123
aVsent
p1124
aVreceived
p1125
aVreason
p1126
aVsubject
p1127
aVrequestDetail
p1128
asVProcessResponse
p1129
(lp1130
Vid
p1131
aVmeta
p1132
aVimplicitRules
p1133
aVlanguage
p1134
aVtext
p1135
aVcontained
p1136
aVextension
p1137
aVmodifierExtension
p1138
aVidentifier
p1139
aVrequestIdentifier
p1140
aVrequestReference
p1141
aVoutcome
p1142
aVdisposition
p1143
aVruleset
p1144
aVoriginalRuleset
p1145
aVcreated
p1146
aVorganizationIdentifier
p1147
aVorganizationReference
p1148
aVrequestProviderIdentifier
p1149
aVrequestProviderReference
p1150
aVrequestOrganizationIdentifier
p1151
aVrequestOrganizationReference
p1152
aVform
p1153
aVnotes
p1154
aVerror
p1155
asVMedicationOrder
p1156
(lp1157
Vid
p1158
aVmeta
p1159
aVimplicitRules
p1160
aVlanguage
p1161
aVtext
p1162
aVcontained
p1163
aVextension
p1164
aVmodifierExtension
p1165
aVidentifier
p1166
aVstatus
p1167
aVmedicationCodeableConcept
p1168
aVmedicationReference
p1169
aVpatient
p1170
aVencounter
p1171
aVdateWritten
p1172
aVprescriber
p1173
aVreasonCode
p1174
aVreasonReference
p1175
aVdateEnded
p1176
aVreasonEnded
p1177
aVnote
p1178
aVdosageInstruction
p1179
aVdispenseRequest
p1180
aVsubstitution
p1181
aVpriorPrescription
p1182
asVFamilyMemberHistory
p1183
(lp1184
Vid
p1185
aVmeta
p1186
aVimplicitRules
p1187
aVlanguage
p1188
aVtext
p1189
aVcontained
p1190
aVextension
p1191
aVmodifierExtension
p1192
aVidentifier
p1193
aVpatient
p1194
aVdate
p1195
aVstatus
p1196
aVname
p1197
aVrelationship
p1198
aVgender
p1199
aVbornPeriod
p1200
aVbornDate
p1201
aVbornString
p1202
aVageQuantity
p1203
aVageRange
p1204
aVageString
p1205
aVdeceasedBoolean
p1206
aVdeceasedQuantity
p1207
aVdeceasedRange
p1208
aVdeceasedDate
p1209
aVdeceasedString
p1210
aVnote
p1211
aVcondition
p1212
asVBinary
p1213
(lp1214
Vid
p1215
aVmeta
p1216
aVimplicitRules
p1217
aVlanguage
p1218
aVcontentType
p1219
aVcontent
p1220
asVGroup
p1221
(lp1222
Vid
p1223
aVmeta
p1224
aVimplicitRules
p1225
aVlanguage
p1226
aVtext
p1227
aVcontained
p1228
aVextension
p1229
aVmodifierExtension
p1230
aVidentifier
p1231
aVtype
p1232
aVactual
p1233
aVactive
p1234
aVcode
p1235
aVname
p1236
aVquantity
p1237
aVcharacteristic
p1238
aVmember
p1239
asVRiskAssessment
p1240
(lp1241
Vid
p1242
aVmeta
p1243
aVimplicitRules
p1244
aVlanguage
p1245
aVtext
p1246
aVcontained
p1247
aVextension
p1248
aVmodifierExtension
p1249
aVsubject
p1250
aVdate
p1251
aVcondition
p1252
aVencounter
p1253
aVperformer
p1254
aVidentifier
p1255
aVmethod
p1256
aVbasis
p1257
aVprediction
p1258
aVmitigation
p1259
asVImagingStudy
p1260
(lp1261
Vid
p1262
aVmeta
p1263
aVimplicitRules
p1264
aVlanguage
p1265
aVtext
p1266
aVcontained
p1267
aVextension
p1268
aVmodifierExtension
p1269
aVuid
p1270
aVaccession
p1271
aVidentifier
p1272
aVavailability
p1273
aVmodalityList
p1274
aVpatient
p1275
aVstarted
p1276
aVorder
p1277
aVreferrer
p1278
aVinterpreter
p1279
aVurl
p1280
aVnumberOfSeries
p1281
aVnumberOfInstances
p1282
aVprocedure
p1283
aVdescription
p1284
aVseries
p1285
asVGuidanceResponse
p1286
(lp1287
Vid
p1288
aVmeta
p1289
aVimplicitRules
p1290
aVlanguage
p1291
aVtext
p1292
aVcontained
p1293
aVextension
p1294
aVmodifierExtension
p1295
aVrequestId
p1296
aVmodule
p1297
aVstatus
p1298
aVevaluationMessage
p1299
aVoutputParameters
p1300
aVaction
p1301
aVdataRequirement
p1302
asVBasic
p1303
(lp1304
Vid
p1305
aVmeta
p1306
aVimplicitRules
p1307
aVlanguage
p1308
aVtext
p1309
aVcontained
p1310
aVextension
p1311
aVmodifierExtension
p1312
aVidentifier
p1313
aVcode
p1314
aVsubject
p1315
aVcreated
p1316
aVauthor
p1317
asVConformance
p1318
(lp1319
Vid
p1320
aVmeta
p1321
aVimplicitRules
p1322
aVlanguage
p1323
aVtext
p1324
aVcontained
p1325
aVextension
p1326
aVmodifierExtension
p1327
aVurl
p1328
aVversion
p1329
aVname
p1330
aVstatus
p1331
aVexperimental
p1332
aVdate
p1333
aVpublisher
p1334
aVcontact
p1335
aVdescription
p1336
aVuseContext
p1337
aVrequirements
p1338
aVcopyright
p1339
aVkind
p1340
aVsoftware
p1341
aVimplementation
p1342
aVfhirVersion
p1343
aVacceptUnknown
p1344
aVformat
p1345
aVprofile
p1346
aVrest
p1347
aVmessaging
p1348
aVdocument
p1349
asVAppointment
p1350
(lp1351
Vid
p1352
aVmeta
p1353
aVimplicitRules
p1354
aVlanguage
p1355
aVtext
p1356
aVcontained
p1357
aVextension
p1358
aVmodifierExtension
p1359
aVidentifier
p1360
aVstatus
p1361
aVserviceCategory
p1362
aVserviceType
p1363
aVspecialty
p1364
aVappointmentType
p1365
aVreason
p1366
aVpriority
p1367
aVdescription
p1368
aVstart
p1369
aVend
p1370
aVminutesDuration
p1371
aVslot
p1372
aVcreated
p1373
aVcomment
p1374
aVparticipant
p1375
asVValueSet
p1376
(lp1377
Vid
p1378
aVmeta
p1379
aVimplicitRules
p1380
aVlanguage
p1381
aVtext
p1382
aVcontained
p1383
aVextension
p1384
aVmodifierExtension
p1385
aVurl
p1386
aVidentifier
p1387
aVversion
p1388
aVname
p1389
aVstatus
p1390
aVexperimental
p1391
aVpublisher
p1392
aVcontact
p1393
aVdate
p1394
aVlockedDate
p1395
aVdescription
p1396
aVuseContext
p1397
aVimmutable
p1398
aVrequirements
p1399
aVcopyright
p1400
aVextensible
p1401
aVcompose
p1402
aVexpansion
p1403
asVProcedureRequest
p1404
(lp1405
Vid
p1406
aVmeta
p1407
aVimplicitRules
p1408
aVlanguage
p1409
aVtext
p1410
aVcontained
p1411
aVextension
p1412
aVmodifierExtension
p1413
aVidentifier
p1414
aVsubject
p1415
aVcode
p1416
aVbodySite
p1417
aVreasonCodeableConcept
p1418
aVreasonReference
p1419
aVscheduledDateTime
p1420
aVscheduledPeriod
p1421
aVscheduledTiming
p1422
aVencounter
p1423
aVperformer
p1424
aVstatus
p1425
aVnotes
p1426
aVasNeededBoolean
p1427
aVasNeededCodeableConcept
p1428
aVorderedOn
p1429
aVorderer
p1430
aVpriority
p1431
asVBundle
p1432
(lp1433
Vid
p1434
aVmeta
p1435
aVimplicitRules
p1436
aVlanguage
p1437
aVtype
p1438
aVtotal
p1439
aVlink
p1440
aVentry
p1441
aVsignature
p1442
asVDecisionSupportRule
p1443
(lp1444
Vid
p1445
aVmeta
p1446
aVimplicitRules
p1447
aVlanguage
p1448
aVtext
p1449
aVcontained
p1450
aVextension
p1451
aVmodifierExtension
p1452
aVmoduleMetadata
p1453
aVlibrary
p1454
aVtrigger
p1455
aVcondition
p1456
aVaction
p1457
asVCoverage
p1458
(lp1459
Vid
p1460
aVmeta
p1461
aVimplicitRules
p1462
aVlanguage
p1463
aVtext
p1464
aVcontained
p1465
aVextension
p1466
aVmodifierExtension
p1467
aVissuerIdentifier
p1468
aVissuerReference
p1469
aVbin
p1470
aVperiod
p1471
aVtype
p1472
aVplanholderIdentifier
p1473
aVplanholderReference
p1474
aVplanholderReference
p1475
aVbeneficiaryIdentifier
p1476
aVbeneficiaryReference
p1477
aVrelationship
p1478
aVidentifier
p1479
aVgroup
p1480
aVplan
p1481
aVsubPlan
p1482
aVdependent
p1483
aVsequence
p1484
aVexception
p1485
aVschool
p1486
aVnetwork
p1487
aVcontract
p1488
asVDevice
p1489
(lp1490
Vid
p1491
aVmeta
p1492
aVimplicitRules
p1493
aVlanguage
p1494
aVtext
p1495
aVcontained
p1496
aVextension
p1497
aVmodifierExtension
p1498
aVidentifier
p1499
aVudiCarrier
p1500
aVstatus
p1501
aVtype
p1502
aVlotNumber
p1503
aVmanufacturer
p1504
aVmanufactureDate
p1505
aVexpirationDate
p1506
aVmodel
p1507
aVversion
p1508
aVpatient
p1509
aVowner
p1510
aVcontact
p1511
aVlocation
p1512
aVurl
p1513
aVnote
p1514
asVDomainResource
p1515
(lp1516
Vid
p1517
aVmeta
p1518
aVimplicitRules
p1519
aVlanguage
p1520
aVtext
p1521
aVcontained
p1522
aVextension
p1523
aVmodifierExtension
p1524
asVCondition
p1525
(lp1526
Vid
p1527
aVmeta
p1528
aVimplicitRules
p1529
aVlanguage
p1530
aVtext
p1531
aVcontained
p1532
aVextension
p1533
aVmodifierExtension
p1534
aVidentifier
p1535
aVpatient
p1536
aVencounter
p1537
aVasserter
p1538
aVdateRecorded
p1539
aVcode
p1540
aVcategory
p1541
aVclinicalStatus
p1542
aVverificationStatus
p1543
aVseverity
p1544
aVonsetDateTime
p1545
aVonsetQuantity
p1546
aVonsetPeriod
p1547
aVonsetRange
p1548
aVonsetString
p1549
aVabatementDateTime
p1550
aVabatementQuantity
p1551
aVabatementBoolean
p1552
aVabatementPeriod
p1553
aVabatementRange
p1554
aVabatementString
p1555
aVstage
p1556
aVevidence
p1557
aVbodySite
p1558
aVnotes
p1559
asVDeviceUseStatement
p1560
(lp1561
Vid
p1562
aVmeta
p1563
aVimplicitRules
p1564
aVlanguage
p1565
aVtext
p1566
aVcontained
p1567
aVextension
p1568
aVmodifierExtension
p1569
aVbodySiteCodeableConcept
p1570
aVbodySiteReference
p1571
aVwhenUsed
p1572
aVdevice
p1573
aVidentifier
p1574
aVindication
p1575
aVnotes
p1576
aVrecordedOn
p1577
aVsubject
p1578
aVtimingTiming
p1579
aVtimingPeriod
p1580
aVtimingDateTime
p1581
asVDetectedIssue
p1582
(lp1583
Vid
p1584
aVmeta
p1585
aVimplicitRules
p1586
aVlanguage
p1587
aVtext
p1588
aVcontained
p1589
aVextension
p1590
aVmodifierExtension
p1591
aVpatient
p1592
aVcategory
p1593
aVseverity
p1594
aVimplicated
p1595
aVdetail
p1596
aVdate
p1597
aVauthor
p1598
aVidentifier
p1599
aVreference
p1600
aVmitigation
p1601
asVContract
p1602
(lp1603
Vid
p1604
aVmeta
p1605
aVimplicitRules
p1606
aVlanguage
p1607
aVtext
p1608
aVcontained
p1609
aVextension
p1610
aVmodifierExtension
p1611
aVidentifier
p1612
aVissued
p1613
aVapplies
p1614
aVsubject
p1615
aVtopic
p1616
aVauthority
p1617
aVdomain
p1618
aVtype
p1619
aVsubType
p1620
aVaction
p1621
aVactionReason
p1622
aVagent
p1623
aVsigner
p1624
aVvaluedItem
p1625
aVterm
p1626
aVbindingAttachment
p1627
aVbindingReference
p1628
aVbindingReference
p1629
aVbindingReference
p1630
aVfriendly
p1631
aVlegal
p1632
aVrule
p1633
asVEligibilityRequest
p1634
(lp1635
Vid
p1636
aVmeta
p1637
aVimplicitRules
p1638
aVlanguage
p1639
aVtext
p1640
aVcontained
p1641
aVextension
p1642
aVmodifierExtension
p1643
aVidentifier
p1644
aVruleset
p1645
aVoriginalRuleset
p1646
aVcreated
p1647
aVtargetIdentifier
p1648
aVtargetReference
p1649
aVproviderIdentifier
p1650
aVproviderReference
p1651
aVorganizationIdentifier
p1652
aVorganizationReference
p1653
aVpriority
p1654
aVentererIdentifier
p1655
aVentererReference
p1656
aVfacilityIdentifier
p1657
aVfacilityReference
p1658
aVpatientIdentifier
p1659
aVpatientReference
p1660
aVcoverageIdentifier
p1661
aVcoverageReference
p1662
aVbusinessArrangement
p1663
aVservicedDate
p1664
aVservicedPeriod
p1665
aVbenefitCategory
p1666
aVbenefitSubCategory
p1667
asVReferralRequest
p1668
(lp1669
Vid
p1670
aVmeta
p1671
aVimplicitRules
p1672
aVlanguage
p1673
aVtext
p1674
aVcontained
p1675
aVextension
p1676
aVmodifierExtension
p1677
aVidentifier
p1678
aVbasedOn
p1679
aVparent
p1680
aVstatus
p1681
aVcategory
p1682
aVtype
p1683
aVpriority
p1684
aVpatient
p1685
aVcontext
p1686
aVfulfillmentTime
p1687
aVauthored
p1688
aVrequester
p1689
aVspecialty
p1690
aVrecipient
p1691
aVreason
p1692
aVdescription
p1693
aVserviceRequested
p1694
aVsupportingInformation
p1695
asVDeviceComponent
p1696
(lp1697
Vid
p1698
aVmeta
p1699
aVimplicitRules
p1700
aVlanguage
p1701
aVtext
p1702
aVcontained
p1703
aVextension
p1704
aVmodifierExtension
p1705
aVtype
p1706
aVidentifier
p1707
aVlastSystemChange
p1708
aVsource
p1709
aVparent
p1710
aVoperationalStatus
p1711
aVparameterGroup
p1712
aVmeasurementPrinciple
p1713
aVproductionSpecification
p1714
aVlanguageCode
p1715
asVProcedure
p1716
(lp1717
Vid
p1718
aVmeta
p1719
aVimplicitRules
p1720
aVlanguage
p1721
aVtext
p1722
aVcontained
p1723
aVextension
p1724
aVmodifierExtension
p1725
aVidentifier
p1726
aVsubject
p1727
aVstatus
p1728
aVcategory
p1729
aVcode
p1730
aVnotPerformed
p1731
aVreasonNotPerformed
p1732
aVbodySite
p1733
aVreasonCodeableConcept
p1734
aVreasonReference
p1735
aVperformer
p1736
aVperformedDateTime
p1737
aVperformedPeriod
p1738
aVencounter
p1739
aVlocation
p1740
aVoutcome
p1741
aVreport
p1742
aVcomplication
p1743
aVfollowUp
p1744
aVrequest
p1745
aVnotes
p1746
aVfocalDevice
p1747
aVused
p1748
asVOrderResponse
p1749
(lp1750
Vid
p1751
aVmeta
p1752
aVimplicitRules
p1753
aVlanguage
p1754
aVtext
p1755
aVcontained
p1756
aVextension
p1757
aVmodifierExtension
p1758
aVidentifier
p1759
aVrequest
p1760
aVdate
p1761
aVwho
p1762
aVorderStatus
p1763
aVdescription
p1764
aVfulfillment
p1765
asVClaim
p1766
(lp1767
Vid
p1768
aVmeta
p1769
aVimplicitRules
p1770
aVlanguage
p1771
aVtext
p1772
aVcontained
p1773
aVextension
p1774
aVmodifierExtension
p1775
aVtype
p1776
aVsubType
p1777
aVidentifier
p1778
aVruleset
p1779
aVoriginalRuleset
p1780
aVcreated
p1781
aVbillablePeriod
p1782
aVtargetIdentifier
p1783
aVtargetReference
p1784
aVproviderIdentifier
p1785
aVproviderReference
p1786
aVorganizationIdentifier
p1787
aVorganizationReference
p1788
aVuse
p1789
aVpriority
p1790
aVfundsReserve
p1791
aVentererIdentifier
p1792
aVentererReference
p1793
aVfacilityIdentifier
p1794
aVfacilityReference
p1795
aVrelated
p1796
aVprescriptionIdentifier
p1797
aVprescriptionReference
p1798
aVprescriptionReference
p1799
aVoriginalPrescriptionIdentifier
p1800
aVoriginalPrescriptionReference
p1801
aVpayee
p1802
aVreferralIdentifier
p1803
aVreferralReference
p1804
aVoccurrenceCode
p1805
aVoccurenceSpanCode
p1806
aVvalueCode
p1807
aVdiagnosis
p1808
aVprocedure
p1809
aVspecialCondition
p1810
aVpatientIdentifier
p1811
aVpatientReference
p1812
aVcoverage
p1813
aVaccidentDate
p1814
aVaccidentType
p1815
aVaccidentLocationAddress
p1816
aVaccidentLocationReference
p1817
aVinterventionException
p1818
aVonset
p1819
aVemploymentImpacted
p1820
aVhospitalization
p1821
aVitem
p1822
aVtotal
p1823
aVadditionalMaterial
p1824
aVmissingTeeth
p1825
asVOperationDefinition
p1826
(lp1827
Vid
p1828
aVmeta
p1829
aVimplicitRules
p1830
aVlanguage
p1831
aVtext
p1832
aVcontained
p1833
aVextension
p1834
aVmodifierExtension
p1835
aVurl
p1836
aVversion
p1837
aVname
p1838
aVstatus
p1839
aVkind
p1840
aVexperimental
p1841
aVdate
p1842
aVpublisher
p1843
aVcontact
p1844
aVdescription
p1845
aVuseContext
p1846
aVrequirements
p1847
aVidempotent
p1848
aVcode
p1849
aVcomment
p1850
aVbase
p1851
aVsystem
p1852
aVtype
p1853
aVinstance
p1854
aVparameter
p1855
asVDiagnosticReport
p1856
(lp1857
Vid
p1858
aVmeta
p1859
aVimplicitRules
p1860
aVlanguage
p1861
aVtext
p1862
aVcontained
p1863
aVextension
p1864
aVmodifierExtension
p1865
aVidentifier
p1866
aVstatus
p1867
aVcategory
p1868
aVcode
p1869
aVsubject
p1870
aVencounter
p1871
aVeffectiveDateTime
p1872
aVeffectivePeriod
p1873
aVissued
p1874
aVperformer
p1875
aVrequest
p1876
aVspecimen
p1877
aVresult
p1878
aVimagingStudy
p1879
aVimage
p1880
aVconclusion
p1881
aVcodedDiagnosis
p1882
aVpresentedForm
p1883
asVLibrary
p1884
(lp1885
Vid
p1886
aVmeta
p1887
aVimplicitRules
p1888
aVlanguage
p1889
aVtext
p1890
aVcontained
p1891
aVextension
p1892
aVmodifierExtension
p1893
aVmoduleMetadata
p1894
aVmodel
p1895
aVlibrary
p1896
aVcodeSystem
p1897
aVvalueSet
p1898
aVparameter
p1899
aVdataRequirement
p1900
aVdocument
p1901
asVImagingExcerpt
p1902
(lp1903
Vid
p1904
aVmeta
p1905
aVimplicitRules
p1906
aVlanguage
p1907
aVtext
p1908
aVcontained
p1909
aVextension
p1910
aVmodifierExtension
p1911
aVuid
p1912
aVpatient
p1913
aVauthoringTime
p1914
aVauthor
p1915
aVtitle
p1916
aVdescription
p1917
aVstudy
p1918
asVStructureDefinition
p1919
(lp1920
Vid
p1921
aVmeta
p1922
aVimplicitRules
p1923
aVlanguage
p1924
aVtext
p1925
aVcontained
p1926
aVextension
p1927
aVmodifierExtension
p1928
aVurl
p1929
aVidentifier
p1930
aVversion
p1931
aVname
p1932
aVdisplay
p1933
aVstatus
p1934
aVexperimental
p1935
aVpublisher
p1936
aVcontact
p1937
aVdate
p1938
aVdescription
p1939
aVuseContext
p1940
aVrequirements
p1941
aVcopyright
p1942
aVcode
p1943
aVfhirVersion
p1944
aVmapping
p1945
aVkind
p1946
aVabstract
p1947
aVcontextType
p1948
aVcontext
p1949
aVbaseType
p1950
aVbaseDefinition
p1951
aVderivation
p1952
aVsnapshot
p1953
aVdifferential
p1954
asVDeviceUseRequest
p1955
(lp1956
Vid
p1957
aVmeta
p1958
aVimplicitRules
p1959
aVlanguage
p1960
aVtext
p1961
aVcontained
p1962
aVextension
p1963
aVmodifierExtension
p1964
aVbodySiteCodeableConcept
p1965
aVbodySiteReference
p1966
aVstatus
p1967
aVdevice
p1968
aVencounter
p1969
aVidentifier
p1970
aVindication
p1971
aVnotes
p1972
aVprnReason
p1973
aVorderedOn
p1974
aVrecordedOn
p1975
aVsubject
p1976
aVtimingTiming
p1977
aVtimingPeriod
p1978
aVtimingDateTime
p1979
aVpriority
p1980
asVMeasure
p1981
(lp1982
Vid
p1983
aVmeta
p1984
aVimplicitRules
p1985
aVlanguage
p1986
aVtext
p1987
aVcontained
p1988
aVextension
p1989
aVmodifierExtension
p1990
aVmoduleMetadata
p1991
aVlibrary
p1992
aVdisclaimer
p1993
aVscoring
p1994
aVtype
p1995
aVriskAdjustment
p1996
aVrateAggregation
p1997
aVrationale
p1998
aVclinicalRecommendationStatement
p1999
aVimprovementNotation
p2000
aVdefinition
p2001
aVguidance
p2002
aVset
p2003
aVgroup
p2004
aVsupplementalData
p2005
asVDecisionSupportServiceModule
p2006
(lp2007
Vid
p2008
aVmeta
p2009
aVimplicitRules
p2010
aVlanguage
p2011
aVtext
p2012
aVcontained
p2013
aVextension
p2014
aVmodifierExtension
p2015
aVmoduleMetadata
p2016
aVtrigger
p2017
aVparameter
p2018
aVdataRequirement
p2019
asVQuestionnaire
p2020
(lp2021
Vid
p2022
aVmeta
p2023
aVimplicitRules
p2024
aVlanguage
p2025
aVtext
p2026
aVcontained
p2027
aVextension
p2028
aVmodifierExtension
p2029
aVurl
p2030
aVidentifier
p2031
aVversion
p2032
aVstatus
p2033
aVdate
p2034
aVpublisher
p2035
aVtelecom
p2036
aVuseContext
p2037
aVtitle
p2038
aVconcept
p2039
aVsubjectType
p2040
aVitem
p2041
asVConceptMap
p2042
(lp2043
Vid
p2044
aVmeta
p2045
aVimplicitRules
p2046
aVlanguage
p2047
aVtext
p2048
aVcontained
p2049
aVextension
p2050
aVmodifierExtension
p2051
aVurl
p2052
aVidentifier
p2053
aVversion
p2054
aVname
p2055
aVstatus
p2056
aVexperimental
p2057
aVpublisher
p2058
aVcontact
p2059
aVdate
p2060
aVdescription
p2061
aVuseContext
p2062
aVrequirements
p2063
aVcopyright
p2064
aVsourceUri
p2065
aVsourceReference
p2066
aVsourceReference
p2067
aVtargetUri
p2068
aVtargetReference
p2069
aVtargetReference
p2070
aVelement
p2071
asVEligibilityResponse
p2072
(lp2073
Vid
p2074
aVmeta
p2075
aVimplicitRules
p2076
aVlanguage
p2077
aVtext
p2078
aVcontained
p2079
aVextension
p2080
aVmodifierExtension
p2081
aVidentifier
p2082
aVrequestIdentifier
p2083
aVrequestReference
p2084
aVoutcome
p2085
aVdisposition
p2086
aVruleset
p2087
aVoriginalRuleset
p2088
aVcreated
p2089
aVorganizationIdentifier
p2090
aVorganizationReference
p2091
aVrequestProviderIdentifier
p2092
aVrequestProviderReference
p2093
aVrequestOrganizationIdentifier
p2094
aVrequestOrganizationReference
p2095
aVinforce
p2096
aVcontract
p2097
aVform
p2098
aVbenefitBalance
p2099
aVerror
p2100
asVSlot
p2101
(lp2102
Vid
p2103
aVmeta
p2104
aVimplicitRules
p2105
aVlanguage
p2106
aVtext
p2107
aVcontained
p2108
aVextension
p2109
aVmodifierExtension
p2110
aVidentifier
p2111
aVserviceCategory
p2112
aVserviceType
p2113
aVspecialty
p2114
aVappointmentType
p2115
aVschedule
p2116
aVstatus
p2117
aVstart
p2118
aVend
p2119
aVoverbooked
p2120
aVcomment
p2121
asVCarePlan
p2122
(lp2123
Vid
p2124
aVmeta
p2125
aVimplicitRules
p2126
aVlanguage
p2127
aVtext
p2128
aVcontained
p2129
aVextension
p2130
aVmodifierExtension
p2131
aVidentifier
p2132
aVsubject
p2133
aVstatus
p2134
aVcontext
p2135
aVperiod
p2136
aVauthor
p2137
aVmodified
p2138
aVcategory
p2139
aVdescription
p2140
aVaddresses
p2141
aVsupport
p2142
aVrelatedPlan
p2143
aVparticipant
p2144
aVgoal
p2145
aVactivity
p2146
aVnote
p2147
asVMedia
p2148
(lp2149
Vid
p2150
aVmeta
p2151
aVimplicitRules
p2152
aVlanguage
p2153
aVtext
p2154
aVcontained
p2155
aVextension
p2156
aVmodifierExtension
p2157
aVidentifier
p2158
aVtype
p2159
aVsubtype
p2160
aVview
p2161
aVsubject
p2162
aVoperator
p2163
aVdeviceName
p2164
aVheight
p2165
aVwidth
p2166
aVframes
p2167
aVduration
p2168
aVcontent
p2169
asVPerson
p2170
(lp2171
Vid
p2172
aVmeta
p2173
aVimplicitRules
p2174
aVlanguage
p2175
aVtext
p2176
aVcontained
p2177
aVextension
p2178
aVmodifierExtension
p2179
aVidentifier
p2180
aVname
p2181
aVtelecom
p2182
aVgender
p2183
aVbirthDate
p2184
aVaddress
p2185
aVphoto
p2186
aVmanagingOrganization
p2187
aVactive
p2188
aVlink
p2189
asVHealthcareService
p2190
(lp2191
Vid
p2192
aVmeta
p2193
aVimplicitRules
p2194
aVlanguage
p2195
aVtext
p2196
aVcontained
p2197
aVextension
p2198
aVmodifierExtension
p2199
aVidentifier
p2200
aVprovidedBy
p2201
aVserviceCategory
p2202
aVserviceType
p2203
aVspecialty
p2204
aVlocation
p2205
aVserviceName
p2206
aVcomment
p2207
aVextraDetails
p2208
aVphoto
p2209
aVtelecom
p2210
aVcoverageArea
p2211
aVserviceProvisionCode
p2212
aVeligibility
p2213
aVeligibilityNote
p2214
aVprogramName
p2215
aVcharacteristic
p2216
aVreferralMethod
p2217
aVpublicKey
p2218
aVappointmentRequired
p2219
aVavailableTime
p2220
aVnotAvailable
p2221
aVavailabilityExceptions
p2222
asVVisionPrescription
p2223
(lp2224
Vid
p2225
aVmeta
p2226
aVimplicitRules
p2227
aVlanguage
p2228
aVtext
p2229
aVcontained
p2230
aVextension
p2231
aVmodifierExtension
p2232
aVidentifier
p2233
aVdateWritten
p2234
aVpatient
p2235
aVprescriber
p2236
aVencounter
p2237
aVreasonCodeableConcept
p2238
aVreasonReference
p2239
aVdispense
p2240
asVAllergyIntolerance
p2241
(lp2242
Vid
p2243
aVmeta
p2244
aVimplicitRules
p2245
aVlanguage
p2246
aVtext
p2247
aVcontained
p2248
aVextension
p2249
aVmodifierExtension
p2250
aVidentifier
p2251
aVstatus
p2252
aVtype
p2253
aVcategory
p2254
aVcriticality
p2255
aVsubstance
p2256
aVpatient
p2257
aVrecordedDate
p2258
aVrecorder
p2259
aVreporter
p2260
aVonset
p2261
aVlastOccurence
p2262
aVnote
p2263
aVreaction
p2264
asVNutritionOrder
p2265
(lp2266
Vid
p2267
aVmeta
p2268
aVimplicitRules
p2269
aVlanguage
p2270
aVtext
p2271
aVcontained
p2272
aVextension
p2273
aVmodifierExtension
p2274
aVidentifier
p2275
aVstatus
p2276
aVpatient
p2277
aVencounter
p2278
aVdateTime
p2279
aVorderer
p2280
aVallergyIntolerance
p2281
aVfoodPreferenceModifier
p2282
aVexcludeFoodModifier
p2283
aVoralDiet
p2284
aVsupplement
p2285
aVenteralFormula
p2286
asVEnrollmentRequest
p2287
(lp2288
Vid
p2289
aVmeta
p2290
aVimplicitRules
p2291
aVlanguage
p2292
aVtext
p2293
aVcontained
p2294
aVextension
p2295
aVmodifierExtension
p2296
aVidentifier
p2297
aVruleset
p2298
aVoriginalRuleset
p2299
aVcreated
p2300
aVtarget
p2301
aVprovider
p2302
aVorganization
p2303
aVsubject
p2304
aVcoverage
p2305
aVrelationship
p2306
asVComposition
p2307
(lp2308
Vid
p2309
aVmeta
p2310
aVimplicitRules
p2311
aVlanguage
p2312
aVtext
p2313
aVcontained
p2314
aVextension
p2315
aVmodifierExtension
p2316
aVidentifier
p2317
aVdate
p2318
aVtype
p2319
aVclass
p2320
aVtitle
p2321
aVstatus
p2322
aVconfidentiality
p2323
aVsubject
p2324
aVauthor
p2325
aVattester
p2326
aVcustodian
p2327
aVevent
p2328
aVencounter
p2329
aVsection
p2330
asVRelatedPerson
p2331
(lp2332
Vid
p2333
aVmeta
p2334
aVimplicitRules
p2335
aVlanguage
p2336
aVtext
p2337
aVcontained
p2338
aVextension
p2339
aVmodifierExtension
p2340
aVidentifier
p2341
aVpatient
p2342
aVrelationship
p2343
aVname
p2344
aVtelecom
p2345
aVgender
p2346
aVbirthDate
p2347
aVaddress
p2348
aVphoto
p2349
aVperiod
p2350
asVProcessRequest
p2351
(lp2352
Vid
p2353
aVmeta
p2354
aVimplicitRules
p2355
aVlanguage
p2356
aVtext
p2357
aVcontained
p2358
aVextension
p2359
aVmodifierExtension
p2360
aVaction
p2361
aVidentifier
p2362
aVruleset
p2363
aVoriginalRuleset
p2364
aVcreated
p2365
aVtargetIdentifier
p2366
aVtargetReference
p2367
aVproviderIdentifier
p2368
aVproviderReference
p2369
aVorganizationIdentifier
p2370
aVorganizationReference
p2371
aVrequestIdentifier
p2372
aVrequestReference
p2373
aVresponseIdentifier
p2374
aVresponseReference
p2375
aVnullify
p2376
aVreference
p2377
aVitem
p2378
aVinclude
p2379
aVexclude
p2380
aVperiod
p2381
asVSpecimen
p2382
(lp2383
Vid
p2384
aVmeta
p2385
aVimplicitRules
p2386
aVlanguage
p2387
aVtext
p2388
aVcontained
p2389
aVextension
p2390
aVmodifierExtension
p2391
aVidentifier
p2392
aVaccessionIdentifier
p2393
aVstatus
p2394
aVtype
p2395
aVsubject
p2396
aVreceivedTime
p2397
aVparent
p2398
aVcollection
p2399
aVtreatment
p2400
aVcontainer
p2401
asVSearchParameter
p2402
(lp2403
Vid
p2404
aVmeta
p2405
aVimplicitRules
p2406
aVlanguage
p2407
aVtext
p2408
aVcontained
p2409
aVextension
p2410
aVmodifierExtension
p2411
aVurl
p2412
aVname
p2413
aVstatus
p2414
aVexperimental
p2415
aVdate
p2416
aVpublisher
p2417
aVcontact
p2418
aVuseContext
p2419
aVrequirements
p2420
aVcode
p2421
aVbase
p2422
aVtype
p2423
aVdescription
p2424
aVexpression
p2425
aVxpath
p2426
aVxpathUsage
p2427
aVtarget
p2428
asVAppointmentResponse
p2429
(lp2430
Vid
p2431
aVmeta
p2432
aVimplicitRules
p2433
aVlanguage
p2434
aVtext
p2435
aVcontained
p2436
aVextension
p2437
aVmodifierExtension
p2438
aVidentifier
p2439
aVappointment
p2440
aVstart
p2441
aVend
p2442
aVparticipantType
p2443
aVactor
p2444
aVparticipantStatus
p2445
aVcomment
p2446
asVClaimResponse
p2447
(lp2448
Vid
p2449
aVmeta
p2450
aVimplicitRules
p2451
aVlanguage
p2452
aVtext
p2453
aVcontained
p2454
aVextension
p2455
aVmodifierExtension
p2456
aVidentifier
p2457
aVrequestIdentifier
p2458
aVrequestReference
p2459
aVruleset
p2460
aVoriginalRuleset
p2461
aVcreated
p2462
aVorganizationIdentifier
p2463
aVorganizationReference
p2464
aVrequestProviderIdentifier
p2465
aVrequestProviderReference
p2466
aVrequestOrganizationIdentifier
p2467
aVrequestOrganizationReference
p2468
aVoutcome
p2469
aVdisposition
p2470
aVpayeeType
p2471
aVitem
p2472
aVaddItem
p2473
aVerror
p2474
aVtotalCost
p2475
aVunallocDeductable
p2476
aVtotalBenefit
p2477
aVpaymentAdjustment
p2478
aVpaymentAdjustmentReason
p2479
aVpaymentDate
p2480
aVpaymentAmount
p2481
aVpaymentRef
p2482
aVreserved
p2483
aVform
p2484
aVnote
p2485
aVcoverage
p2486
asVEpisodeOfCare
p2487
(lp2488
Vid
p2489
aVmeta
p2490
aVimplicitRules
p2491
aVlanguage
p2492
aVtext
p2493
aVcontained
p2494
aVextension
p2495
aVmodifierExtension
p2496
aVidentifier
p2497
aVstatus
p2498
aVstatusHistory
p2499
aVtype
p2500
aVcondition
p2501
aVpatient
p2502
aVmanagingOrganization
p2503
aVperiod
p2504
aVreferralRequest
p2505
aVcareManager
p2506
aVteam
p2507
asVResource
p2508
(lp2509
Vid
p2510
aVmeta
p2511
aVimplicitRules
p2512
aVlanguage
p2513
asVDeviceMetric
p2514
(lp2515
Vid
p2516
aVmeta
p2517
aVimplicitRules
p2518
aVlanguage
p2519
aVtext
p2520
aVcontained
p2521
aVextension
p2522
aVmodifierExtension
p2523
aVtype
p2524
aVidentifier
p2525
aVunit
p2526
aVsource
p2527
aVparent
p2528
aVoperationalStatus
p2529
aVcolor
p2530
aVcategory
p2531
aVmeasurementPeriod
p2532
aVcalibration
p2533
asVList
p2534
(lp2535
Vid
p2536
aVmeta
p2537
aVimplicitRules
p2538
aVlanguage
p2539
aVtext
p2540
aVcontained
p2541
aVextension
p2542
aVmodifierExtension
p2543
aVidentifier
p2544
aVstatus
p2545
aVmode
p2546
aVtitle
p2547
aVcode
p2548
aVsubject
p2549
aVencounter
p2550
aVdate
p2551
aVsource
p2552
aVorderedBy
p2553
aVnote
p2554
aVentry
p2555
aVemptyReason
p2556
asVAuditEvent
p2557
(lp2558
Vid
p2559
aVmeta
p2560
aVimplicitRules
p2561
aVlanguage
p2562
aVtext
p2563
aVcontained
p2564
aVextension
p2565
aVmodifierExtension
p2566
aVtype
p2567
aVsubtype
p2568
aVaction
p2569
aVrecorded
p2570
aVoutcome
p2571
aVoutcomeDesc
p2572
aVpurposeOfEvent
p2573
aVagent
p2574
aVsource
p2575
aVentity
p2576
asVOrder
p2577
(lp2578
Vid
p2579
aVmeta
p2580
aVimplicitRules
p2581
aVlanguage
p2582
aVtext
p2583
aVcontained
p2584
aVextension
p2585
aVmodifierExtension
p2586
aVidentifier
p2587
aVdate
p2588
aVsubject
p2589
aVsource
p2590
aVtarget
p2591
aVreasonCodeableConcept
p2592
aVreasonReference
p2593
aVwhen
p2594
aVdetail
p2595
asVOrderSet
p2596
(lp2597
Vid
p2598
aVmeta
p2599
aVimplicitRules
p2600
aVlanguage
p2601
aVtext
p2602
aVcontained
p2603
aVextension
p2604
aVmodifierExtension
p2605
aVmoduleMetadata
p2606
aVlibrary
p2607
aVaction
p2608
asVDocumentReference
p2609
(lp2610
Vid
p2611
aVmeta
p2612
aVimplicitRules
p2613
aVlanguage
p2614
aVtext
p2615
aVcontained
p2616
aVextension
p2617
aVmodifierExtension
p2618
aVmasterIdentifier
p2619
aVidentifier
p2620
aVsubject
p2621
aVtype
p2622
aVclass
p2623
aVauthor
p2624
aVcustodian
p2625
aVauthenticator
p2626
aVcreated
p2627
aVindexed
p2628
aVstatus
p2629
aVdocStatus
p2630
aVrelatesTo
p2631
aVdescription
p2632
aVsecurityLabel
p2633
aVcontent
p2634
aVcontext
p2635
asVEnrollmentResponse
p2636
(lp2637
Vid
p2638
aVmeta
p2639
aVimplicitRules
p2640
aVlanguage
p2641
aVtext
p2642
aVcontained
p2643
aVextension
p2644
aVmodifierExtension
p2645
aVidentifier
p2646
aVrequest
p2647
aVoutcome
p2648
aVdisposition
p2649
aVruleset
p2650
aVoriginalRuleset
p2651
aVcreated
p2652
aVorganization
p2653
aVrequestProvider
p2654
aVrequestOrganization
p2655
asVDataElement
p2656
(lp2657
Vid
p2658
aVmeta
p2659
aVimplicitRules
p2660
aVlanguage
p2661
aVtext
p2662
aVcontained
p2663
aVextension
p2664
aVmodifierExtension
p2665
aVurl
p2666
aVidentifier
p2667
aVversion
p2668
aVstatus
p2669
aVexperimental
p2670
aVpublisher
p2671
aVdate
p2672
aVname
p2673
aVcontact
p2674
aVuseContext
p2675
aVcopyright
p2676
aVstringency
p2677
aVmapping
p2678
aVelement
p2679
asVCompartmentDefinition
p2680
(lp2681
Vid
p2682
aVmeta
p2683
aVimplicitRules
p2684
aVlanguage
p2685
aVtext
p2686
aVcontained
p2687
aVextension
p2688
aVmodifierExtension
p2689
aVurl
p2690
aVname
p2691
aVstatus
p2692
aVexperimental
p2693
aVpublisher
p2694
aVcontact
p2695
aVdate
p2696
aVdescription
p2697
aVrequirements
p2698
aVcode
p2699
aVsearch
p2700
aVresource
p2701
asVSupplyDelivery
p2702
(lp2703
Vid
p2704
aVmeta
p2705
aVimplicitRules
p2706
aVlanguage
p2707
aVtext
p2708
aVcontained
p2709
aVextension
p2710
aVmodifierExtension
p2711
aVidentifier
p2712
aVstatus
p2713
aVpatient
p2714
aVtype
p2715
aVquantity
p2716
aVsuppliedItem
p2717
aVsupplier
p2718
aVwhenPrepared
p2719
aVtime
p2720
aVdestination
p2721
aVreceiver
p2722
as.