(dp0
VNamingSystem
p1
(lp2
Vstatus
p3
aVpublisher
p4
aVkind
p5
aVmodifierExtension
p6
aVextension
p7
aVlanguage
p8
aVtext
p9
aVdescription
p10
aVresponsible
p11
aVname
p12
aVjurisdiction
p13
aVusage
p14
aVcontained
p15
aVmeta
p16
aVuseContext
p17
aVcontact
p18
aVuniqueId
p19
aVdate
p20
aVtype
p21
aVid
p22
aVimplicitRules
p23
asVGoal
p24
(lp25
VoutcomeCode
p26
aVstartDate
p27
aVaddresses
p28
aVstartCodeableConcept
p29
aVtext
p30
aVtargetQuantity
p31
aVtargetBoolean
p32
aVstatusReason
p33
aVmeta
p34
aVid
p35
aVsubject
p36
aVcategory
p37
aVnote
p38
aVmodifierExtension
p39
aVtargetCodeableConcept
p40
aVpriority
p41
aVcontained
p42
aVstatusDate
p43
aVimplicitRules
p44
aVtargetString
p45
aVdescription
p46
aVtargetRatio
p47
aVoutcomeReference
p48
aVexpressedBy
p49
aVtargetRange
p50
aVlifecycleStatus
p51
aVtarget
p52
aVachievementStatus
p53
aVlanguage
p54
aVextension
p55
aVtargetDuration
p56
aVidentifier
p57
aVtargetDate
p58
aVtargetInteger
p59
asVInsurancePlan
p60
(lp61
Vtext
p62
aVperiod
p63
aVmeta
p64
aVid
p65
aVmodifierExtension
p66
aVnetwork
p67
aVcontained
p68
aVcoverageArea
p69
aVimplicitRules
p70
aVtype
p71
aVstatus
p72
aVplan
p73
aVcoverage
p74
aVownedBy
p75
aVname
p76
aVendpoint
p77
aVlanguage
p78
aVextension
p79
aVadministeredBy
p80
aValias
p81
aVcontact
p82
aVidentifier
p83
asVMedicinalProductUndesirableEffect
p84
(lp85
Vclassification
p86
aVmodifierExtension
p87
aVextension
p88
aVlanguage
p89
aVtext
p90
aVsymptomConditionEffect
p91
aVcontained
p92
aVmeta
p93
aVfrequencyOfOccurrence
p94
aVpopulation
p95
aVsubject
p96
aVid
p97
aVimplicitRules
p98
asVImmunizationRecommendation
p99
(lp100
VmodifierExtension
p101
aVpatient
p102
aVextension
p103
aVlanguage
p104
aVtext
p105
aVauthority
p106
aVcontained
p107
aVmeta
p108
aVrecommendationString
p109
aVrecommendation
p110
aVdate
p111
aVidentifier
p112
aVid
p113
aVrecommendationPositiveInt
p114
aVimplicitRules
p115
asVMessageHeader
p116
(lp117
Vdefinition
p118
aVmodifierExtension
p119
aVextension
p120
aVlanguage
p121
aVauthor
p122
aVtext
p123
aVdestination
p124
aVenterer
p125
aVresponsible
p126
aVeventUri
p127
aVresponse
p128
aVsource
p129
aVcontained
p130
aVmeta
p131
aVsender
p132
aVfocus
p133
aVreason
p134
aVeventCoding
p135
aVid
p136
aVimplicitRules
p137
asVActivityDefinition
p138
(lp139
Vprofile
p140
aVproductCodeableConcept
p141
aVcode
p142
aVsubtitle
p143
aVtimingPeriod
p144
aVobservationRequirement
p145
aVtext
p146
aVjurisdiction
p147
aVlibrary
p148
aVtopic
p149
aVmeta
p150
aVbodySite
p151
aVtimingRange
p152
aVreviewer
p153
aVid
p154
aVmodifierExtension
p155
aVparticipant
p156
aVcopyright
p157
aVtitle
p158
aVtransform
p159
aVlastReviewDate
p160
aVpriority
p161
aVcontained
p162
aVversion
p163
aVeditor
p164
aVusage
p165
aVimplicitRules
p166
aVtimingDuration
p167
aVlocation
p168
aVstatus
p169
aVapprovalDate
p170
aVproductReference
p171
aVdescription
p172
aVspecimenRequirement
p173
aVtimingTiming
p174
aVeffectivePeriod
p175
aVtimingDateTime
p176
aVtimingAge
p177
aVuseContext
p178
aVpurpose
p179
aVdynamicValue
p180
aVsubjectReference
p181
aVdate
p182
aVobservationResultRequirement
p183
aVname
p184
aVpublisher
p185
aVkind
p186
aVlanguage
p187
aVextension
p188
aVurl
p189
aVdoNotPerform
p190
aVendorser
p191
aVauthor
p192
aVsubjectCodeableConcept
p193
aVcontact
p194
aVrelatedArtifact
p195
aVintent
p196
aVidentifier
p197
aVdosage
p198
aVexperimental
p199
aVquantity
p200
asVObservationDefinition
p201
(lp202
Vcategory
p203
aVmodifierExtension
p204
aVmultipleResultsAllowed
p205
aVextension
p206
aVlanguage
p207
aVcode
p208
aVpreferredReportName
p209
aVtext
p210
aVcriticalCodedValueSet
p211
aVmethod
p212
aVvalidCodedValueSet
p213
aVnormalCodedValueSet
p214
aVcontained
p215
aVmeta
p216
aVpermittedDataType
p217
aVqualifiedInterval
p218
aVabnormalCodedValueSet
p219
aVidentifier
p220
aVid
p221
aVquantitativeDetails
p222
aVimplicitRules
p223
asVPractitioner
p224
(lp225
Vgender
p226
aVmodifierExtension
p227
aVphoto
p228
aVextension
p229
aVlanguage
p230
aVtelecom
p231
aVtext
p232
aVcommunication
p233
aVbirthDate
p234
aVname
p235
aVcontained
p236
aVmeta
p237
aVqualification
p238
aVaddress
p239
aVactive
p240
aVidentifier
p241
aVid
p242
aVimplicitRules
p243
asVSchedule
p244
(lp245
Vcomment
p246
aVserviceCategory
p247
aVmodifierExtension
p248
aVextension
p249
aVlanguage
p250
aVtext
p251
aVserviceType
p252
aVactor
p253
aVspecialty
p254
aVcontained
p255
aVmeta
p256
aVplanningHorizon
p257
aVactive
p258
aVidentifier
p259
aVid
p260
aVimplicitRules
p261
asVResearchSubject
p262
(lp263
Vstatus
p264
aVmodifierExtension
p265
aVindividual
p266
aVextension
p267
aVlanguage
p268
aVtext
p269
aVstudy
p270
aVperiod
p271
aVassignedArm
p272
aVactualArm
p273
aVcontained
p274
aVmeta
p275
aVconsent
p276
aVidentifier
p277
aVid
p278
aVimplicitRules
p279
asVMedicationRequest
p280
(lp281
VcourseOfTherapyType
p282
aVreportedReference
p283
aVperformer
p284
aVtext
p285
aVdispenseRequest
p286
aVreportedBoolean
p287
aVstatusReason
p288
aVmeta
p289
aVreasonCode
p290
aVsubstitutionBoolean
p291
aVid
p292
aVsubject
p293
aVcategory
p294
aVnote
p295
aVmodifierExtension
p296
aVdetectedIssue
p297
aVeventHistory
p298
aVbasedOn
p299
aVinstantiatesCanonical
p300
aVinsurance
p301
aVpriority
p302
aVcontained
p303
aVmedicationCodeableConcept
p304
aVrecorder
p305
aVsubstitutionCodeableConcept
p306
aVsupportingInformation
p307
aVstatus
p308
aVinstantiatesUri
p309
aVgroupIdentifier
p310
aVintent
p311
aVrequester
p312
aVencounter
p313
aVimplicitRules
p314
aVauthoredOn
p315
aVreasonReference
p316
aVlanguage
p317
aVextension
p318
aVperformerType
p319
aVdoNotPerform
p320
aVsubstitution
p321
aVdosageInstruction
p322
aVmedicationReference
p323
aVidentifier
p324
aVpriorPrescription
p325
asVDocumentManifest
p326
(lp327
Vstatus
p328
aVmodifierExtension
p329
aVextension
p330
aVlanguage
p331
aVmasterIdentifier
p332
aVrecipient
p333
aVtext
p334
aVdescription
p335
aVcreated
p336
aVsubject
p337
aVrelated
p338
aVcontent
p339
aVsource
p340
aVcontained
p341
aVmeta
p342
aVauthor
p343
aVidentifier
p344
aVtype
p345
aVid
p346
aVimplicitRules
p347
asVImplementationGuide
p348
(lp349
Vtext
p350
aVjurisdiction
p351
aVmeta
p352
aVpackageId
p353
aVdefinitionReference
p354
aVmanifestBoolean
p355
aVid
p356
aVdefinitionCanonical
p357
aVlicense
p358
aVmodifierExtension
p359
aVcopyright
p360
aVtitle
p361
aVdefinitionBoolean
p362
aVmanifestCanonical
p363
aVcontained
p364
aVversion
p365
aVimplicitRules
p366
aVstatus
p367
aVglobal
p368
aVdescription
p369
aVfhirVersion
p370
aVdefinition
p371
aVdefinitionUrl
p372
aVuseContext
p373
aVdate
p374
aVname
p375
aVpublisher
p376
aVlanguage
p377
aVextension
p378
aVurl
p379
aVmanifest
p380
aVcontact
p381
aVdependsOn
p382
aVexperimental
p383
asVPlanDefinition
p384
(lp385
VgoalCodeableConcept
p386
aVactionCodeableConcept
p387
aVactionCanonical
p388
aVsubtitle
p389
aVgoalRange
p390
aVtext
p391
aVjurisdiction
p392
aVlibrary
p393
aVactionPeriod
p394
aVtopic
p395
aVmeta
p396
aVactionAge
p397
aVreviewer
p398
aVactionReference
p399
aVactionDuration
p400
aVid
p401
aVmodifierExtension
p402
aVgoal
p403
aVcopyright
p404
aVtitle
p405
aVactionTiming
p406
aVlastReviewDate
p407
aVactionUri
p408
aVcontained
p409
aVversion
p410
aVeditor
p411
aVusage
p412
aVimplicitRules
p413
aVtype
p414
aVstatus
p415
aVapprovalDate
p416
aVdescription
p417
aVeffectivePeriod
p418
aVaction
p419
aVuseContext
p420
aVpurpose
p421
aVsubjectReference
p422
aVdate
p423
aVactionDateTime
p424
aVname
p425
aVpublisher
p426
aVlanguage
p427
aVextension
p428
aVurl
p429
aVendorser
p430
aVauthor
p431
aVsubjectCodeableConcept
p432
aVcontact
p433
aVactionRange
p434
aVrelatedArtifact
p435
aVidentifier
p436
aVgoalQuantity
p437
aVexperimental
p438
asVEncounter
p439
(lp440
Vtext
p441
aVperiod
p442
aVmeta
p443
aVreasonCode
p444
aVstatusHistory
p445
aVid
p446
aVsubject
p447
aVmodifierExtension
p448
aVparticipant
p449
aVbasedOn
p450
aVpriority
p451
aVcontained
p452
aVlocation
p453
aVtype
p454
aVstatus
p455
aVserviceType
p456
aVappointment
p457
aVhospitalization
p458
aVserviceProvider
p459
aVepisodeOfCare
p460
aVclass
p461
aVimplicitRules
p462
aVaccount
p463
aVreasonReference
p464
aVlanguage
p465
aVextension
p466
aVclassHistory
p467
aVlength
p468
aVdiagnosis
p469
aVidentifier
p470
aVpartOf
p471
asVAccount
p472
(lp473
Vstatus
p474
aVmodifierExtension
p475
aVextension
p476
aVlanguage
p477
aVtext
p478
aVdescription
p479
aVsubject
p480
aVname
p481
aVcontained
p482
aVmeta
p483
aVcoverage
p484
aVservicePeriod
p485
aVowner
p486
aVguarantor
p487
aVidentifier
p488
aVtype
p489
aVid
p490
aVpartOf
p491
aVimplicitRules
p492
asVTask
p493
(lp494
Vrestriction
p495
aVcode
p496
aVoutputUuid
p497
aVinputAge
p498
aVinputInteger
p499
aVinputTiming
p500
aVtext
p501
aVfocus
p502
aVoutputDate
p503
aVinputTriggerDefinition
p504
aVoutputCount
p505
aVinputContactDetail
p506
aVlocation
p507
aVinput
p508
aVoutputCanonical
p509
aVoutputInstant
p510
aVoutputSignature
p511
aVinputDecimal
p512
aVoutputCodeableConcept
p513
aVoutputBoolean
p514
aVstatusReason
p515
aVoutputDosage
p516
aVoutputAddress
p517
aVencounter
p518
aVoutputUnsignedInt
p519
aVoutputRange
p520
aVperformerType
p521
aVlastModified
p522
aVinputContributor
p523
aVoutput
p524
aVidentifier
p525
aVinputBoolean
p526
aVinputReference
p527
aVinputIdentifier
p528
aVinputRange
p529
aVexecutionPeriod
p530
aVrelevantHistory
p531
aVinputRatio
p532
aVowner
p533
aVinputUri
p534
aVmeta
p535
aVinputUrl
p536
aVinputCodeableConcept
p537
aVinsurance
p538
aVfor
p539
aVcontained
p540
aVinputCount
p541
aVinputPositiveInt
p542
aVoutputTiming
p543
aVinputParameterDefinition
p544
aVoutputQuantity
p545
aVinputCanonical
p546
aVinputDataRequirement
p547
aVoutputContactPoint
p548
aVoutputCoding
p549
aVoutputPeriod
p550
aVoutputDuration
p551
aVoutputHumanName
p552
aVinputOid
p553
aVlanguage
p554
aVoutputReference
p555
aVinputContactPoint
p556
aVoutputRelatedArtifact
p557
aVreasonReference
p558
aVinputAttachment
p559
aVinputUuid
p560
aVinputSampledData
p561
aVinputExpression
p562
aVinputTime
p563
aVoutputDecimal
p564
aVoutputMarkdown
p565
aVinputUnsignedInt
p566
aVoutputContributor
p567
aVinputDistance
p568
aVoutputString
p569
aVoutputParameterDefinition
p570
aVinputQuantity
p571
aVoutputId
p572
aVinputPeriod
p573
aVinputDuration
p574
aVinputString
p575
aVinstantiatesCanonical
p576
aVpriority
p577
aVoutputExpression
p578
aVoutputDateTime
p579
aVoutputUrl
p580
aVoutputTime
p581
aVinputRelatedArtifact
p582
aVinputMarkdown
p583
aVinputUsageContext
p584
aVoutputIdentifier
p585
aVoutputRatio
p586
aVinputHumanName
p587
aVinputDate
p588
aVinputCoding
p589
aVimplicitRules
p590
aVoutputAttachment
p591
aVinstantiatesUri
p592
aVextension
p593
aVoutputUri
p594
aVpartOf
p595
aVinputInstant
p596
aVinputSignature
p597
aVoutputOid
p598
aVoutputAge
p599
aVreasonCode
p600
aVid
p601
aVinputAddress
p602
aVmodifierExtension
p603
aVoutputDataRequirement
p604
aVoutputPositiveInt
p605
aVgroupIdentifier
p606
aVbasedOn
p607
aVoutputContactDetail
p608
aVnote
p609
aVoutputInteger
p610
aVinputMoney
p611
aVinputBase64Binary
p612
aVinputDosage
p613
aVstatus
p614
aVinputCode
p615
aVoutputBase64Binary
p616
aVinputAnnotation
p617
aVdescription
p618
aVintent
p619
aVrequester
p620
aVoutputSampledData
p621
aVoutputAnnotation
p622
aVbusinessStatus
p623
aVauthoredOn
p624
aVoutputMoney
p625
aVoutputDistance
p626
aVinputDateTime
p627
aVoutputUsageContext
p628
aVoutputTriggerDefinition
p629
aVinputId
p630
aVoutputCode
p631
asVMedicinalProductAuthorization
p632
(lp633
Vtext
p634
aVjurisdiction
p635
aVdateOfFirstAuthorization
p636
aVmeta
p637
aVid
p638
aVsubject
p639
aVmodifierExtension
p640
aVinternationalBirthDate
p641
aVcontained
p642
aVstatusDate
p643
aVvalidityPeriod
p644
aVstatus
p645
aVprocedureDateTime
p646
aVprocedurePeriod
p647
aVjurisdictionalAuthorization
p648
aVholder
p649
aVimplicitRules
p650
aVlegalBasis
p651
aVlanguage
p652
aVextension
p653
aVcountry
p654
aVregulator
p655
aVdataExclusivityPeriod
p656
aVrestoreDate
p657
aVidentifier
p658
aVprocedure
p659
asVMetadataResource
p660
(lp661
Vstatus
p662
aVpublisher
p663
aVmodifierExtension
p664
aVextension
p665
aVlanguage
p666
aVtitle
p667
aVurl
p668
aVtext
p669
aVdescription
p670
aVjurisdiction
p671
aVname
p672
aVcontained
p673
aVmeta
p674
aVuseContext
p675
aVcontact
p676
aVversion
p677
aVdate
p678
aVid
p679
aVexperimental
p680
aVimplicitRules
p681
asVCoverageEligibilityRequest
p682
(lp683
VitemCodeableConcept
p684
aVfacility
p685
aVtext
p686
aVmeta
p687
aVinsurance
p688
aVmodifierExtension
p689
aVenterer
p690
aVid
p691
aVpriority
p692
aVcontained
p693
aVprovider
p694
aVstatus
p695
aVpatient
p696
aVinsurer
p697
aVsupportingInfo
p698
aVpurpose
p699
aVimplicitRules
p700
aVlanguage
p701
aVextension
p702
aVcreated
p703
aVitemReference
p704
aVservicedDate
p705
aVitem
p706
aVservicedPeriod
p707
aVidentifier
p708
asVCodeSystem
p709
(lp710
Vconcept
p711
aVvalueSet
p712
aVsupplements
p713
aVconceptCode
p714
aVtext
p715
aVjurisdiction
p716
aVcaseSensitive
p717
aVmeta
p718
aVid
p719
aVmodifierExtension
p720
aVcopyright
p721
aVtitle
p722
aVconceptInteger
p723
aVcontent
p724
aVcontained
p725
aVversion
p726
aVimplicitRules
p727
aVstatus
p728
aVconceptString
p729
aVconceptDateTime
p730
aVdescription
p731
aVconceptBoolean
p732
aVconceptCoding
p733
aVuseContext
p734
aVpurpose
p735
aVhierarchyMeaning
p736
aVdate
p737
aVname
p738
aVcount
p739
aVpublisher
p740
aVproperty
p741
aVlanguage
p742
aVextension
p743
aVconceptDecimal
p744
aVurl
p745
aVfilter
p746
aVcompositional
p747
aVcontact
p748
aVversionNeeded
p749
aVidentifier
p750
aVexperimental
p751
asVEffectEvidenceSynthesis
p752
(lp753
Vpopulation
p754
aVeffectEstimate
p755
aVtext
p756
aVjurisdiction
p757
aVtopic
p758
aVmeta
p759
aVreviewer
p760
aVid
p761
aVmodifierExtension
p762
aVcopyright
p763
aVtitle
p764
aVsampleSize
p765
aVlastReviewDate
p766
aVnote
p767
aVcontained
p768
aVversion
p769
aVeditor
p770
aVimplicitRules
p771
aVstatus
p772
aVapprovalDate
p773
aVsynthesisType
p774
aVdescription
p775
aVexposure
p776
aVeffectivePeriod
p777
aVuseContext
p778
aVdate
p779
aVexposureAlternative
p780
aVstudyType
p781
aVname
p782
aVpublisher
p783
aVoutcome
p784
aVresultsByExposure
p785
aVlanguage
p786
aVextension
p787
aVurl
p788
aVendorser
p789
aVauthor
p790
aVcontact
p791
aVrelatedArtifact
p792
aVidentifier
p793
aVcertainty
p794
asVMeasureReport
p795
(lp796
Vstatus
p797
aVmodifierExtension
p798
aVgroup
p799
aVextension
p800
aVlanguage
p801
aVreporter
p802
aVtext
p803
aVsubject
p804
aVperiod
p805
aVimprovementNotation
p806
aVcontained
p807
aVmeta
p808
aVevaluatedResource
p809
aVmeasure
p810
aVdate
p811
aVidentifier
p812
aVtype
p813
aVid
p814
aVimplicitRules
p815
asVOrganization
p816
(lp817
VmodifierExtension
p818
aVextension
p819
aVlanguage
p820
aVtelecom
p821
aVtext
p822
aVendpoint
p823
aVname
p824
aValias
p825
aVcontained
p826
aVmeta
p827
aVcontact
p828
aVaddress
p829
aVactive
p830
aVidentifier
p831
aVtype
p832
aVid
p833
aVpartOf
p834
aVimplicitRules
p835
asVRiskEvidenceSynthesis
p836
(lp837
Vpopulation
p838
aVtext
p839
aVjurisdiction
p840
aVtopic
p841
aVmeta
p842
aVreviewer
p843
aVid
p844
aVmodifierExtension
p845
aVcopyright
p846
aVtitle
p847
aVsampleSize
p848
aVlastReviewDate
p849
aVnote
p850
aVcontained
p851
aVversion
p852
aVeditor
p853
aVimplicitRules
p854
aVstatus
p855
aVapprovalDate
p856
aVsynthesisType
p857
aVdescription
p858
aVexposure
p859
aVriskEstimate
p860
aVeffectivePeriod
p861
aVuseContext
p862
aVdate
p863
aVstudyType
p864
aVname
p865
aVpublisher
p866
aVoutcome
p867
aVlanguage
p868
aVextension
p869
aVurl
p870
aVendorser
p871
aVauthor
p872
aVcontact
p873
aVrelatedArtifact
p874
aVidentifier
p875
aVcertainty
p876
asVMedicationStatement
p877
(lp878
VdateAsserted
p879
aVtext
p880
aVstatusReason
p881
aVmeta
p882
aVreasonCode
p883
aVid
p884
aVsubject
p885
aVcategory
p886
aVmodifierExtension
p887
aVbasedOn
p888
aVnote
p889
aVcontained
p890
aVmedicationCodeableConcept
p891
aVeffectiveDateTime
p892
aVstatus
p893
aVinformationSource
p894
aVderivedFrom
p895
aVeffectivePeriod
p896
aVimplicitRules
p897
aVreasonReference
p898
aVlanguage
p899
aVextension
p900
aVmedicationReference
p901
aVcontext
p902
aVidentifier
p903
aVdosage
p904
aVpartOf
p905
asVMedicationDispense
p906
(lp907
Vperformer
p908
aVtext
p909
aVmeta
p910
aVdestination
p911
aVid
p912
aVsubject
p913
aVcategory
p914
aVnote
p915
aVmodifierExtension
p916
aVdetectedIssue
p917
aVauthorizingPrescription
p918
aVeventHistory
p919
aVstatusReasonCodeableConcept
p920
aVcontained
p921
aVmedicationCodeableConcept
p922
aVlocation
p923
aVtype
p924
aVsupportingInformation
p925
aVstatus
p926
aVwhenHandedOver
p927
aVstatusReasonReference
p928
aVsubstitution
p929
aVimplicitRules
p930
aVwhenPrepared
p931
aVlanguage
p932
aVextension
p933
aVdaysSupply
p934
aVdosageInstruction
p935
aVmedicationReference
p936
aVcontext
p937
aVreceiver
p938
aVidentifier
p939
aVpartOf
p940
aVquantity
p941
asVSupplyRequest
p942
(lp943
VitemCodeableConcept
p944
aVtext
p945
aVparameterRange
p946
aVmeta
p947
aVreasonCode
p948
aVid
p949
aVcategory
p950
aVmodifierExtension
p951
aVpriority
p952
aVcontained
p953
aVoccurrencePeriod
p954
aVsupplier
p955
aVimplicitRules
p956
aVparameter
p957
aVstatus
p958
aVdeliverFrom
p959
aVparameterQuantity
p960
aVparameterCodeableConcept
p961
aVrequester
p962
aVoccurrenceDateTime
p963
aVparameterBoolean
p964
aVauthoredOn
p965
aVreasonReference
p966
aVlanguage
p967
aVextension
p968
aVitemReference
p969
aVoccurrenceTiming
p970
aVdeliverTo
p971
aVidentifier
p972
aVquantity
p973
asVChargeItemDefinition
p974
(lp975
Vcode
p976
aVtext
p977
aVjurisdiction
p978
aVmeta
p979
aVapplicability
p980
aVid
p981
aVmodifierExtension
p982
aVcopyright
p983
aVtitle
p984
aVlastReviewDate
p985
aVinstance
p986
aVcontained
p987
aVversion
p988
aVstatus
p989
aVapprovalDate
p990
aVdescription
p991
aVeffectivePeriod
p992
aVuseContext
p993
aVderivedFromUri
p994
aVdate
p995
aVimplicitRules
p996
aVpublisher
p997
aVreplaces
p998
aVlanguage
p999
aVextension
p1000
aVurl
p1001
aVpropertyGroup
p1002
aVcontact
p1003
aVpartOf
p1004
aVidentifier
p1005
aVexperimental
p1006
asVQuestionnaireResponse
p1007
(lp1008
VitemBoolean
p1009
aVtext
p1010
aVitemAttachment
p1011
aVmeta
p1012
aVitemQuantity
p1013
aVquestionnaire
p1014
aVid
p1015
aVitemInteger
p1016
aVsubject
p1017
aVmodifierExtension
p1018
aVauthor
p1019
aVitemCoding
p1020
aVbasedOn
p1021
aVsource
p1022
aVcontained
p1023
aVauthored
p1024
aVstatus
p1025
aVitemDate
p1026
aVitemString
p1027
aVitemDateTime
p1028
aVitemDecimal
p1029
aVencounter
p1030
aVimplicitRules
p1031
aVlanguage
p1032
aVextension
p1033
aVitemReference
p1034
aVitemUri
p1035
aVitem
p1036
aVitemTime
p1037
aVidentifier
p1038
aVpartOf
p1039
asVParameters
p1040
(lp1041
VparameterString
p1042
aVparameterDate
p1043
aVparameterUsageContext
p1044
aVparameterParameterDefinition
p1045
aVparameterDecimal
p1046
aVparameterDateTime
p1047
aVparameterAddress
p1048
aVparameterRange
p1049
aVmeta
p1050
aVparameterPeriod
p1051
aVparameterCode
p1052
aVid
p1053
aVparameterAge
p1054
aVparameterContributor
p1055
aVparameterUri
p1056
aVparameterOid
p1057
aVparameterUrl
p1058
aVparameterDuration
p1059
aVparameterMoney
p1060
aVparameterBase64Binary
p1061
aVparameterHumanName
p1062
aVparameterInstant
p1063
aVparameterId
p1064
aVparameterRatio
p1065
aVparameterReference
p1066
aVparameterExpression
p1067
aVparameterDistance
p1068
aVimplicitRules
p1069
aVparameter
p1070
aVparameterAnnotation
p1071
aVparameterInteger
p1072
aVparameterUnsignedInt
p1073
aVparameterContactDetail
p1074
aVparameterQuantity
p1075
aVparameterTiming
p1076
aVparameterAttachment
p1077
aVparameterCodeableConcept
p1078
aVparameterUuid
p1079
aVparameterSampledData
p1080
aVparameterCanonical
p1081
aVparameterMarkdown
p1082
aVparameterCount
p1083
aVparameterBoolean
p1084
aVparameterTriggerDefinition
p1085
aVlanguage
p1086
aVparameterCoding
p1087
aVparameterDosage
p1088
aVparameterContactPoint
p1089
aVparameterSignature
p1090
aVparameterTime
p1091
aVparameterRelatedArtifact
p1092
aVparameterIdentifier
p1093
aVparameterDataRequirement
p1094
aVparameterPositiveInt
p1095
asVResearchElementDefinition
p1096
(lp1097
Vcomment
p1098
aVvariableType
p1099
aVsubtitle
p1100
aVcharacteristicDataRequirement
p1101
aVtext
p1102
aVjurisdiction
p1103
aVlibrary
p1104
aVcharacteristicCodeableConcept
p1105
aVtopic
p1106
aVmeta
p1107
aVreviewer
p1108
aVid
p1109
aVmodifierExtension
p1110
aVcopyright
p1111
aVtitle
p1112
aVshortTitle
p1113
aVlastReviewDate
p1114
aVcontained
p1115
aVversion
p1116
aVeditor
p1117
aVcharacteristicDateTime
p1118
aVcharacteristicTiming
p1119
aVusage
p1120
aVcharacteristicDuration
p1121
aVimplicitRules
p1122
aVtype
p1123
aVstatus
p1124
aVapprovalDate
p1125
aVdescription
p1126
aVcharacteristicPeriod
p1127
aVeffectivePeriod
p1128
aVuseContext
p1129
aVpurpose
p1130
aVsubjectReference
p1131
aVdate
p1132
aVname
p1133
aVcharacteristicCanonical
p1134
aVpublisher
p1135
aVlanguage
p1136
aVextension
p1137
aVurl
p1138
aVcharacteristic
p1139
aVendorser
p1140
aVauthor
p1141
aVsubjectCodeableConcept
p1142
aVcharacteristicExpression
p1143
aVcontact
p1144
aVrelatedArtifact
p1145
aVidentifier
p1146
aVexperimental
p1147
asVDeviceDefinition
p1148
(lp1149
VlanguageCode
p1150
aVdeviceName
p1151
aVtext
p1152
aVmanufacturerString
p1153
aVmeta
p1154
aVowner
p1155
aVid
p1156
aVmodifierExtension
p1157
aVspecialization
p1158
aVmanufacturerReference
p1159
aVcontact
p1160
aVnote
p1161
aVcontained
p1162
aVversion
p1163
aVsafety
p1164
aVtype
p1165
aVmaterial
p1166
aVphysicalCharacteristics
p1167
aVshelfLifeStorage
p1168
aVimplicitRules
p1169
aVproperty
p1170
aVlanguage
p1171
aVextension
p1172
aVudiDeviceIdentifier
p1173
aVonlineInformation
p1174
aVcapability
p1175
aVurl
p1176
aVparentDevice
p1177
aVmodelNumber
p1178
aVidentifier
p1179
aVquantity
p1180
asVProvenance
p1181
(lp1182
VmodifierExtension
p1183
aVoccurredPeriod
p1184
aVextension
p1185
aVlanguage
p1186
aVtext
p1187
aVactivity
p1188
aVrecorded
p1189
aVreason
p1190
aVagent
p1191
aVentity
p1192
aVcontained
p1193
aVmeta
p1194
aVlocation
p1195
aVoccurredDateTime
p1196
aVtarget
p1197
aVpolicy
p1198
aVsignature
p1199
aVid
p1200
aVimplicitRules
p1201
asVEventDefinition
p1202
(lp1203
Vsubtitle
p1204
aVtext
p1205
aVjurisdiction
p1206
aVtopic
p1207
aVmeta
p1208
aVreviewer
p1209
aVid
p1210
aVmodifierExtension
p1211
aVcopyright
p1212
aVtitle
p1213
aVtrigger
p1214
aVlastReviewDate
p1215
aVcontained
p1216
aVversion
p1217
aVeditor
p1218
aVusage
p1219
aVimplicitRules
p1220
aVstatus
p1221
aVapprovalDate
p1222
aVdescription
p1223
aVeffectivePeriod
p1224
aVuseContext
p1225
aVpurpose
p1226
aVsubjectReference
p1227
aVdate
p1228
aVname
p1229
aVpublisher
p1230
aVlanguage
p1231
aVextension
p1232
aVurl
p1233
aVendorser
p1234
aVauthor
p1235
aVsubjectCodeableConcept
p1236
aVcontact
p1237
aVrelatedArtifact
p1238
aVidentifier
p1239
aVexperimental
p1240
asVSubstance
p1241
(lp1242
Vstatus
p1243
aVcategory
p1244
aVmodifierExtension
p1245
aVingredient
p1246
aVextension
p1247
aVlanguage
p1248
aVcode
p1249
aVtext
p1250
aVdescription
p1251
aVingredientCodeableConcept
p1252
aVinstance
p1253
aVcontained
p1254
aVmeta
p1255
aVingredientReference
p1256
aVidentifier
p1257
aVid
p1258
aVimplicitRules
p1259
asVLocation
p1260
(lp1261
Vtelecom
p1262
aVtext
p1263
aVmeta
p1264
aVid
p1265
aVmanagingOrganization
p1266
aVmodifierExtension
p1267
aVavailabilityExceptions
p1268
aVendpoint
p1269
aVhoursOfOperation
p1270
aVcontained
p1271
aVimplicitRules
p1272
aVtype
p1273
aVstatus
p1274
aVdescription
p1275
aVoperationalStatus
p1276
aVaddress
p1277
aVname
p1278
aVphysicalType
p1279
aVlanguage
p1280
aVextension
p1281
aValias
p1282
aVmode
p1283
aVposition
p1284
aVidentifier
p1285
aVpartOf
p1286
asVCareTeam
p1287
(lp1288
Vstatus
p1289
aVcategory
p1290
aVmodifierExtension
p1291
aVparticipant
p1292
aVextension
p1293
aVlanguage
p1294
aVmanagingOrganization
p1295
aVtelecom
p1296
aVtext
p1297
aVsubject
p1298
aVperiod
p1299
aVname
p1300
aVnote
p1301
aVcontained
p1302
aVmeta
p1303
aVreasonReference
p1304
aVreasonCode
p1305
aVidentifier
p1306
aVid
p1307
aVencounter
p1308
aVimplicitRules
p1309
asVMedicinalProductIndication
p1310
(lp1311
Vpopulation
p1312
aVmodifierExtension
p1313
aVextension
p1314
aVlanguage
p1315
aVcomorbidity
p1316
aVtext
p1317
aVundesirableEffect
p1318
aVdiseaseSymptomProcedure
p1319
aVotherTherapy
p1320
aVdiseaseStatus
p1321
aVintendedEffect
p1322
aVcontained
p1323
aVmeta
p1324
aVotherTherapyReference
p1325
aVotherTherapyCodeableConcept
p1326
aVduration
p1327
aVsubject
p1328
aVid
p1329
aVimplicitRules
p1330
asVGraphDefinition
p1331
(lp1332
Vprofile
p1333
aVtext
p1334
aVjurisdiction
p1335
aVmeta
p1336
aVid
p1337
aVmodifierExtension
p1338
aVstart
p1339
aVcontained
p1340
aVversion
p1341
aVimplicitRules
p1342
aVstatus
p1343
aVdescription
p1344
aVuseContext
p1345
aVpurpose
p1346
aVdate
p1347
aVname
p1348
aVpublisher
p1349
aVlanguage
p1350
aVextension
p1351
aVurl
p1352
aVcontact
p1353
aVlink
p1354
aVexperimental
p1355
asVPatient
p1356
(lp1357
VmaritalStatus
p1358
aVtelecom
p1359
aVphoto
p1360
aVcommunication
p1361
aVbirthDate
p1362
aVmeta
p1363
aVid
p1364
aVmanagingOrganization
p1365
aVmodifierExtension
p1366
aVdeceasedDateTime
p1367
aVmultipleBirthInteger
p1368
aVcontained
p1369
aVtext
p1370
aVimplicitRules
p1371
aVmultipleBirthBoolean
p1372
aVlink
p1373
aVaddress
p1374
aVactive
p1375
aVname
p1376
aVlanguage
p1377
aVextension
p1378
aVgender
p1379
aVdeceasedBoolean
p1380
aVcontact
p1381
aVgeneralPractitioner
p1382
aVidentifier
p1383
asVPaymentNotice
p1384
(lp1385
Vstatus
p1386
aVmodifierExtension
p1387
aVextension
p1388
aVlanguage
p1389
aVcreated
p1390
aVtext
p1391
aVpayment
p1392
aVrequest
p1393
aVamount
p1394
aVresponse
p1395
aVpaymentStatus
p1396
aVpayee
p1397
aVcontained
p1398
aVmeta
p1399
aVpaymentDate
p1400
aVprovider
p1401
aVidentifier
p1402
aVrecipient
p1403
aVid
p1404
aVimplicitRules
p1405
asVClinicalImpression
p1406
(lp1407
VprognosisCodeableConcept
p1408
aVcode
p1409
aVprotocol
p1410
aVtext
p1411
aVstatusReason
p1412
aVmeta
p1413
aVid
p1414
aVsubject
p1415
aVmodifierExtension
p1416
aVnote
p1417
aVcontained
p1418
aVinvestigation
p1419
aVprognosisReference
p1420
aVfinding
p1421
aVeffectiveDateTime
p1422
aVprevious
p1423
aVassessor
p1424
aVstatus
p1425
aVdescription
p1426
aVeffectivePeriod
p1427
aVsupportingInfo
p1428
aVdate
p1429
aVencounter
p1430
aVimplicitRules
p1431
aVlanguage
p1432
aVextension
p1433
aVsummary
p1434
aVproblem
p1435
aVidentifier
p1436
asVFlag
p1437
(lp1438
Vstatus
p1439
aVcategory
p1440
aVmodifierExtension
p1441
aVextension
p1442
aVlanguage
p1443
aVcode
p1444
aVtext
p1445
aVauthor
p1446
aVsubject
p1447
aVperiod
p1448
aVcontained
p1449
aVmeta
p1450
aVidentifier
p1451
aVid
p1452
aVencounter
p1453
aVimplicitRules
p1454
asVExplanationOfBenefit
p1455
(lp1456
VdiagnosisCodeableConcept
p1457
aVclaim
p1458
aVsupportingInfoDate
p1459
aVprecedence
p1460
aVfacility
p1461
aVtext
p1462
aVaddItemDate
p1463
aVoriginalPrescription
p1464
aVrelated
p1465
aVadjudication
p1466
aVfundsReserve
p1467
aVsubType
p1468
aVmeta
p1469
aVclaimResponse
p1470
aVbenefitPeriod
p1471
aVbillablePeriod
p1472
aVaccidentReference
p1473
aVprocessNote
p1474
aVid
p1475
aVbenefitBalance
p1476
aVitemCodeableConcept
p1477
aVuse
p1478
aVmodifierExtension
p1479
aVitem
p1480
aVbenefitBalanceUnsignedInt
p1481
aVaddItemCodeableConcept
p1482
aVenterer
p1483
aVsupportingInfoQuantity
p1484
aVbenefitBalanceMoney
p1485
aVinsurance
p1486
aVpriority
p1487
aVcontained
p1488
aVaddItemReference
p1489
aVsupportingInfoBoolean
p1490
aVaccidentAddress
p1491
aVprovider
p1492
aVprocedureCodeableConcept
p1493
aVdiagnosisReference
p1494
aVtype
p1495
aVstatus
p1496
aVitemDate
p1497
aVaddItem
p1498
aVpatient
p1499
aVform
p1500
aVinsurer
p1501
aVfundsReserveRequested
p1502
aVoutcome
p1503
aVsupportingInfo
p1504
aVaddItemPeriod
p1505
aVitemPeriod
p1506
aVsupportingInfoString
p1507
aVprocedureReference
p1508
aVaccident
p1509
aVitemAddress
p1510
aVsupportingInfoReference
p1511
aVdisposition
p1512
aVpreAuthRefPeriod
p1513
aVsupportingInfoAttachment
p1514
aVpayment
p1515
aVpreAuthRef
p1516
aVimplicitRules
p1517
aVtotal
p1518
aVreferral
p1519
aVprescription
p1520
aVlanguage
p1521
aVextension
p1522
aVcreated
p1523
aVitemReference
p1524
aVpayee
p1525
aVsupportingInfoPeriod
p1526
aVdiagnosis
p1527
aVformCode
p1528
aVcareTeam
p1529
aVbenefitBalanceString
p1530
aVidentifier
p1531
aVprocedure
p1532
aVaddItemAddress
p1533
asVMedicinalProductPharmaceutical
p1534
(lp1535
VmodifierExtension
p1536
aVingredient
p1537
aVextension
p1538
aVlanguage
p1539
aVunitOfPresentation
p1540
aVtext
p1541
aVrouteOfAdministration
p1542
aVadministrableDoseForm
p1543
aVcontained
p1544
aVmeta
p1545
aVcharacteristics
p1546
aVdevice
p1547
aVidentifier
p1548
aVid
p1549
aVimplicitRules
p1550
asVLinkage
p1551
(lp1552
VmodifierExtension
p1553
aVextension
p1554
aVlanguage
p1555
aVauthor
p1556
aVtext
p1557
aVitem
p1558
aVcontained
p1559
aVmeta
p1560
aVactive
p1561
aVid
p1562
aVimplicitRules
p1563
asVSubscription
p1564
(lp1565
Vstatus
p1566
aVmodifierExtension
p1567
aVend
p1568
aVextension
p1569
aVlanguage
p1570
aVtext
p1571
aVerror
p1572
aVreason
p1573
aVcontact
p1574
aVcontained
p1575
aVmeta
p1576
aVcriteria
p1577
aVid
p1578
aVchannel
p1579
aVimplicitRules
p1580
asVResearchDefinition
p1581
(lp1582
Vcomment
p1583
aVpopulation
p1584
aVsubtitle
p1585
aVtext
p1586
aVjurisdiction
p1587
aVlibrary
p1588
aVtopic
p1589
aVmeta
p1590
aVreviewer
p1591
aVid
p1592
aVmodifierExtension
p1593
aVcopyright
p1594
aVtitle
p1595
aVshortTitle
p1596
aVlastReviewDate
p1597
aVcontained
p1598
aVversion
p1599
aVeditor
p1600
aVusage
p1601
aVimplicitRules
p1602
aVstatus
p1603
aVapprovalDate
p1604
aVdescription
p1605
aVexposure
p1606
aVeffectivePeriod
p1607
aVuseContext
p1608
aVpurpose
p1609
aVsubjectReference
p1610
aVdate
p1611
aVexposureAlternative
p1612
aVname
p1613
aVpublisher
p1614
aVoutcome
p1615
aVlanguage
p1616
aVextension
p1617
aVurl
p1618
aVendorser
p1619
aVauthor
p1620
aVsubjectCodeableConcept
p1621
aVcontact
p1622
aVrelatedArtifact
p1623
aVidentifier
p1624
aVexperimental
p1625
asVMedicationAdministration
p1626
(lp1627
Vperformer
p1628
aVtext
p1629
aVstatusReason
p1630
aVmeta
p1631
aVreasonCode
p1632
aVid
p1633
aVsubject
p1634
aVcategory
p1635
aVdosageQuantity
p1636
aVmodifierExtension
p1637
aVeventHistory
p1638
aVnote
p1639
aVcontained
p1640
aVmedicationCodeableConcept
p1641
aVeffectiveDateTime
p1642
aVimplicitRules
p1643
aVsupportingInformation
p1644
aVstatus
p1645
aVeffectivePeriod
p1646
aVdosageRatio
p1647
aVdevice
p1648
aVinstantiates
p1649
aVreasonReference
p1650
aVlanguage
p1651
aVextension
p1652
aVrequest
p1653
aVmedicationReference
p1654
aVcontext
p1655
aVidentifier
p1656
aVdosage
p1657
aVpartOf
p1658
asVVerificationResult
p1659
(lp1660
Vtext
p1661
aVlastPerformed
p1662
aVmeta
p1663
aVfrequency
p1664
aVneed
p1665
aVid
p1666
aVmodifierExtension
p1667
aVcontained
p1668
aVstatusDate
p1669
aVnextScheduled
p1670
aVimplicitRules
p1671
aVstatus
p1672
aVtargetLocation
p1673
aVprimarySource
p1674
aVtarget
p1675
aVlanguage
p1676
aVextension
p1677
aVvalidationProcess
p1678
aVattestation
p1679
aVvalidator
p1680
aVvalidationType
p1681
aVfailureAction
p1682
asVObservation
p1683
(lp1684
Vcode
p1685
aVinterpretation
p1686
aVhasMember
p1687
aVtext
p1688
aVeffectiveTiming
p1689
aVfocus
p1690
aVmeta
p1691
aVbodySite
p1692
aVdataAbsentReason
p1693
aVid
p1694
aVcomponentCodeableConcept
p1695
aVsubject
p1696
aVcategory
p1697
aVcomponentRange
p1698
aVmodifierExtension
p1699
aVcomponentPeriod
p1700
aVcomponentString
p1701
aVcomponentDateTime
p1702
aVperformer
p1703
aVbasedOn
p1704
aVeffectiveInstant
p1705
aVcomponentBoolean
p1706
aVnote
p1707
aVcontained
p1708
aVvalueBoolean
p1709
aVissued
p1710
aVeffectiveDateTime
p1711
aVvalueSampledData
p1712
aVmethod
p1713
aVvalueString
p1714
aVstatus
p1715
aVvalueCodeableConcept
p1716
aVcomponentSampledData
p1717
aVvalueInteger
p1718
aVderivedFrom
p1719
aVspecimen
p1720
aVeffectivePeriod
p1721
aVcomponent
p1722
aVvalueRange
p1723
aVdevice
p1724
aVvalueDateTime
p1725
aVcomponentQuantity
p1726
aVencounter
p1727
aVimplicitRules
p1728
aVcomponentRatio
p1729
aVvalueTime
p1730
aVvaluePeriod
p1731
aVlanguage
p1732
aVextension
p1733
aVcomponentTime
p1734
aVreferenceRange
p1735
aVvalueQuantity
p1736
aVvalueRatio
p1737
aVidentifier
p1738
aVpartOf
p1739
aVcomponentInteger
p1740
asVSpecimenDefinition
p1741
(lp1742
VpatientPreparation
p1743
aVtypeTestedReference
p1744
aVmodifierExtension
p1745
aVtypeCollected
p1746
aVextension
p1747
aVlanguage
p1748
aVtext
p1749
aVtimeAspect
p1750
aVcollection
p1751
aVtypeTestedString
p1752
aVtypeTestedCodeableConcept
p1753
aVcontained
p1754
aVmeta
p1755
aVtypeTestedQuantity
p1756
aVtypeTested
p1757
aVidentifier
p1758
aVid
p1759
aVimplicitRules
p1760
asVPaymentReconciliation
p1761
(lp1762
Vtext
p1763
aVperiod
p1764
aVmeta
p1765
aVprocessNote
p1766
aVid
p1767
aVmodifierExtension
p1768
aVpaymentIssuer
p1769
aVpaymentAmount
p1770
aVdetail
p1771
aVpaymentIdentifier
p1772
aVrequestor
p1773
aVcontained
p1774
aVpaymentDate
p1775
aVstatus
p1776
aVdisposition
p1777
aVimplicitRules
p1778
aVformCode
p1779
aVidentifier
p1780
aVlanguage
p1781
aVextension
p1782
aVcreated
p1783
aVrequest
p1784
aVoutcome
p1785
asVStructureMap
p1786
(lp1787
VgroupTime
p1788
aVgroupDecimal
p1789
aVgroupSignature
p1790
aVgroupString
p1791
aVgroupCodeableConcept
p1792
aVgroupDosage
p1793
aVgroupRatio
p1794
aVtext
p1795
aVgroupAddress
p1796
aVjurisdiction
p1797
aVgroupDuration
p1798
aVgroupParameterDefinition
p1799
aVmeta
p1800
aVgroupContactDetail
p1801
aVgroupUnsignedInt
p1802
aVgroupDistance
p1803
aVgroupHumanName
p1804
aVid
p1805
aVgroupTriggerDefinition
p1806
aVgroupPositiveInt
p1807
aVmodifierExtension
p1808
aVgroup
p1809
aVgroupSampledData
p1810
aVcopyright
p1811
aVtitle
p1812
aVgroupAnnotation
p1813
aVgroupUuid
p1814
aVgroupOid
p1815
aVgroupInteger
p1816
aVgroupDateTime
p1817
aVcontained
p1818
aVversion
p1819
aVgroupDate
p1820
aVgroupDataRequirement
p1821
aVgroupMarkdown
p1822
aVgroupContributor
p1823
aVimport
p1824
aVimplicitRules
p1825
aVgroupContactPoint
p1826
aVstatus
p1827
aVgroupMoney
p1828
aVgroupRange
p1829
aVgroupCoding
p1830
aVdescription
p1831
aVgroupIdentifier
p1832
aVgroupExpression
p1833
aVgroupCode
p1834
aVgroupCount
p1835
aVgroupUsageContext
p1836
aVgroupUri
p1837
aVuseContext
p1838
aVpurpose
p1839
aVgroupTiming
p1840
aVgroupBoolean
p1841
aVdate
p1842
aVgroupId
p1843
aVstructure
p1844
aVname
p1845
aVgroupRelatedArtifact
p1846
aVpublisher
p1847
aVlanguage
p1848
aVextension
p1849
aVurl
p1850
aVgroupBase64Binary
p1851
aVgroupQuantity
p1852
aVgroupAge
p1853
aVcontact
p1854
aVgroupPeriod
p1855
aVgroupReference
p1856
aVgroupCanonical
p1857
aVgroupUrl
p1858
aVidentifier
p1859
aVgroupInstant
p1860
aVexperimental
p1861
aVgroupAttachment
p1862
asVTestScript
p1863
(lp1864
Vorigin
p1865
aVprofile
p1866
aVtext
p1867
aVjurisdiction
p1868
aVfixture
p1869
aVvariable
p1870
aVmeta
p1871
aVid
p1872
aVmodifierExtension
p1873
aVcopyright
p1874
aVtitle
p1875
aVteardown
p1876
aVdestination
p1877
aVcontained
p1878
aVversion
p1879
aVtest
p1880
aVimplicitRules
p1881
aVmetadata
p1882
aVstatus
p1883
aVdescription
p1884
aVuseContext
p1885
aVpurpose
p1886
aVdate
p1887
aVname
p1888
aVpublisher
p1889
aVlanguage
p1890
aVextension
p1891
aVurl
p1892
aVsetup
p1893
aVcontact
p1894
aVidentifier
p1895
aVexperimental
p1896
asVImmunization
p1897
(lp1898
Vperformer
p1899
aVisSubpotent
p1900
aVprotocolAppliedPositiveInt
p1901
aVtext
p1902
aVsite
p1903
aVstatusReason
p1904
aVfundingSource
p1905
aVmeta
p1906
aVexpirationDate
p1907
aVreasonCode
p1908
aVeducation
p1909
aVid
p1910
aVprogramEligibility
p1911
aVmodifierExtension
p1912
aVprotocolAppliedString
p1913
aVrecorded
p1914
aVnote
p1915
aVcontained
p1916
aVlocation
p1917
aVimplicitRules
p1918
aVprotocolApplied
p1919
aVstatus
p1920
aVpatient
p1921
aVreaction
p1922
aVreportOrigin
p1923
aVoccurrenceString
p1924
aVlotNumber
p1925
aVoccurrenceDateTime
p1926
aVprimarySource
p1927
aVsubpotentReason
p1928
aVencounter
p1929
aVmanufacturer
p1930
aVdoseQuantity
p1931
aVreasonReference
p1932
aVlanguage
p1933
aVextension
p1934
aVroute
p1935
aVvaccineCode
p1936
aVidentifier
p1937
asVCommunicationRequest
p1938
(lp1939
Vtext
p1940
aVstatusReason
p1941
aVmeta
p1942
aVsender
p1943
aVreasonCode
p1944
aVpayload
p1945
aVsubject
p1946
aVcategory
p1947
aVnote
p1948
aVmodifierExtension
p1949
aVbasedOn
p1950
aVid
p1951
aVpriority
p1952
aVcontained
p1953
aVoccurrencePeriod
p1954
aVpayloadReference
p1955
aVstatus
p1956
aVmedium
p1957
aVgroupIdentifier
p1958
aVpayloadAttachment
p1959
aVauthoredOn
p1960
aVrequester
p1961
aVoccurrenceDateTime
p1962
aVrecipient
p1963
aVencounter
p1964
aVimplicitRules
p1965
aVabout
p1966
aVreplaces
p1967
aVreasonReference
p1968
aVlanguage
p1969
aVextension
p1970
aVdoNotPerform
p1971
aVpayloadString
p1972
aVidentifier
p1973
asVRequestGroup
p1974
(lp1975
Vcode
p1976
aVtext
p1977
aVactionPeriod
p1978
aVmeta
p1979
aVactionAge
p1980
aVreasonCode
p1981
aVactionDuration
p1982
aVid
p1983
aVsubject
p1984
aVnote
p1985
aVmodifierExtension
p1986
aVauthor
p1987
aVactionTiming
p1988
aVbasedOn
p1989
aVinstantiatesCanonical
p1990
aVpriority
p1991
aVcontained
p1992
aVactionDateTime
p1993
aVstatus
p1994
aVinstantiatesUri
p1995
aVgroupIdentifier
p1996
aVreplaces
p1997
aVintent
p1998
aVencounter
p1999
aVimplicitRules
p2000
aVauthoredOn
p2001
aVreasonReference
p2002
aVlanguage
p2003
aVextension
p2004
aVactionRange
p2005
aVaction
p2006
aVidentifier
p2007
asVMolecularSequence
p2008
(lp2009
Vperformer
p2010
aVtext
p2011
aVmeta
p2012
aVquality
p2013
aVid
p2014
aVreadCoverage
p2015
aVreferenceSeq
p2016
aVmodifierExtension
p2017
aVobservedSeq
p2018
aVpointer
p2019
aVcoordinateSystem
p2020
aVcontained
p2021
aVtype
p2022
aVpatient
p2023
aVrepository
p2024
aVspecimen
p2025
aVvariant
p2026
aVdevice
p2027
aVimplicitRules
p2028
aVlanguage
p2029
aVextension
p2030
aVstructureVariant
p2031
aVidentifier
p2032
aVquantity
p2033
asVValueSet
p2034
(lp2035
VexpansionCode
p2036
aVtext
p2037
aVjurisdiction
p2038
aVexpansionDateTime
p2039
aVmeta
p2040
aVexpansionDecimal
p2041
aVexpansionString
p2042
aVid
p2043
aVmodifierExtension
p2044
aVexpansionBoolean
p2045
aVcopyright
p2046
aVtitle
p2047
aVcontained
p2048
aVversion
p2049
aVimplicitRules
p2050
aVimmutable
p2051
aVstatus
p2052
aVdescription
p2053
aVexpansion
p2054
aVcompose
p2055
aVuseContext
p2056
aVpurpose
p2057
aVdate
p2058
aVname
p2059
aVpublisher
p2060
aVlanguage
p2061
aVextension
p2062
aVexpansionInteger
p2063
aVurl
p2064
aVcontact
p2065
aVexpansionUri
p2066
aVidentifier
p2067
aVexperimental
p2068
asVMedication
p2069
(lp2070
Vcode
p2071
aVstatus
p2072
aVmodifierExtension
p2073
aVingredient
p2074
aVextension
p2075
aVlanguage
p2076
aVtext
p2077
aVamount
p2078
aVingredientCodeableConcept
p2079
aVbatch
p2080
aVcontained
p2081
aVmeta
p2082
aVform
p2083
aVingredientReference
p2084
aVidentifier
p2085
aVid
p2086
aVmanufacturer
p2087
aVimplicitRules
p2088
asVAdverseEvent
p2089
(lp2090
Vtext
p2091
aVmeta
p2092
aVcontributor
p2093
aVevent
p2094
aVsubject
p2095
aVcategory
p2096
aVresultingCondition
p2097
aVmodifierExtension
p2098
aVseverity
p2099
aVcontained
p2100
aVid
p2101
aVdetected
p2102
aVlocation
p2103
aVsuspectEntity
p2104
aVrecorder
p2105
aVactuality
p2106
aVreferenceDocument
p2107
aVseriousness
p2108
aVrecordedDate
p2109
aVdate
p2110
aVencounter
p2111
aVimplicitRules
p2112
aVidentifier
p2113
aVlanguage
p2114
aVextension
p2115
aVstudy
p2116
aVsubjectMedicalHistory
p2117
aVoutcome
p2118
asVEvidenceVariable
p2119
(lp2120
Vsubtitle
p2121
aVcharacteristicDataRequirement
p2122
aVtext
p2123
aVjurisdiction
p2124
aVcharacteristicCodeableConcept
p2125
aVtopic
p2126
aVmeta
p2127
aVreviewer
p2128
aVid
p2129
aVmodifierExtension
p2130
aVcopyright
p2131
aVtitle
p2132
aVshortTitle
p2133
aVlastReviewDate
p2134
aVnote
p2135
aVcontained
p2136
aVversion
p2137
aVeditor
p2138
aVcharacteristicDateTime
p2139
aVcharacteristicTiming
p2140
aVcharacteristicReference
p2141
aVimplicitRules
p2142
aVtype
p2143
aVstatus
p2144
aVapprovalDate
p2145
aVdescription
p2146
aVcharacteristicPeriod
p2147
aVeffectivePeriod
p2148
aVuseContext
p2149
aVcharacteristicTriggerDefinition
p2150
aVcharacteristicDuration
p2151
aVdate
p2152
aVname
p2153
aVcharacteristicCanonical
p2154
aVpublisher
p2155
aVlanguage
p2156
aVextension
p2157
aVurl
p2158
aVcharacteristic
p2159
aVendorser
p2160
aVauthor
p2161
aVcharacteristicExpression
p2162
aVcontact
p2163
aVrelatedArtifact
p2164
aVidentifier
p2165
asVPractitionerRole
p2166
(lp2167
Vcode
p2168
aVtelecom
p2169
aVtext
p2170
aVperiod
p2171
aVactive
p2172
aVmeta
p2173
aVid
p2174
aVmodifierExtension
p2175
aVavailabilityExceptions
p2176
aVcontained
p2177
aVlocation
p2178
aVpractitioner
p2179
aVavailableTime
p2180
aVspecialty
p2181
aVnotAvailable
p2182
aVimplicitRules
p2183
aVendpoint
p2184
aVlanguage
p2185
aVextension
p2186
aVhealthcareService
p2187
aVorganization
p2188
aVidentifier
p2189
asVCommunication
p2190
(lp2191
Vtext
p2192
aVstatusReason
p2193
aVtopic
p2194
aVmeta
p2195
aVreasonCode
p2196
aVid
p2197
aVsubject
p2198
aVcategory
p2199
aVnote
p2200
aVmodifierExtension
p2201
aVinResponseTo
p2202
aVbasedOn
p2203
aVinstantiatesCanonical
p2204
aVpayload
p2205
aVpriority
p2206
aVcontained
p2207
aVpayloadReference
p2208
aVsent
p2209
aVstatus
p2210
aVmedium
p2211
aVinstantiatesUri
p2212
aVpayloadAttachment
p2213
aVrecipient
p2214
aVencounter
p2215
aVimplicitRules
p2216
aVreceived
p2217
aVabout
p2218
aVsender
p2219
aVreasonReference
p2220
aVlanguage
p2221
aVextension
p2222
aVpayloadString
p2223
aVidentifier
p2224
aVpartOf
p2225
asVCapabilityStatement
p2226
(lp2227
VpatchFormat
p2228
aVtext
p2229
aVjurisdiction
p2230
aVrest
p2231
aVinstantiates
p2232
aVmeta
p2233
aVimplementationGuide
p2234
aVid
p2235
aVmodifierExtension
p2236
aVcopyright
p2237
aVtitle
p2238
aVimplementation
p2239
aVcontained
p2240
aVversion
p2241
aVimports
p2242
aVimplicitRules
p2243
aVstatus
p2244
aVdescription
p2245
aVfhirVersion
p2246
aVformat
p2247
aVuseContext
p2248
aVpurpose
p2249
aVdate
p2250
aVname
p2251
aVpublisher
p2252
aVkind
p2253
aVdocument
p2254
aVlanguage
p2255
aVextension
p2256
aVurl
p2257
aVcontact
p2258
aVmessaging
p2259
aVexperimental
p2260
aVsoftware
p2261
asVEvidence
p2262
(lp2263
Vsubtitle
p2264
aVtext
p2265
aVjurisdiction
p2266
aVtopic
p2267
aVmeta
p2268
aVreviewer
p2269
aVid
p2270
aVmodifierExtension
p2271
aVcopyright
p2272
aVtitle
p2273
aVshortTitle
p2274
aVlastReviewDate
p2275
aVnote
p2276
aVcontained
p2277
aVversion
p2278
aVeditor
p2279
aVimplicitRules
p2280
aVstatus
p2281
aVapprovalDate
p2282
aVdescription
p2283
aVeffectivePeriod
p2284
aVuseContext
p2285
aVdate
p2286
aVexposureBackground
p2287
aVname
p2288
aVpublisher
p2289
aVoutcome
p2290
aVlanguage
p2291
aVextension
p2292
aVurl
p2293
aVendorser
p2294
aVauthor
p2295
aVexposureVariant
p2296
aVcontact
p2297
aVrelatedArtifact
p2298
aVidentifier
p2299
asVSubstancePolymer
p2300
(lp2301
VcopolymerConnectivity
p2302
aVmodifierExtension
p2303
aVextension
p2304
aVlanguage
p2305
aVgeometry
p2306
aVtext
p2307
aVclass
p2308
aVcontained
p2309
aVmeta
p2310
aVmodification
p2311
aVmonomerSet
p2312
aVid
p2313
aVrepeat
p2314
aVimplicitRules
p2315
asVFamilyMemberHistory
p2316
(lp2317
Vnote
p2318
aVdeceasedAge
p2319
aVconditionString
p2320
aVtext
p2321
aVdeceasedDate
p2322
aVsex
p2323
aVmeta
p2324
aVreasonCode
p2325
aVdeceasedRange
p2326
aVpatient
p2327
aVdataAbsentReason
p2328
aVid
p2329
aVbornDate
p2330
aVmodifierExtension
p2331
aVbornString
p2332
aVdeceasedString
p2333
aVinstantiatesCanonical
p2334
aVestimatedAge
p2335
aVbornPeriod
p2336
aVcontained
p2337
aVimplicitRules
p2338
aVstatus
p2339
aVconditionPeriod
p2340
aVinstantiatesUri
p2341
aVrelationship
p2342
aVconditionRange
p2343
aVageRange
p2344
aVdate
p2345
aVcondition
p2346
aVname
p2347
aVageString
p2348
aVreasonReference
p2349
aVlanguage
p2350
aVextension
p2351
aVconditionAge
p2352
aVdeceasedBoolean
p2353
aVageAge
p2354
aVidentifier
p2355
asVSubstanceSpecification
p2356
(lp2357
Vcomment
p2358
aVpolymer
p2359
aVdomain
p2360
aVpropertyReference
p2361
aVmoietyString
p2362
aVtext
p2363
aVreferenceInformation
p2364
aVmoietyQuantity
p2365
aVmeta
p2366
aVrelationshipString
p2367
aVnucleicAcid
p2368
aVprotein
p2369
aVmoiety
p2370
aVcode
p2371
aVmodifierExtension
p2372
aVpropertyQuantity
p2373
aVmolecularWeight
p2374
aVid
p2375
aVsource
p2376
aVcontained
p2377
aVpropertyCodeableConcept
p2378
aVtype
p2379
aVstatus
p2380
aVdescription
p2381
aVname
p2382
aVrelationshipRange
p2383
aVrelationship
p2384
aVstructure
p2385
aVimplicitRules
p2386
aVidentifier
p2387
aVlanguage
p2388
aVextension
p2389
aVrelationshipReference
p2390
aVpropertyString
p2391
aVrelationshipRatio
p2392
aVrelationshipQuantity
p2393
aVrelationshipCodeableConcept
p2394
aVproperty
p2395
aVsourceMaterial
p2396
asVSubstanceNucleicAcid
p2397
(lp2398
VmodifierExtension
p2399
aVextension
p2400
aVlanguage
p2401
aVtext
p2402
aVnumberOfSubunits
p2403
aVareaOfHybridisation
p2404
aVcontained
p2405
aVmeta
p2406
aVsubunit
p2407
aVoligoNucleotideType
p2408
aVsequenceType
p2409
aVid
p2410
aVimplicitRules
p2411
asVBinary
p2412
(lp2413
VsecurityContext
p2414
aVlanguage
p2415
aVmeta
p2416
aVcontentType
p2417
aVdata
p2418
aVid
p2419
aVimplicitRules
p2420
asVGroup
p2421
(lp2422
VcharacteristicBoolean
p2423
aVcode
p2424
aVtext
p2425
aVmeta
p2426
aVid
p2427
aVmodifierExtension
p2428
aVcharacteristicCodeableConcept
p2429
aVmember
p2430
aVcontained
p2431
aVcharacteristicReference
p2432
aVimplicitRules
p2433
aVtype
p2434
aVcharacteristicRange
p2435
aVmanagingEntity
p2436
aVactive
p2437
aVname
p2438
aVactual
p2439
aVlanguage
p2440
aVextension
p2441
aVcharacteristic
p2442
aVidentifier
p2443
aVcharacteristicQuantity
p2444
aVquantity
p2445
asVRiskAssessment
p2446
(lp2447
Vcode
p2448
aVtext
p2449
aVprediction
p2450
aVmeta
p2451
aVpredictionPeriod
p2452
aVreasonCode
p2453
aVid
p2454
aVsubject
p2455
aVmodifierExtension
p2456
aVbasis
p2457
aVperformer
p2458
aVbasedOn
p2459
aVnote
p2460
aVcontained
p2461
aVmitigation
p2462
aVoccurrencePeriod
p2463
aVencounter
p2464
aVpredictionRange
p2465
aVmethod
p2466
aVstatus
p2467
aVparent
p2468
aVpredictionDecimal
p2469
aVoccurrenceDateTime
p2470
aVcondition
p2471
aVimplicitRules
p2472
aVreasonReference
p2473
aVlanguage
p2474
aVextension
p2475
aVidentifier
p2476
asVImagingStudy
p2477
(lp2478
Vtext
p2479
aVprocedureReference
p2480
aVnumberOfInstances
p2481
aVmeta
p2482
aVnumberOfSeries
p2483
aVreasonCode
p2484
aVinterpreter
p2485
aVmodality
p2486
aVsubject
p2487
aVmodifierExtension
p2488
aVbasedOn
p2489
aVid
p2490
aVnote
p2491
aVprocedureCode
p2492
aVcontained
p2493
aVlocation
p2494
aVseries
p2495
aVstatus
p2496
aVdescription
p2497
aVstarted
p2498
aVencounter
p2499
aVimplicitRules
p2500
aVendpoint
p2501
aVreasonReference
p2502
aVlanguage
p2503
aVextension
p2504
aVreferrer
p2505
aVidentifier
p2506
asVDeviceRequest
p2507
(lp2508
VcodeReference
p2509
aVtext
p2510
aVrelevantHistory
p2511
aVparameterRange
p2512
aVmeta
p2513
aVreasonCode
p2514
aVpriorRequest
p2515
aVid
p2516
aVsubject
p2517
aVnote
p2518
aVmodifierExtension
p2519
aVperformer
p2520
aVbasedOn
p2521
aVinstantiatesCanonical
p2522
aVinsurance
p2523
aVpriority
p2524
aVcontained
p2525
aVoccurrencePeriod
p2526
aVparameterBoolean
p2527
aVparameter
p2528
aVstatus
p2529
aVcodeCodeableConcept
p2530
aVinstantiatesUri
p2531
aVgroupIdentifier
p2532
aVparameterQuantity
p2533
aVsupportingInfo
p2534
aVparameterCodeableConcept
p2535
aVintent
p2536
aVrequester
p2537
aVoccurrenceDateTime
p2538
aVencounter
p2539
aVimplicitRules
p2540
aVauthoredOn
p2541
aVreasonReference
p2542
aVlanguage
p2543
aVextension
p2544
aVperformerType
p2545
aVoccurrenceTiming
p2546
aVidentifier
p2547
asVGuidanceResponse
p2548
(lp2549
Vperformer
p2550
aVtext
p2551
aVmoduleCanonical
p2552
aVmeta
p2553
aVresult
p2554
aVreasonCode
p2555
aVid
p2556
aVsubject
p2557
aVmodifierExtension
p2558
aVnote
p2559
aVcontained
p2560
aVimplicitRules
p2561
aVrequestIdentifier
p2562
aVstatus
p2563
aVoutputParameters
p2564
aVdataRequirement
p2565
aVevaluationMessage
p2566
aVoccurrenceDateTime
p2567
aVmoduleCodeableConcept
p2568
aVencounter
p2569
aVmoduleUri
p2570
aVreasonReference
p2571
aVlanguage
p2572
aVextension
p2573
aVidentifier
p2574
asVBasic
p2575
(lp2576
Vcode
p2577
aVmodifierExtension
p2578
aVextension
p2579
aVlanguage
p2580
aVcreated
p2581
aVtext
p2582
aVauthor
p2583
aVsubject
p2584
aVcontained
p2585
aVmeta
p2586
aVidentifier
p2587
aVid
p2588
aVimplicitRules
p2589
asVBiologicallyDerivedProduct
p2590
(lp2591
Vtext
p2592
aVmanipulationDateTime
p2593
aVmeta
p2594
aVcollectionDateTime
p2595
aVid
p2596
aVproductCode
p2597
aVmodifierExtension
p2598
aVcollectionPeriod
p2599
aVstorage
p2600
aVproductCategory
p2601
aVcontained
p2602
aVstatus
p2603
aVparent
p2604
aVmanipulationPeriod
p2605
aVprocessing
p2606
aVcollection
p2607
aVprocessingDateTime
p2608
aVprocessingPeriod
p2609
aVmanipulation
p2610
aVimplicitRules
p2611
aVlanguage
p2612
aVextension
p2613
aVrequest
p2614
aVidentifier
p2615
aVquantity
p2616
asVNutritionOrder
p2617
(lp2618
VenteralFormula
p2619
aVtext
p2620
aVorderer
p2621
aVmeta
p2622
aVpatient
p2623
aVid
p2624
aVmodifierExtension
p2625
aVenteralFormulaQuantity
p2626
aVfoodPreferenceModifier
p2627
aVinstantiatesCanonical
p2628
aVnote
p2629
aVcontained
p2630
aVenteralFormulaRatio
p2631
aVimplicitRules
p2632
aVexcludeFoodModifier
p2633
aVstatus
p2634
aVinstantiatesUri
p2635
aVintent
p2636
aVoralDiet
p2637
aVencounter
p2638
aVinstantiates
p2639
aVlanguage
p2640
aVextension
p2641
aVdateTime
p2642
aVsupplement
p2643
aVallergyIntolerance
p2644
aVidentifier
p2645
asVAppointment
p2646
(lp2647
Vcomment
p2648
aVserviceCategory
p2649
aVtext
p2650
aVmeta
p2651
aVreasonCode
p2652
aVid
p2653
aVslot
p2654
aVmodifierExtension
p2655
aVend
p2656
aVbasedOn
p2657
aVpriority
p2658
aVstart
p2659
aVcontained
p2660
aVcancelationReason
p2661
aVrequestedPeriod
p2662
aVsupportingInformation
p2663
aVstatus
p2664
aVserviceType
p2665
aVdescription
p2666
aVspecialty
p2667
aVminutesDuration
p2668
aVparticipant
p2669
aVimplicitRules
p2670
aVpatientInstruction
p2671
aVreasonReference
p2672
aVlanguage
p2673
aVextension
p2674
aVcreated
p2675
aVappointmentType
p2676
aVidentifier
p2677
asVOperationOutcome
p2678
(lp2679
VmodifierExtension
p2680
aVextension
p2681
aVlanguage
p2682
aVtext
p2683
aVcontained
p2684
aVmeta
p2685
aVissue
p2686
aVid
p2687
aVimplicitRules
p2688
asVBundle
p2689
(lp2690
Vtotal
p2691
aVlanguage
p2692
aVtimestamp
p2693
aVmeta
p2694
aVlink
p2695
aVsignature
p2696
aVentry
p2697
aVidentifier
p2698
aVtype
p2699
aVid
p2700
aVimplicitRules
p2701
asVCoverage
p2702
(lp2703
Vpayor
p2704
aVtext
p2705
aVperiod
p2706
aVmeta
p2707
aVcontract
p2708
aVsubscriberId
p2709
aVsubscriber
p2710
aVmodifierExtension
p2711
aVnetwork
p2712
aVid
p2713
aVbeneficiary
p2714
aVcontained
p2715
aVtype
p2716
aVcostToBeneficiary
p2717
aVstatus
p2718
aVrelationship
p2719
aVdependent
p2720
aVcostToBeneficiaryMoney
p2721
aVcostToBeneficiaryQuantity
p2722
aVpolicyHolder
p2723
aVclass
p2724
aVimplicitRules
p2725
aVlanguage
p2726
aVextension
p2727
aVsubrogation
p2728
aVidentifier
p2729
aVorder
p2730
asVMedicinalProductPackaged
p2731
(lp2732
VmodifierExtension
p2733
aVextension
p2734
aVlanguage
p2735
aVbatchIdentifier
p2736
aVtext
p2737
aVdescription
p2738
aVsubject
p2739
aVcontained
p2740
aVmeta
p2741
aVpackageItem
p2742
aVmarketingAuthorization
p2743
aVmarketingStatus
p2744
aVidentifier
p2745
aVlegalStatusOfSupply
p2746
aVid
p2747
aVmanufacturer
p2748
aVimplicitRules
p2749
asVDevice
p2750
(lp2751
VdeviceName
p2752
aVtext
p2753
aVstatusReason
p2754
aVmeta
p2755
aVexpirationDate
p2756
aVowner
p2757
aVdistinctIdentifier
p2758
aVparent
p2759
aVmodifierExtension
p2760
aVspecialization
p2761
aVid
p2762
aVnote
p2763
aVcontained
p2764
aVversion
p2765
aVsafety
p2766
aVcontact
p2767
aVimplicitRules
p2768
aVtype
p2769
aVlocation
p2770
aVstatus
p2771
aVpatient
p2772
aVudiCarrier
p2773
aVlotNumber
p2774
aVmanufacturer
p2775
aVdefinition
p2776
aVproperty
p2777
aVlanguage
p2778
aVextension
p2779
aVurl
p2780
aVserialNumber
p2781
aVmanufactureDate
p2782
aVmodelNumber
p2783
aVpartNumber
p2784
aVidentifier
p2785
asVCondition
p2786
(lp2787
Vcode
p2788
aVabatementRange
p2789
aVonsetString
p2790
aVtext
p2791
aVonsetDateTime
p2792
aVclinicalStatus
p2793
aVonsetPeriod
p2794
aVmeta
p2795
aVbodySite
p2796
aVonsetRange
p2797
aVabatementPeriod
p2798
aVonsetAge
p2799
aVid
p2800
aVsubject
p2801
aVcategory
p2802
aVmodifierExtension
p2803
aVseverity
p2804
aVnote
p2805
aVcontained
p2806
aVrecorder
p2807
aVstage
p2808
aVevidence
p2809
aVabatementString
p2810
aVrecordedDate
p2811
aVabatementDateTime
p2812
aVasserter
p2813
aVencounter
p2814
aVimplicitRules
p2815
aVlanguage
p2816
aVextension
p2817
aVabatementAge
p2818
aVidentifier
p2819
aVverificationStatus
p2820
asVCoverageEligibilityResponse
p2821
(lp2822
VinsuranceUnsignedInt
p2823
aVtext
p2824
aVmeta
p2825
aVinsurance
p2826
aVmodifierExtension
p2827
aVid
p2828
aVrequestor
p2829
aVcontained
p2830
aVinsuranceMoney
p2831
aVstatus
p2832
aVpatient
p2833
aVform
p2834
aVinsurer
p2835
aVpurpose
p2836
aVdisposition
p2837
aVpreAuthRef
p2838
aVimplicitRules
p2839
aVidentifier
p2840
aVlanguage
p2841
aVextension
p2842
aVcreated
p2843
aVrequest
p2844
aVservicedDate
p2845
aVinsuranceString
p2846
aVservicedPeriod
p2847
aVerror
p2848
aVoutcome
p2849
asVOrganizationAffiliation
p2850
(lp2851
Vcode
p2852
aVparticipatingOrganization
p2853
aVmodifierExtension
p2854
aVextension
p2855
aVlanguage
p2856
aVtelecom
p2857
aVtext
p2858
aVendpoint
p2859
aVperiod
p2860
aVspecialty
p2861
aVnetwork
p2862
aVcontained
p2863
aVmeta
p2864
aVlocation
p2865
aVhealthcareService
p2866
aVactive
p2867
aVorganization
p2868
aVidentifier
p2869
aVid
p2870
aVimplicitRules
p2871
asVMedicinalProduct
p2872
(lp2873
Vdomain
p2874
aVtext
p2875
aVmeta
p2876
aVcombinedPharmaceuticalDoseForm
p2877
aVtype
p2878
aVpharmaceuticalProduct
p2879
aVmasterFile
p2880
aVid
p2881
aVmodifierExtension
p2882
aVname
p2883
aVclinicalTrial
p2884
aVcontained
p2885
aVspecialDesignation
p2886
aVpaediatricUseIndicator
p2887
aVcrossReference
p2888
aVlegalStatusOfSupply
p2889
aVspecialDesignationCodeableConcept
p2890
aVproductClassification
p2891
aVspecialDesignationReference
p2892
aVimplicitRules
p2893
aVlanguage
p2894
aVextension
p2895
aVpackagedMedicinalProduct
p2896
aVspecialMeasures
p2897
aVcontact
p2898
aVmanufacturingBusinessOperation
p2899
aVmarketingStatus
p2900
aVadditionalMonitoringIndicator
p2901
aVidentifier
p2902
aVattachedDocument
p2903
asVDeviceUseStatement
p2904
(lp2905
VtimingPeriod
p2906
aVtext
p2907
aVmeta
p2908
aVbodySite
p2909
aVreasonCode
p2910
aVid
p2911
aVsubject
p2912
aVmodifierExtension
p2913
aVtimingTiming
p2914
aVbasedOn
p2915
aVnote
p2916
aVsource
p2917
aVcontained
p2918
aVstatus
p2919
aVderivedFrom
p2920
aVrecordedOn
p2921
aVdevice
p2922
aVimplicitRules
p2923
aVreasonReference
p2924
aVlanguage
p2925
aVextension
p2926
aVtimingDateTime
p2927
aVidentifier
p2928
asVSubstanceSourceMaterial
p2929
(lp2930
VmodifierExtension
p2931
aVextension
p2932
aVlanguage
p2933
aVorganismName
p2934
aVcountryOfOrigin
p2935
aVtext
p2936
aVfractionDescription
p2937
aVparentSubstanceName
p2938
aVgeographicalLocation
p2939
aVparentSubstanceId
p2940
aVorganismId
p2941
aVcontained
p2942
aVmeta
p2943
aVsourceMaterialState
p2944
aVdevelopmentStage
p2945
aVsourceMaterialType
p2946
aVsourceMaterialClass
p2947
aVorganism
p2948
aVid
p2949
aVpartDescription
p2950
aVimplicitRules
p2951
asVDetectedIssue
p2952
(lp2953
Vstatus
p2954
aVmodifierExtension
p2955
aVpatient
p2956
aVextension
p2957
aVlanguage
p2958
aVcode
p2959
aVreference
p2960
aVtext
p2961
aVdetail
p2962
aVauthor
p2963
aVidentifiedPeriod
p2964
aVidentifiedDateTime
p2965
aVseverity
p2966
aVcontained
p2967
aVmeta
p2968
aVmitigation
p2969
aVimplicated
p2970
aVidentifier
p2971
aVid
p2972
aVevidence
p2973
aVimplicitRules
p2974
asVChargeItem
p2975
(lp2976
Vcode
p2977
aVtext
p2978
aVproductCodeableConcept
p2979
aVmeta
p2980
aVpriceOverride
p2981
aVid
p2982
aVsubject
p2983
aVdefinitionCanonical
p2984
aVmodifierExtension
p2985
aVrequestingOrganization
p2986
aVperformer
p2987
aVnote
p2988
aVcontained
p2989
aVoccurrencePeriod
p2990
aVbodysite
p2991
aVcostCenter
p2992
aVsupportingInformation
p2993
aVstatus
p2994
aVproductReference
p2995
aVperformingOrganization
p2996
aVdefinitionUri
p2997
aVreason
p2998
aVenterer
p2999
aVoccurrenceDateTime
p3000
aVimplicitRules
p3001
aVservice
p3002
aVaccount
p3003
aVlanguage
p3004
aVextension
p3005
aVfactorOverride
p3006
aVoverrideReason
p3007
aVoccurrenceTiming
p3008
aVcontext
p3009
aVenteredDate
p3010
aVidentifier
p3011
aVpartOf
p3012
aVquantity
p3013
asVContract
p3014
(lp3015
Vdomain
p3016
aVlegallyBindingReference
p3017
aVsubtitle
p3018
aVtermTiming
p3019
aVtext
p3020
aVruleAttachment
p3021
aVexpirationType
p3022
aVsite
p3023
aVauthority
p3024
aVtermInteger
p3025
aVsubType
p3026
aVmeta
p3027
aVlegal
p3028
aVlegalReference
p3029
aVtermDate
p3030
aVtermPeriod
p3031
aVid
p3032
aVsubject
p3033
aVtopicCodeableConcept
p3034
aVmodifierExtension
p3035
aVtitle
p3036
aVtermDecimal
p3037
aVtermDateTime
p3038
aVinstantiatesCanonical
p3039
aVname
p3040
aVtermReference
p3041
aVcontained
p3042
aVversion
p3043
aVfriendlyReference
p3044
aVissued
p3045
aVscope
p3046
aVtermUri
p3047
aVtype
p3048
aVfriendly
p3049
aVruleReference
p3050
aVstatus
p3051
aVtermCoding
p3052
aVinstantiatesUri
p3053
aVtermBoolean
p3054
aVtopicReference
p3055
aVtermAttachment
p3056
aVfriendlyAttachment
p3057
aVsupportingInfo
p3058
aVrelevantHistory
p3059
aVlegalAttachment
p3060
aVtermQuantity
p3061
aVcontentDefinition
p3062
aVtermTime
p3063
aVlegallyBindingAttachment
p3064
aVimplicitRules
p3065
aVcontentDerivative
p3066
aVterm
p3067
aVlanguage
p3068
aVextension
p3069
aVurl
p3070
aVtermCodeableConcept
p3071
aVauthor
p3072
aVlegalState
p3073
aVrule
p3074
aValias
p3075
aVtermString
p3076
aVapplies
p3077
aVsigner
p3078
aVidentifier
p3079
asVPerson
p3080
(lp3081
VmanagingOrganization
p3082
aVmodifierExtension
p3083
aVphoto
p3084
aVextension
p3085
aVlanguage
p3086
aVtelecom
p3087
aVtext
p3088
aVaddress
p3089
aVbirthDate
p3090
aVname
p3091
aVcontained
p3092
aVmeta
p3093
aVlink
p3094
aVgender
p3095
aVactive
p3096
aVidentifier
p3097
aVid
p3098
aVimplicitRules
p3099
asVDocumentReference
p3100
(lp3101
Vtext
p3102
aVmeta
p3103
aVsecurityLabel
p3104
aVid
p3105
aVsubject
p3106
aVcategory
p3107
aVmodifierExtension
p3108
aVauthor
p3109
aVcontent
p3110
aVcontained
p3111
aVtype
p3112
aVstatus
p3113
aVdescription
p3114
aVmasterIdentifier
p3115
aVcustodian
p3116
aVrelatesTo
p3117
aVauthenticator
p3118
aVdate
p3119
aVdocStatus
p3120
aVimplicitRules
p3121
aVlanguage
p3122
aVextension
p3123
aVcontext
p3124
aVidentifier
p3125
asVProcedure
p3126
(lp3127
VperformedPeriod
p3128
aVcode
p3129
aVusedCode
p3130
aVtext
p3131
aVstatusReason
p3132
aVperformedRange
p3133
aVmeta
p3134
aVbodySite
p3135
aVreasonCode
p3136
aVid
p3137
aVsubject
p3138
aVcategory
p3139
aVperformedAge
p3140
aVcomplication
p3141
aVmodifierExtension
p3142
aVperformer
p3143
aVbasedOn
p3144
aVinstantiatesCanonical
p3145
aVnote
p3146
aVcontained
p3147
aVlocation
p3148
aVrecorder
p3149
aVcomplicationDetail
p3150
aVstatus
p3151
aVfollowUp
p3152
aVusedReference
p3153
aVinstantiatesUri
p3154
aVperformedString
p3155
aVfocalDevice
p3156
aVreport
p3157
aVasserter
p3158
aVencounter
p3159
aVimplicitRules
p3160
aVoutcome
p3161
aVreasonReference
p3162
aVlanguage
p3163
aVextension
p3164
aVperformedDateTime
p3165
aVidentifier
p3166
aVpartOf
p3167
asVClaim
p3168
(lp3169
VdiagnosisCodeableConcept
p3170
aVsupportingInfoDate
p3171
aVfacility
p3172
aVtext
p3173
aVoriginalPrescription
p3174
aVrelated
p3175
aVfundsReserve
p3176
aVsubType
p3177
aVmeta
p3178
aVbillablePeriod
p3179
aVaccidentReference
p3180
aVid
p3181
aVitemCodeableConcept
p3182
aVuse
p3183
aVmodifierExtension
p3184
aVitem
p3185
aVenterer
p3186
aVsupportingInfoQuantity
p3187
aVinsurance
p3188
aVpriority
p3189
aVcontained
p3190
aVsupportingInfoBoolean
p3191
aVaccidentAddress
p3192
aVprovider
p3193
aVprocedureCodeableConcept
p3194
aVdiagnosisReference
p3195
aVtype
p3196
aVstatus
p3197
aVitemDate
p3198
aVpatient
p3199
aVinsurer
p3200
aVprocedureReference
p3201
aVsupportingInfo
p3202
aVitemPeriod
p3203
aVsupportingInfoString
p3204
aVaccident
p3205
aVitemAddress
p3206
aVsupportingInfoReference
p3207
aVsupportingInfoAttachment
p3208
aVimplicitRules
p3209
aVtotal
p3210
aVreferral
p3211
aVprescription
p3212
aVlanguage
p3213
aVextension
p3214
aVcreated
p3215
aVitemReference
p3216
aVpayee
p3217
aVsupportingInfoPeriod
p3218
aVdiagnosis
p3219
aVcareTeam
p3220
aVidentifier
p3221
aVprocedure
p3222
asVOperationDefinition
p3223
(lp3224
Vcomment
p3225
aVcode
p3226
aVtext
p3227
aVjurisdiction
p3228
aVmeta
p3229
aVinputProfile
p3230
aVid
p3231
aVmodifierExtension
p3232
aVtitle
p3233
aVsystem
p3234
aVoverload
p3235
aVinstance
p3236
aVcontained
p3237
aVversion
p3238
aVaffectsState
p3239
aVimplicitRules
p3240
aVtype
p3241
aVstatus
p3242
aVdescription
p3243
aVoutputProfile
p3244
aVbase
p3245
aVuseContext
p3246
aVpurpose
p3247
aVdate
p3248
aVname
p3249
aVpublisher
p3250
aVkind
p3251
aVresource
p3252
aVlanguage
p3253
aVextension
p3254
aVurl
p3255
aVparameter
p3256
aVcontact
p3257
aVexperimental
p3258
asVMedicationKnowledge
p3259
(lp3260
Vcode
p3261
aVadministrationGuidelinesQuantity
p3262
aVtext
p3263
aVpackaging
p3264
aVdoseForm
p3265
aVrelatedMedicationKnowledge
p3266
aVmeta
p3267
aVid
p3268
aVcontraindication
p3269
aVmodifierExtension
p3270
aVcontained
p3271
aVdrugCharacteristicQuantity
p3272
aVingredientReference
p3273
aVintendedRoute
p3274
aVadministrationGuidelinesReference
p3275
aVimplicitRules
p3276
aVdrugCharacteristicBase64Binary
p3277
aVingredient
p3278
aVstatus
p3279
aVdrugCharacteristic
p3280
aVingredientCodeableConcept
p3281
aVadministrationGuidelinesCodeableConcept
p3282
aVregulatory
p3283
aVmonitoringProgram
p3284
aVmanufacturer
p3285
aVdrugCharacteristicString
p3286
aVdrugCharacteristicCodeableConcept
p3287
aVsynonym
p3288
aVlanguage
p3289
aVextension
p3290
aVkinetics
p3291
aVmedicineClassification
p3292
aVamount
p3293
aVcost
p3294
aVproductType
p3295
aVpreparationInstruction
p3296
aVadministrationGuidelines
p3297
aVmonograph
p3298
aVassociatedMedication
p3299
asVDiagnosticReport
p3300
(lp3301
Vcode
p3302
aVtext
p3303
aVperformer
p3304
aVconclusionCode
p3305
aVresult
p3306
aVresultsInterpreter
p3307
aVid
p3308
aVsubject
p3309
aVcategory
p3310
aVmodifierExtension
p3311
aVmedia
p3312
aVbasedOn
p3313
aVcontained
p3314
aVissued
p3315
aVeffectiveDateTime
p3316
aVconclusion
p3317
aVstatus
p3318
aVspecimen
p3319
aVeffectivePeriod
p3320
aVpresentedForm
p3321
aVencounter
p3322
aVimplicitRules
p3323
aVlanguage
p3324
aVextension
p3325
aVimagingStudy
p3326
aVmeta
p3327
aVidentifier
p3328
asVLibrary
p3329
(lp3330
Vsubtitle
p3331
aVtext
p3332
aVjurisdiction
p3333
aVtopic
p3334
aVmeta
p3335
aVreviewer
p3336
aVid
p3337
aVmodifierExtension
p3338
aVcopyright
p3339
aVtitle
p3340
aVlastReviewDate
p3341
aVcontent
p3342
aVcontained
p3343
aVversion
p3344
aVeditor
p3345
aVusage
p3346
aVimplicitRules
p3347
aVtype
p3348
aVstatus
p3349
aVapprovalDate
p3350
aVdescription
p3351
aVeffectivePeriod
p3352
aVdataRequirement
p3353
aVuseContext
p3354
aVpurpose
p3355
aVsubjectReference
p3356
aVdate
p3357
aVname
p3358
aVpublisher
p3359
aVlanguage
p3360
aVextension
p3361
aVurl
p3362
aVparameter
p3363
aVendorser
p3364
aVauthor
p3365
aVsubjectCodeableConcept
p3366
aVcontact
p3367
aVrelatedArtifact
p3368
aVidentifier
p3369
aVexperimental
p3370
asVSubstanceProtein
p3371
(lp3372
VmodifierExtension
p3373
aVextension
p3374
aVlanguage
p3375
aVtext
p3376
aVnumberOfSubunits
p3377
aVcontained
p3378
aVmeta
p3379
aVsubunit
p3380
aVdisulfideLinkage
p3381
aVsequenceType
p3382
aVid
p3383
aVimplicitRules
p3384
asVStructureDefinition
p3385
(lp3386
Vtext
p3387
aVabstract
p3388
aVjurisdiction
p3389
aVmeta
p3390
aVkeyword
p3391
aVid
p3392
aVmodifierExtension
p3393
aVcopyright
p3394
aVtitle
p3395
aVcontained
p3396
aVversion
p3397
aVimplicitRules
p3398
aVtype
p3399
aVstatus
p3400
aVdescription
p3401
aVfhirVersion
p3402
aVmapping
p3403
aVbaseDefinition
p3404
aVderivation
p3405
aVuseContext
p3406
aVpurpose
p3407
aVdate
p3408
aVname
p3409
aVpublisher
p3410
aVkind
p3411
aVcontextInvariant
p3412
aVlanguage
p3413
aVextension
p3414
aVurl
p3415
aVdifferential
p3416
aVcontact
p3417
aVsnapshot
p3418
aVcontext
p3419
aVidentifier
p3420
aVexperimental
p3421
asVInvoice
p3422
(lp3423
Vtext
p3424
aVtotalPriceComponent
p3425
aVmeta
p3426
aVid
p3427
aVissuer
p3428
aVmodifierExtension
p3429
aVparticipant
p3430
aVcontained
p3431
aVnote
p3432
aVcancelledReason
p3433
aVtotalNet
p3434
aVsubject
p3435
aVtype
p3436
aVstatus
p3437
aVlineItem
p3438
aVdate
p3439
aVlineItemReference
p3440
aVrecipient
p3441
aVimplicitRules
p3442
aVtotalGross
p3443
aVaccount
p3444
aVlineItemCodeableConcept
p3445
aVlanguage
p3446
aVextension
p3447
aVpaymentTerms
p3448
aVidentifier
p3449
asVMeasure
p3450
(lp3451
Vsubtitle
p3452
aVtext
p3453
aVjurisdiction
p3454
aVlibrary
p3455
aVtopic
p3456
aVmeta
p3457
aVreviewer
p3458
aVid
p3459
aVclinicalRecommendationStatement
p3460
aVscoring
p3461
aVmodifierExtension
p3462
aVgroup
p3463
aVcopyright
p3464
aVtitle
p3465
aVguidance
p3466
aVlastReviewDate
p3467
aVrateAggregation
p3468
aVcontained
p3469
aVversion
p3470
aVeditor
p3471
aVusage
p3472
aVimplicitRules
p3473
aVtype
p3474
aVstatus
p3475
aVapprovalDate
p3476
aVsupplementalData
p3477
aVdescription
p3478
aVdefinition
p3479
aVeffectivePeriod
p3480
aVcompositeScoring
p3481
aVuseContext
p3482
aVpurpose
p3483
aVrationale
p3484
aVsubjectReference
p3485
aVdate
p3486
aVriskAdjustment
p3487
aVname
p3488
aVpublisher
p3489
aVlanguage
p3490
aVextension
p3491
aVurl
p3492
aVendorser
p3493
aVauthor
p3494
aVsubjectCodeableConcept
p3495
aVimprovementNotation
p3496
aVcontact
p3497
aVrelatedArtifact
p3498
aVidentifier
p3499
aVexperimental
p3500
aVdisclaimer
p3501
asVQuestionnaire
p3502
(lp3503
Vcode
p3504
aVitemBoolean
p3505
aVitemDate
p3506
aVtext
p3507
aVsubjectType
p3508
aVitemAttachment
p3509
aVmeta
p3510
aVitemQuantity
p3511
aVid
p3512
aVitemInteger
p3513
aVmodifierExtension
p3514
aVcopyright
p3515
aVtitle
p3516
aVitemCoding
p3517
aVitemTime
p3518
aVlastReviewDate
p3519
aVcontained
p3520
aVversion
p3521
aVimplicitRules
p3522
aVstatus
p3523
aVapprovalDate
p3524
aVjurisdiction
p3525
aVitemString
p3526
aVdescription
p3527
aVderivedFrom
p3528
aVitemDateTime
p3529
aVeffectivePeriod
p3530
aVitemDecimal
p3531
aVuseContext
p3532
aVpurpose
p3533
aVdate
p3534
aVname
p3535
aVpublisher
p3536
aVlanguage
p3537
aVextension
p3538
aVurl
p3539
aVitemReference
p3540
aVitemUri
p3541
aVitem
p3542
aVcontact
p3543
aVidentifier
p3544
aVexperimental
p3545
asVConceptMap
p3546
(lp3547
Vtext
p3548
aVjurisdiction
p3549
aVmeta
p3550
aVid
p3551
aVmodifierExtension
p3552
aVtargetCanonical
p3553
aVcopyright
p3554
aVtitle
p3555
aVsourceCanonical
p3556
aVtargetUri
p3557
aVcontained
p3558
aVversion
p3559
aVimplicitRules
p3560
aVstatus
p3561
aVdescription
p3562
aVsourceUri
p3563
aVuseContext
p3564
aVpurpose
p3565
aVdate
p3566
aVgroup
p3567
aVname
p3568
aVpublisher
p3569
aVlanguage
p3570
aVextension
p3571
aVurl
p3572
aVcontact
p3573
aVidentifier
p3574
aVexperimental
p3575
asVSlot
p3576
(lp3577
Vstatus
p3578
aVoverbooked
p3579
aVserviceCategory
p3580
aVmodifierExtension
p3581
aVend
p3582
aVextension
p3583
aVlanguage
p3584
aVschedule
p3585
aVtext
p3586
aVserviceType
p3587
aVcomment
p3588
aVspecialty
p3589
aVstart
p3590
aVcontained
p3591
aVmeta
p3592
aVappointmentType
p3593
aVidentifier
p3594
aVid
p3595
aVimplicitRules
p3596
asVCarePlan
p3597
(lp3598
Vaddresses
p3599
aVtext
p3600
aVperiod
p3601
aVactivityCodeableConcept
p3602
aVmeta
p3603
aVcontributor
p3604
aVid
p3605
aVactivityString
p3606
aVsubject
p3607
aVcategory
p3608
aVmodifierExtension
p3609
aVgoal
p3610
aVtitle
p3611
aVbasedOn
p3612
aVinstantiatesCanonical
p3613
aVnote
p3614
aVcontained
p3615
aVactivityTiming
p3616
aVstatus
p3617
aVinstantiatesUri
p3618
aVdescription
p3619
aVactivityReference
p3620
aVsupportingInfo
p3621
aVintent
p3622
aVactivityPeriod
p3623
aVencounter
p3624
aVimplicitRules
p3625
aVreplaces
p3626
aVlanguage
p3627
aVextension
p3628
aVcreated
p3629
aVauthor
p3630
aVactivity
p3631
aVcareTeam
p3632
aVidentifier
p3633
aVpartOf
p3634
asVMedicinalProductInteraction
p3635
(lp3636
VinteractantReference
p3637
aVmodifierExtension
p3638
aVextension
p3639
aVlanguage
p3640
aVtext
p3641
aVdescription
p3642
aVincidence
p3643
aVeffect
p3644
aVinteractant
p3645
aVcontained
p3646
aVmeta
p3647
aVtype
p3648
aVmanagement
p3649
aVsubject
p3650
aVinteractantCodeableConcept
p3651
aVid
p3652
aVimplicitRules
p3653
asVSubstanceReferenceInformation
p3654
(lp3655
Vcomment
p3656
aVtargetString
p3657
aVclassification
p3658
aVmodifierExtension
p3659
aVextension
p3660
aVlanguage
p3661
aVtext
p3662
aVtargetQuantity
p3663
aVgeneElement
p3664
aVcontained
p3665
aVmeta
p3666
aVtarget
p3667
aVtargetRange
p3668
aVgene
p3669
aVid
p3670
aVimplicitRules
p3671
asVMedia
p3672
(lp3673
VdeviceName
p3674
aVcreatedPeriod
p3675
aVtext
p3676
aVheight
p3677
aVframes
p3678
aVmeta
p3679
aVbodySite
p3680
aVoperator
p3681
aVreasonCode
p3682
aVmodality
p3683
aVsubject
p3684
aVnote
p3685
aVmodifierExtension
p3686
aVbasedOn
p3687
aVid
p3688
aVcontent
p3689
aVwidth
p3690
aVcontained
p3691
aVissued
p3692
aVtype
p3693
aVstatus
p3694
aVduration
p3695
aVdevice
p3696
aVencounter
p3697
aVimplicitRules
p3698
aVlanguage
p3699
aVextension
p3700
aVcreatedDateTime
p3701
aVidentifier
p3702
aVpartOf
p3703
aVview
p3704
asVHealthcareService
p3705
(lp3706
Vcomment
p3707
aVtelecom
p3708
aVtext
p3709
aVcommunication
p3710
aVprovidedBy
p3711
aVmeta
p3712
aVreferralMethod
p3713
aVid
p3714
aVcategory
p3715
aVmodifierExtension
p3716
aVavailabilityExceptions
p3717
aVcontained
p3718
aVprogram
p3719
aVlocation
p3720
aVcoverageArea
p3721
aVimplicitRules
p3722
aVtype
p3723
aVphoto
p3724
aVeligibility
p3725
aVavailableTime
p3726
aVspecialty
p3727
aVextraDetails
p3728
aVappointmentRequired
p3729
aVactive
p3730
aVname
p3731
aVendpoint
p3732
aVnotAvailable
p3733
aVlanguage
p3734
aVextension
p3735
aVcharacteristic
p3736
aVserviceProvisionCode
p3737
aVidentifier
p3738
asVMedicinalProductContraindication
p3739
(lp3740
Vpopulation
p3741
aVmodifierExtension
p3742
aVextension
p3743
aVlanguage
p3744
aVcomorbidity
p3745
aVtext
p3746
aVdisease
p3747
aVotherTherapy
p3748
aVdiseaseStatus
p3749
aVotherTherapyReference
p3750
aVcontained
p3751
aVmeta
p3752
aVotherTherapyCodeableConcept
p3753
aVtherapeuticIndication
p3754
aVsubject
p3755
aVid
p3756
aVimplicitRules
p3757
asVVisionPrescription
p3758
(lp3759
Vstatus
p3760
aVmodifierExtension
p3761
aVpatient
p3762
aVextension
p3763
aVlanguage
p3764
aVcreated
p3765
aVtext
p3766
aVdateWritten
p3767
aVcontained
p3768
aVmeta
p3769
aVlensSpecification
p3770
aVprescriber
p3771
aVidentifier
p3772
aVid
p3773
aVencounter
p3774
aVimplicitRules
p3775
asVAllergyIntolerance
p3776
(lp3777
VlastOccurrence
p3778
aVcode
p3779
aVonsetString
p3780
aVtext
p3781
aVonsetDateTime
p3782
aVclinicalStatus
p3783
aVonsetPeriod
p3784
aVmeta
p3785
aVonsetRange
p3786
aVonsetAge
p3787
aVid
p3788
aVcategory
p3789
aVmodifierExtension
p3790
aVnote
p3791
aVcontained
p3792
aVrecorder
p3793
aVtype
p3794
aVpatient
p3795
aVcriticality
p3796
aVrecordedDate
p3797
aVasserter
p3798
aVencounter
p3799
aVimplicitRules
p3800
aVreaction
p3801
aVlanguage
p3802
aVextension
p3803
aVidentifier
p3804
aVverificationStatus
p3805
asVDomainResource
p3806
(lp3807
VmodifierExtension
p3808
aVextension
p3809
aVlanguage
p3810
aVtext
p3811
aVcontained
p3812
aVmeta
p3813
aVid
p3814
aVimplicitRules
p3815
asVEnrollmentRequest
p3816
(lp3817
Vstatus
p3818
aVmodifierExtension
p3819
aVextension
p3820
aVlanguage
p3821
aVcreated
p3822
aVtext
p3823
aVinsurer
p3824
aVcontained
p3825
aVmeta
p3826
aVcoverage
p3827
aVprovider
p3828
aVcandidate
p3829
aVidentifier
p3830
aVid
p3831
aVimplicitRules
p3832
asVComposition
p3833
(lp3834
Vevent
p3835
aVconfidentiality
p3836
aVtext
p3837
aVmeta
p3838
aVid
p3839
aVsubject
p3840
aVcategory
p3841
aVmodifierExtension
p3842
aVauthor
p3843
aVsection
p3844
aVrelatesToIdentifier
p3845
aVcontained
p3846
aVtype
p3847
aVstatus
p3848
aVrelatesToReference
p3849
aVcustodian
p3850
aVrelatesTo
p3851
aVdate
p3852
aVencounter
p3853
aVimplicitRules
p3854
aVlanguage
p3855
aVextension
p3856
aVattester
p3857
aVtitle
p3858
aVidentifier
p3859
asVCatalogEntry
p3860
(lp3861
Vstatus
p3862
aVclassification
p3863
aVmodifierExtension
p3864
aVadditionalCharacteristic
p3865
aVextension
p3866
aVlanguage
p3867
aVvalidityPeriod
p3868
aVtext
p3869
aVreferencedItem
p3870
aVadditionalClassification
p3871
aVrelatedEntry
p3872
aVlastUpdated
p3873
aVcontained
p3874
aVmeta
p3875
aVvalidTo
p3876
aVadditionalIdentifier
p3877
aVorderable
p3878
aVidentifier
p3879
aVtype
p3880
aVid
p3881
aVimplicitRules
p3882
asVSpecimen
p3883
(lp3884
VprocessingPeriod
p3885
aVtext
p3886
aVcontainerCodeableConcept
p3887
aVmeta
p3888
aVcollectionDateTime
p3889
aVcollectionCodeableConcept
p3890
aVid
p3891
aVsubject
p3892
aVmodifierExtension
p3893
aVcontainer
p3894
aVaccessionIdentifier
p3895
aVcollectionPeriod
p3896
aVreceivedTime
p3897
aVcontainerReference
p3898
aVnote
p3899
aVcontained
p3900
aVtype
p3901
aVstatus
p3902
aVparent
p3903
aVprocessing
p3904
aVcollection
p3905
aVprocessingDateTime
p3906
aVcollectionDuration
p3907
aVcondition
p3908
aVimplicitRules
p3909
aVlanguage
p3910
aVextension
p3911
aVrequest
p3912
aVidentifier
p3913
asVConsent
p3914
(lp3915
Vperformer
p3916
aVsourceAttachment
p3917
aVtext
p3918
aVmeta
p3919
aVid
p3920
aVcategory
p3921
aVmodifierExtension
p3922
aVcontained
p3923
aVpolicy
p3924
aVscope
p3925
aVstatus
p3926
aVpatient
p3927
aVpolicyRule
p3928
aVsourceReference
p3929
aVprovision
p3930
aVimplicitRules
p3931
aVlanguage
p3932
aVextension
p3933
aVdateTime
p3934
aVverification
p3935
aVorganization
p3936
aVidentifier
p3937
asVSearchParameter
p3938
(lp3939
VxpathUsage
p3940
aVxpath
p3941
aVcode
p3942
aVchain
p3943
aVtext
p3944
aVjurisdiction
p3945
aVmeta
p3946
aVid
p3947
aVmodifierExtension
p3948
aVcomparator
p3949
aVcontained
p3950
aVversion
p3951
aVmultipleOr
p3952
aVimplicitRules
p3953
aVtype
p3954
aVstatus
p3955
aVdescription
p3956
aVderivedFrom
p3957
aVcomponent
p3958
aVbase
p3959
aVuseContext
p3960
aVpurpose
p3961
aVdate
p3962
aVname
p3963
aVpublisher
p3964
aVlanguage
p3965
aVextension
p3966
aVurl
p3967
aVmultipleAnd
p3968
aVcontact
p3969
aVtarget
p3970
aVmodifier
p3971
aVexpression
p3972
aVexperimental
p3973
asVAppointmentResponse
p3974
(lp3975
Vcomment
p3976
aVmodifierExtension
p3977
aVappointment
p3978
aVextension
p3979
aVlanguage
p3980
aVtext
p3981
aVactor
p3982
aVstart
p3983
aVcontained
p3984
aVmeta
p3985
aVparticipantType
p3986
aVend
p3987
aVidentifier
p3988
aVparticipantStatus
p3989
aVid
p3990
aVimplicitRules
p3991
asVClaimResponse
p3992
(lp3993
VpreAuthPeriod
p3994
aVtext
p3995
aVaddItemDate
p3996
aVadjudication
p3997
aVfundsReserve
p3998
aVsubType
p3999
aVmeta
p4000
aVpayeeType
p4001
aVtotal
p4002
aVprocessNote
p4003
aVid
p4004
aVuse
p4005
aVmodifierExtension
p4006
aVaddItemCodeableConcept
p4007
aVaddItemPeriod
p4008
aVinsurance
p4009
aVrequestor
p4010
aVcontained
p4011
aVaddItemReference
p4012
aVtype
p4013
aVstatus
p4014
aVpatient
p4015
aVform
p4016
aVinsurer
p4017
aVaddItem
p4018
aVcommunicationRequest
p4019
aVdisposition
p4020
aVpayment
p4021
aVpreAuthRef
p4022
aVimplicitRules
p4023
aVformCode
p4024
aVidentifier
p4025
aVlanguage
p4026
aVextension
p4027
aVcreated
p4028
aVrequest
p4029
aVitem
p4030
aVerror
p4031
aVoutcome
p4032
aVaddItemAddress
p4033
asVResearchStudy
p4034
(lp4035
Vprotocol
p4036
aVtext
p4037
aVprincipalInvestigator
p4038
aVfocus
p4039
aVreasonStopped
p4040
aVmeta
p4041
aVkeyword
p4042
aVid
p4043
aVcategory
p4044
aVmodifierExtension
p4045
aVtitle
p4046
aVprimaryPurposeType
p4047
aVarm
p4048
aVnote
p4049
aVcontained
p4050
aVlocation
p4051
aVobjective
p4052
aVstatus
p4053
aVdescription
p4054
aVperiod
p4055
aVphase
p4056
aVcondition
p4057
aVimplicitRules
p4058
aVlanguage
p4059
aVextension
p4060
aVsite
p4061
aVenrollment
p4062
aVcontact
p4063
aVrelatedArtifact
p4064
aVidentifier
p4065
aVpartOf
p4066
aVsponsor
p4067
asVEpisodeOfCare
p4068
(lp4069
Vstatus
p4070
aVmanagingOrganization
p4071
aVaccount
p4072
aVmodifierExtension
p4073
aVpatient
p4074
aVextension
p4075
aVlanguage
p4076
aVcareManager
p4077
aVtext
p4078
aVperiod
p4079
aVstatusHistory
p4080
aVcontained
p4081
aVmeta
p4082
aVreferralRequest
p4083
aVdiagnosis
p4084
aVteam
p4085
aVidentifier
p4086
aVtype
p4087
aVid
p4088
aVimplicitRules
p4089
asVRelatedPerson
p4090
(lp4091
VmodifierExtension
p4092
aVpatient
p4093
aVextension
p4094
aVlanguage
p4095
aVtelecom
p4096
aVtext
p4097
aVaddress
p4098
aVcommunication
p4099
aVperiod
p4100
aVbirthDate
p4101
aVname
p4102
aVcontained
p4103
aVmeta
p4104
aVrelationship
p4105
aVgender
p4106
aVactive
p4107
aVidentifier
p4108
aVid
p4109
aVphoto
p4110
aVimplicitRules
p4111
asVServiceRequest
p4112
(lp4113
Vcode
p4114
aVpatientInstruction
p4115
aVquantityQuantity
p4116
aVtext
p4117
aVrelevantHistory
p4118
aVmeta
p4119
aVbodySite
p4120
aVreasonCode
p4121
aVasNeededBoolean
p4122
aVid
p4123
aVsubject
p4124
aVcategory
p4125
aVnote
p4126
aVmodifierExtension
p4127
aVasNeededCodeableConcept
p4128
aVquantityRange
p4129
aVperformer
p4130
aVbasedOn
p4131
aVinstantiatesCanonical
p4132
aVinsurance
p4133
aVpriority
p4134
aVcontained
p4135
aVoccurrencePeriod
p4136
aVlocationCode
p4137
aVstatus
p4138
aVinstantiatesUri
p4139
aVspecimen
p4140
aVsupportingInfo
p4141
aVauthoredOn
p4142
aVintent
p4143
aVrequester
p4144
aVoccurrenceDateTime
p4145
aVencounter
p4146
aVimplicitRules
p4147
aVquantityRatio
p4148
aVreplaces
p4149
aVreasonReference
p4150
aVlanguage
p4151
aVextension
p4152
aVperformerType
p4153
aVorderDetail
p4154
aVdoNotPerform
p4155
aVrequisition
p4156
aVoccurrenceTiming
p4157
aVidentifier
p4158
aVlocationReference
p4159
asVTerminologyCapabilities
p4160
(lp4161
Vtext
p4162
aVjurisdiction
p4163
aVlockedDate
p4164
aVmeta
p4165
aVid
p4166
aVmodifierExtension
p4167
aVcopyright
p4168
aVtitle
p4169
aVimplementation
p4170
aVcodeSearch
p4171
aVcodeSystem
p4172
aVcontained
p4173
aVversion
p4174
aVvalidateCode
p4175
aVimplicitRules
p4176
aVstatus
p4177
aVdescription
p4178
aVexpansion
p4179
aVuseContext
p4180
aVpurpose
p4181
aVdate
p4182
aVtranslation
p4183
aVname
p4184
aVclosure
p4185
aVpublisher
p4186
aVkind
p4187
aVlanguage
p4188
aVextension
p4189
aVurl
p4190
aVcontact
p4191
aVexperimental
p4192
aVsoftware
p4193
asVEndpoint
p4194
(lp4195
Vstatus
p4196
aVmanagingOrganization
p4197
aVmodifierExtension
p4198
aVextension
p4199
aVlanguage
p4200
aVheader
p4201
aVtext
p4202
aVpayloadMimeType
p4203
aVperiod
p4204
aVconnectionType
p4205
aVname
p4206
aVpayloadType
p4207
aVcontained
p4208
aVmeta
p4209
aVcontact
p4210
aVaddress
p4211
aVidentifier
p4212
aVid
p4213
aVimplicitRules
p4214
asVResource
p4215
(lp4216
Vmeta
p4217
aVid
p4218
aVlanguage
p4219
aVimplicitRules
p4220
asVDeviceMetric
p4221
(lp4222
Vparent
p4223
aVcategory
p4224
aVmodifierExtension
p4225
aVextension
p4226
aVlanguage
p4227
aVcalibration
p4228
aVcolor
p4229
aVtext
p4230
aVoperationalStatus
p4231
aVsource
p4232
aVcontained
p4233
aVmeta
p4234
aVmeasurementPeriod
p4235
aVidentifier
p4236
aVtype
p4237
aVid
p4238
aVunit
p4239
aVimplicitRules
p4240
asVList
p4241
(lp4242
Vstatus
p4243
aVmodifierExtension
p4244
aVextension
p4245
aVlanguage
p4246
aVtitle
p4247
aVtext
p4248
aVcode
p4249
aVsubject
p4250
aVnote
p4251
aVsource
p4252
aVcontained
p4253
aVmeta
p4254
aVemptyReason
p4255
aVmode
p4256
aVorderedBy
p4257
aVdate
p4258
aVentry
p4259
aVidentifier
p4260
aVid
p4261
aVencounter
p4262
aVimplicitRules
p4263
asVMedicinalProductManufactured
p4264
(lp4265
VmanufacturedDoseForm
p4266
aVotherCharacteristics
p4267
aVmodifierExtension
p4268
aVingredient
p4269
aVextension
p4270
aVlanguage
p4271
aVquantity
p4272
aVtext
p4273
aVcontained
p4274
aVmeta
p4275
aVphysicalCharacteristics
p4276
aVunitOfPresentation
p4277
aVid
p4278
aVmanufacturer
p4279
aVimplicitRules
p4280
asVAuditEvent
p4281
(lp4282
VentityBase64Binary
p4283
aVmodifierExtension
p4284
aVentityString
p4285
aVextension
p4286
aVlanguage
p4287
aVsource
p4288
aVtext
p4289
aVrecorded
p4290
aVperiod
p4291
aVagent
p4292
aVentity
p4293
aVsubtype
p4294
aVcontained
p4295
aVmeta
p4296
aVoutcomeDesc
p4297
aVaction
p4298
aVpurposeOfEvent
p4299
aVoutcome
p4300
aVtype
p4301
aVid
p4302
aVimplicitRules
p4303
asVMedicinalProductIngredient
p4304
(lp4305
VspecifiedSubstance
p4306
aVmodifierExtension
p4307
aVextension
p4308
aVlanguage
p4309
aVsubstance
p4310
aVtext
p4311
aVallergenicIndicator
p4312
aVcontained
p4313
aVmeta
p4314
aVrole
p4315
aVidentifier
p4316
aVid
p4317
aVmanufacturer
p4318
aVimplicitRules
p4319
asVImmunizationEvaluation
p4320
(lp4321
Vtext
p4322
aVauthority
p4323
aVmeta
p4324
aVid
p4325
aVmodifierExtension
p4326
aVseriesDosesString
p4327
aVdoseNumberString
p4328
aVcontained
p4329
aVseries
p4330
aVdoseStatus
p4331
aVstatus
p4332
aVimmunizationEvent
p4333
aVpatient
p4334
aVdescription
p4335
aVseriesDosesPositiveInt
p4336
aVdoseNumberPositiveInt
p4337
aVdate
p4338
aVtargetDisease
p4339
aVimplicitRules
p4340
aVlanguage
p4341
aVextension
p4342
aVdoseStatusReason
p4343
aVidentifier
p4344
asVMessageDefinition
p4345
(lp4346
Vtext
p4347
aVallowedResponse
p4348
aVjurisdiction
p4349
aVfocus
p4350
aVeventUri
p4351
aVmeta
p4352
aVid
p4353
aVcategory
p4354
aVmodifierExtension
p4355
aVcopyright
p4356
aVtitle
p4357
aVgraph
p4358
aVcontained
p4359
aVversion
p4360
aVimplicitRules
p4361
aVstatus
p4362
aVdescription
p4363
aVparent
p4364
aVbase
p4365
aVuseContext
p4366
aVpurpose
p4367
aVdate
p4368
aVeventCoding
p4369
aVname
p4370
aVpublisher
p4371
aVreplaces
p4372
aVlanguage
p4373
aVextension
p4374
aVurl
p4375
aVcontact
p4376
aVresponseRequired
p4377
aVidentifier
p4378
aVexperimental
p4379
asVExampleScenario
p4380
(lp4381
Vprocess
p4382
aVtext
p4383
aVjurisdiction
p4384
aVmeta
p4385
aVid
p4386
aVmodifierExtension
p4387
aVcopyright
p4388
aVactor
p4389
aVinstance
p4390
aVcontained
p4391
aVversion
p4392
aVimplicitRules
p4393
aVstatus
p4394
aVworkflow
p4395
aVuseContext
p4396
aVpurpose
p4397
aVdate
p4398
aVname
p4399
aVpublisher
p4400
aVlanguage
p4401
aVextension
p4402
aVurl
p4403
aVcontact
p4404
aVidentifier
p4405
aVexperimental
p4406
asVBodyStructure
p4407
(lp4408
VmodifierExtension
p4409
aVpatient
p4410
aVextension
p4411
aVlanguage
p4412
aVtext
p4413
aVdescription
p4414
aVlocationQualifier
p4415
aVmorphology
p4416
aVcontained
p4417
aVmeta
p4418
aVlocation
p4419
aVimage
p4420
aVactive
p4421
aVidentifier
p4422
aVid
p4423
aVimplicitRules
p4424
asVEnrollmentResponse
p4425
(lp4426
Vstatus
p4427
aVmodifierExtension
p4428
aVextension
p4429
aVlanguage
p4430
aVcreated
p4431
aVtext
p4432
aVoutcome
p4433
aVrequest
p4434
aVcontained
p4435
aVmeta
p4436
aVdisposition
p4437
aVrequestProvider
p4438
aVorganization
p4439
aVidentifier
p4440
aVid
p4441
aVimplicitRules
p4442
asVCompartmentDefinition
p4443
(lp4444
Vcode
p4445
aVtext
p4446
aVmeta
p4447
aVid
p4448
aVmodifierExtension
p4449
aVcontained
p4450
aVversion
p4451
aVimplicitRules
p4452
aVstatus
p4453
aVdescription
p4454
aVuseContext
p4455
aVpurpose
p4456
aVdate
p4457
aVname
p4458
aVpublisher
p4459
aVsearch
p4460
aVresource
p4461
aVlanguage
p4462
aVextension
p4463
aVurl
p4464
aVcontact
p4465
aVexperimental
p4466
asVSupplyDelivery
p4467
(lp4468
Vtext
p4469
aVmeta
p4470
aVid
p4471
aVsuppliedItem
p4472
aVmodifierExtension
p4473
aVdestination
p4474
aVbasedOn
p4475
aVcontained
p4476
aVoccurrencePeriod
p4477
aVsupplier
p4478
aVtype
p4479
aVstatus
p4480
aVpatient
p4481
aVsuppliedItemCodeableConcept
p4482
aVoccurrenceDateTime
p4483
aVimplicitRules
p4484
aVlanguage
p4485
aVextension
p4486
aVsuppliedItemReference
p4487
aVoccurrenceTiming
p4488
aVreceiver
p4489
aVidentifier
p4490
aVpartOf
p4491
asVTestReport
p4492
(lp4493
Vstatus
p4494
aVresult
p4495
aVmodifierExtension
p4496
aVparticipant
p4497
aVextension
p4498
aVlanguage
p4499
aVtester
p4500
aVteardown
p4501
aVtext
p4502
aVsetup
p4503
aVname
p4504
aVcontained
p4505
aVmeta
p4506
aVtestScript
p4507
aVissued
p4508
aVtest
p4509
aVscore
p4510
aVidentifier
p4511
aVid
p4512
aVimplicitRules
p4513
as.